
CAN.elf:     file format elf32-littlearm

Sections:
Idx Name          Size      VMA       LMA       File off  Algn
  0 .isr_vector   00000188  08000000  08000000  00008000  2**0
                  CONTENTS, ALLOC, LOAD, READONLY, DATA
  1 .text         000082c0  08000188  08000188  00008188  2**2
                  CONTENTS, ALLOC, LOAD, READONLY, CODE
  2 .data         00000880  20000000  08008448  00018000  2**3
                  CONTENTS, ALLOC, LOAD, DATA
  3 .bss          00000134  20000880  08008cc8  00018880  2**2
                  ALLOC
  4 .ARM.attributes 0000002f  00000000  00000000  00018880  2**0
                  CONTENTS, READONLY
  5 .comment      0000003a  00000000  00000000  000188af  2**0
                  CONTENTS, READONLY
  6 .debug_info   000042a7  00000000  00000000  000188e9  2**0
                  CONTENTS, READONLY, DEBUGGING
  7 .debug_abbrev 00000bb5  00000000  00000000  0001cb90  2**0
                  CONTENTS, READONLY, DEBUGGING
  8 .debug_loc    0000119d  00000000  00000000  0001d745  2**0
                  CONTENTS, READONLY, DEBUGGING
  9 .debug_aranges 000000e0  00000000  00000000  0001e8e2  2**0
                  CONTENTS, READONLY, DEBUGGING
 10 .debug_line   00000dc6  00000000  00000000  0001e9c2  2**0
                  CONTENTS, READONLY, DEBUGGING
 11 .debug_str    00000a40  00000000  00000000  0001f788  2**0
                  CONTENTS, READONLY, DEBUGGING
 12 .debug_frame  00000198  00000000  00000000  000201c8  2**2
                  CONTENTS, READONLY, DEBUGGING
 13 .debug_ranges 00000040  00000000  00000000  00020360  2**0
                  CONTENTS, READONLY, DEBUGGING

Disassembly of section .text:

08000188 <list_create>:
 8000188:	b510      	push	{r4, lr}
 800018a:	4604      	mov	r4, r0
 800018c:	2008      	movs	r0, #8
 800018e:	f007 fbe3 	bl	8007958 <malloc>
 8000192:	b110      	cbz	r0, 800019a <list_create+0x12>
 8000194:	2300      	movs	r3, #0
 8000196:	6004      	str	r4, [r0, #0]
 8000198:	6043      	str	r3, [r0, #4]
 800019a:	bd10      	pop	{r4, pc}

0800019c <list_append>:
 800019c:	b538      	push	{r3, r4, r5, lr}
 800019e:	4604      	mov	r4, r0
 80001a0:	2008      	movs	r0, #8
 80001a2:	460d      	mov	r5, r1
 80001a4:	f007 fbd8 	bl	8007958 <malloc>
 80001a8:	b110      	cbz	r0, 80001b0 <list_append+0x14>
 80001aa:	2300      	movs	r3, #0
 80001ac:	6005      	str	r5, [r0, #0]
 80001ae:	6043      	str	r3, [r0, #4]
 80001b0:	6863      	ldr	r3, [r4, #4]
 80001b2:	b13b      	cbz	r3, 80001c4 <list_append+0x28>
 80001b4:	4623      	mov	r3, r4
 80001b6:	685b      	ldr	r3, [r3, #4]
 80001b8:	685a      	ldr	r2, [r3, #4]
 80001ba:	2a00      	cmp	r2, #0
 80001bc:	d1fb      	bne.n	80001b6 <list_append+0x1a>
 80001be:	6058      	str	r0, [r3, #4]
 80001c0:	4620      	mov	r0, r4
 80001c2:	bd38      	pop	{r3, r4, r5, pc}
 80001c4:	4623      	mov	r3, r4
 80001c6:	e7fa      	b.n	80001be <list_append+0x22>

080001c8 <list_countElements>:
 80001c8:	6843      	ldr	r3, [r0, #4]
 80001ca:	b13b      	cbz	r3, 80001dc <list_countElements+0x14>
 80001cc:	4603      	mov	r3, r0
 80001ce:	2000      	movs	r0, #0
 80001d0:	685b      	ldr	r3, [r3, #4]
 80001d2:	685a      	ldr	r2, [r3, #4]
 80001d4:	3001      	adds	r0, #1
 80001d6:	2a00      	cmp	r2, #0
 80001d8:	d1fa      	bne.n	80001d0 <list_countElements+0x8>
 80001da:	4770      	bx	lr
 80001dc:	4618      	mov	r0, r3
 80001de:	4770      	bx	lr

080001e0 <STM_EVAL_LEDInit>:
 80001e0:	b530      	push	{r4, r5, lr}
 80001e2:	f248 34a8 	movw	r4, #33704	; 0x83a8
 80001e6:	f6c0 0400 	movt	r4, #2048	; 0x800
 80001ea:	4605      	mov	r5, r0
 80001ec:	f854 0020 	ldr.w	r0, [r4, r0, lsl #2]
 80001f0:	eb04 0445 	add.w	r4, r4, r5, lsl #1
 80001f4:	b083      	sub	sp, #12
 80001f6:	2101      	movs	r1, #1
 80001f8:	f004 fdb6 	bl	8004d68 <RCC_AHB1PeriphClockCmd>
 80001fc:	8a23      	ldrh	r3, [r4, #16]
 80001fe:	f240 0200 	movw	r2, #0
 8000202:	f2c2 0200 	movt	r2, #8192	; 0x2000
 8000206:	9300      	str	r3, [sp, #0]
 8000208:	2301      	movs	r3, #1
 800020a:	f852 0025 	ldr.w	r0, [r2, r5, lsl #2]
 800020e:	f88d 3004 	strb.w	r3, [sp, #4]
 8000212:	2200      	movs	r2, #0
 8000214:	f88d 3007 	strb.w	r3, [sp, #7]
 8000218:	4669      	mov	r1, sp
 800021a:	2302      	movs	r3, #2
 800021c:	f88d 2006 	strb.w	r2, [sp, #6]
 8000220:	f88d 3005 	strb.w	r3, [sp, #5]
 8000224:	f003 fddc 	bl	8003de0 <GPIO_Init>
 8000228:	b003      	add	sp, #12
 800022a:	bd30      	pop	{r4, r5, pc}

0800022c <STM_EVAL_LEDOn>:
 800022c:	f248 33a8 	movw	r3, #33704	; 0x83a8
 8000230:	f240 0200 	movw	r2, #0
 8000234:	f6c0 0300 	movt	r3, #2048	; 0x800
 8000238:	f2c2 0200 	movt	r2, #8192	; 0x2000
 800023c:	eb03 0340 	add.w	r3, r3, r0, lsl #1
 8000240:	f852 2020 	ldr.w	r2, [r2, r0, lsl #2]
 8000244:	8a1b      	ldrh	r3, [r3, #16]
 8000246:	8313      	strh	r3, [r2, #24]
 8000248:	4770      	bx	lr
 800024a:	bf00      	nop

0800024c <STM_EVAL_LEDOff>:
 800024c:	f248 33a8 	movw	r3, #33704	; 0x83a8
 8000250:	f240 0200 	movw	r2, #0
 8000254:	f6c0 0300 	movt	r3, #2048	; 0x800
 8000258:	f2c2 0200 	movt	r2, #8192	; 0x2000
 800025c:	eb03 0340 	add.w	r3, r3, r0, lsl #1
 8000260:	f852 2020 	ldr.w	r2, [r2, r0, lsl #2]
 8000264:	8a1b      	ldrh	r3, [r3, #16]
 8000266:	8353      	strh	r3, [r2, #26]
 8000268:	4770      	bx	lr
 800026a:	bf00      	nop

0800026c <STM_EVAL_LEDToggle>:
 800026c:	f240 0300 	movw	r3, #0
 8000270:	f2c2 0300 	movt	r3, #8192	; 0x2000
 8000274:	f248 32a8 	movw	r2, #33704	; 0x83a8
 8000278:	f6c0 0200 	movt	r2, #2048	; 0x800
 800027c:	f853 3020 	ldr.w	r3, [r3, r0, lsl #2]
 8000280:	eb02 0240 	add.w	r2, r2, r0, lsl #1
 8000284:	6959      	ldr	r1, [r3, #20]
 8000286:	8a12      	ldrh	r2, [r2, #16]
 8000288:	404a      	eors	r2, r1
 800028a:	615a      	str	r2, [r3, #20]
 800028c:	4770      	bx	lr
 800028e:	bf00      	nop

08000290 <STM_EVAL_PBInit>:
 8000290:	b530      	push	{r4, r5, lr}
 8000292:	4604      	mov	r4, r0
 8000294:	2001      	movs	r0, #1
 8000296:	b087      	sub	sp, #28
 8000298:	460d      	mov	r5, r1
 800029a:	4601      	mov	r1, r0
 800029c:	f004 fd64 	bl	8004d68 <RCC_AHB1PeriphClockCmd>
 80002a0:	2101      	movs	r1, #1
 80002a2:	f44f 4080 	mov.w	r0, #16384	; 0x4000
 80002a6:	f004 fd97 	bl	8004dd8 <RCC_APB2PeriphClockCmd>
 80002aa:	a906      	add	r1, sp, #24
 80002ac:	2301      	movs	r3, #1
 80002ae:	f841 3d14 	str.w	r3, [r1, #-20]!
 80002b2:	4b16      	ldr	r3, [pc, #88]	; (800030c <STM_EVAL_PBInit+0x7c>)
 80002b4:	eb03 0384 	add.w	r3, r3, r4, lsl #2
 80002b8:	2400      	movs	r4, #0
 80002ba:	6918      	ldr	r0, [r3, #16]
 80002bc:	f88d 4008 	strb.w	r4, [sp, #8]
 80002c0:	f88d 400b 	strb.w	r4, [sp, #11]
 80002c4:	f003 fd8c 	bl	8003de0 <GPIO_Init>
 80002c8:	2d01      	cmp	r5, #1
 80002ca:	d001      	beq.n	80002d0 <STM_EVAL_PBInit+0x40>
 80002cc:	b007      	add	sp, #28
 80002ce:	bd30      	pop	{r4, r5, pc}
 80002d0:	4620      	mov	r0, r4
 80002d2:	4621      	mov	r1, r4
 80002d4:	f006 f980 	bl	80065d8 <SYSCFG_EXTILineConfig>
 80002d8:	2308      	movs	r3, #8
 80002da:	a803      	add	r0, sp, #12
 80002dc:	f88d 3011 	strb.w	r3, [sp, #17]
 80002e0:	9503      	str	r5, [sp, #12]
 80002e2:	f88d 4010 	strb.w	r4, [sp, #16]
 80002e6:	f88d 5012 	strb.w	r5, [sp, #18]
 80002ea:	f002 ff71 	bl	80031d0 <EXTI_Init>
 80002ee:	230f      	movs	r3, #15
 80002f0:	2206      	movs	r2, #6
 80002f2:	a805      	add	r0, sp, #20
 80002f4:	f88d 2014 	strb.w	r2, [sp, #20]
 80002f8:	f88d 3015 	strb.w	r3, [sp, #21]
 80002fc:	f88d 3016 	strb.w	r3, [sp, #22]
 8000300:	f88d 5017 	strb.w	r5, [sp, #23]
 8000304:	f000 fe64 	bl	8000fd0 <NVIC_Init>
 8000308:	e7e0      	b.n	80002cc <STM_EVAL_PBInit+0x3c>
 800030a:	bf00      	nop
 800030c:	20000000 	.word	0x20000000

08000310 <STM_EVAL_PBGetState>:
 8000310:	b508      	push	{r3, lr}
 8000312:	f240 0300 	movw	r3, #0
 8000316:	f2c2 0300 	movt	r3, #8192	; 0x2000
 800031a:	eb03 0380 	add.w	r3, r3, r0, lsl #2
 800031e:	2101      	movs	r1, #1
 8000320:	6918      	ldr	r0, [r3, #16]
 8000322:	f003 fdd1 	bl	8003ec8 <GPIO_ReadInputDataBit>
 8000326:	bd08      	pop	{r3, pc}

08000328 <Q_UART_configDMA>:
 8000328:	b510      	push	{r4, lr}
 800032a:	2101      	movs	r1, #1
 800032c:	b082      	sub	sp, #8
 800032e:	f44f 1000 	mov.w	r0, #2097152	; 0x200000
 8000332:	f004 fd19 	bl	8004d68 <RCC_AHB1PeriphClockCmd>
 8000336:	f640 04f4 	movw	r4, #2292	; 0x8f4
 800033a:	f246 00a0 	movw	r0, #24736	; 0x60a0
 800033e:	f2c2 0400 	movt	r4, #8192	; 0x2000
 8000342:	f2c4 0002 	movt	r0, #16386	; 0x4002
 8000346:	f002 fcf9 	bl	8002d3c <DMA_DeInit>
 800034a:	4620      	mov	r0, r4
 800034c:	f002 fe34 	bl	8002fb8 <DMA_StructInit>
 8000350:	2300      	movs	r3, #0
 8000352:	6163      	str	r3, [r4, #20]
 8000354:	62a3      	str	r3, [r4, #40]	; 0x28
 8000356:	61e3      	str	r3, [r4, #28]
 8000358:	6223      	str	r3, [r4, #32]
 800035a:	f244 4204 	movw	r2, #17412	; 0x4404
 800035e:	2304      	movs	r3, #4
 8000360:	f2c4 0200 	movt	r2, #16384	; 0x4000
 8000364:	f04f 6100 	mov.w	r1, #134217728	; 0x8000000
 8000368:	62e3      	str	r3, [r4, #44]	; 0x2c
 800036a:	2311      	movs	r3, #17
 800036c:	e884 0006 	stmia.w	r4, {r1, r2}
 8000370:	f88d 3004 	strb.w	r3, [sp, #4]
 8000374:	2240      	movs	r2, #64	; 0x40
 8000376:	2301      	movs	r3, #1
 8000378:	60e2      	str	r2, [r4, #12]
 800037a:	f88d 3007 	strb.w	r3, [sp, #7]
 800037e:	f44f 6280 	mov.w	r2, #1024	; 0x400
 8000382:	230a      	movs	r3, #10
 8000384:	a801      	add	r0, sp, #4
 8000386:	61a2      	str	r2, [r4, #24]
 8000388:	f88d 3005 	strb.w	r3, [sp, #5]
 800038c:	f000 fe20 	bl	8000fd0 <NVIC_Init>
 8000390:	b002      	add	sp, #8
 8000392:	bd10      	pop	{r4, pc}

08000394 <Q_UART_init>:
 8000394:	b570      	push	{r4, r5, r6, lr}
 8000396:	2101      	movs	r1, #1
 8000398:	b088      	sub	sp, #32
 800039a:	f44f 3000 	mov.w	r0, #131072	; 0x20000
 800039e:	f004 fd0d 	bl	8004dbc <RCC_APB1PeriphClockCmd>
 80003a2:	2400      	movs	r4, #0
 80003a4:	2001      	movs	r0, #1
 80003a6:	f2c4 0402 	movt	r4, #16386	; 0x4002
 80003aa:	4601      	mov	r1, r0
 80003ac:	f004 fcdc 	bl	8004d68 <RCC_AHB1PeriphClockCmd>
 80003b0:	2102      	movs	r1, #2
 80003b2:	2207      	movs	r2, #7
 80003b4:	4620      	mov	r0, r4
 80003b6:	f003 fdab 	bl	8003f10 <GPIO_PinAFConfig>
 80003ba:	2207      	movs	r2, #7
 80003bc:	2103      	movs	r1, #3
 80003be:	4620      	mov	r0, r4
 80003c0:	f003 fda6 	bl	8003f10 <GPIO_PinAFConfig>
 80003c4:	a805      	add	r0, sp, #20
 80003c6:	f003 fd67 	bl	8003e98 <GPIO_StructInit>
 80003ca:	f44f 4588 	mov.w	r5, #17408	; 0x4400
 80003ce:	230c      	movs	r3, #12
 80003d0:	a905      	add	r1, sp, #20
 80003d2:	f2c4 0500 	movt	r5, #16384	; 0x4000
 80003d6:	4620      	mov	r0, r4
 80003d8:	9305      	str	r3, [sp, #20]
 80003da:	2302      	movs	r3, #2
 80003dc:	f88d 3018 	strb.w	r3, [sp, #24]
 80003e0:	f003 fcfe 	bl	8003de0 <GPIO_Init>
 80003e4:	4628      	mov	r0, r5
 80003e6:	f007 f83b 	bl	8007460 <USART_DeInit>
 80003ea:	a801      	add	r0, sp, #4
 80003ec:	f007 f90e 	bl	800760c <USART_StructInit>
 80003f0:	f44f 33e1 	mov.w	r3, #115200	; 0x1c200
 80003f4:	4628      	mov	r0, r5
 80003f6:	a901      	add	r1, sp, #4
 80003f8:	9301      	str	r3, [sp, #4]
 80003fa:	f007 f89b 	bl	8007534 <USART_Init>
 80003fe:	2101      	movs	r1, #1
 8000400:	f44f 1000 	mov.w	r0, #2097152	; 0x200000
 8000404:	f004 fcb0 	bl	8004d68 <RCC_AHB1PeriphClockCmd>
 8000408:	f640 04f4 	movw	r4, #2292	; 0x8f4
 800040c:	f246 00a0 	movw	r0, #24736	; 0x60a0
 8000410:	f2c2 0400 	movt	r4, #8192	; 0x2000
 8000414:	f2c4 0002 	movt	r0, #16386	; 0x4002
 8000418:	f002 fc90 	bl	8002d3c <DMA_DeInit>
 800041c:	4620      	mov	r0, r4
 800041e:	f002 fdcb 	bl	8002fb8 <DMA_StructInit>
 8000422:	f244 4204 	movw	r2, #17412	; 0x4404
 8000426:	2300      	movs	r3, #0
 8000428:	f04f 6100 	mov.w	r1, #134217728	; 0x8000000
 800042c:	f2c4 0200 	movt	r2, #16384	; 0x4000
 8000430:	e884 0006 	stmia.w	r4, {r1, r2}
 8000434:	6163      	str	r3, [r4, #20]
 8000436:	2240      	movs	r2, #64	; 0x40
 8000438:	62a3      	str	r3, [r4, #40]	; 0x28
 800043a:	61e3      	str	r3, [r4, #28]
 800043c:	6223      	str	r3, [r4, #32]
 800043e:	2304      	movs	r3, #4
 8000440:	60e2      	str	r2, [r4, #12]
 8000442:	62e3      	str	r3, [r4, #44]	; 0x2c
 8000444:	f44f 6280 	mov.w	r2, #1024	; 0x400
 8000448:	2311      	movs	r3, #17
 800044a:	2601      	movs	r6, #1
 800044c:	a807      	add	r0, sp, #28
 800044e:	f88d 301c 	strb.w	r3, [sp, #28]
 8000452:	61a2      	str	r2, [r4, #24]
 8000454:	230a      	movs	r3, #10
 8000456:	f88d 601f 	strb.w	r6, [sp, #31]
 800045a:	f88d 301d 	strb.w	r3, [sp, #29]
 800045e:	f000 fdb7 	bl	8000fd0 <NVIC_Init>
 8000462:	4628      	mov	r0, r5
 8000464:	4631      	mov	r1, r6
 8000466:	f007 f8f5 	bl	8007654 <USART_Cmd>
 800046a:	b008      	add	sp, #32
 800046c:	bd70      	pop	{r4, r5, r6, pc}
 800046e:	bf00      	nop

08000470 <Q_UART_sendZTString>:
 8000470:	b510      	push	{r4, lr}
 8000472:	4604      	mov	r4, r0
 8000474:	f44f 4088 	mov.w	r0, #17408	; 0x4400
 8000478:	2140      	movs	r1, #64	; 0x40
 800047a:	f2c4 0000 	movt	r0, #16384	; 0x4000
 800047e:	f007 f9df 	bl	8007840 <USART_GetFlagStatus>
 8000482:	2801      	cmp	r0, #1
 8000484:	d1f6      	bne.n	8000474 <Q_UART_sendZTString+0x4>
 8000486:	7823      	ldrb	r3, [r4, #0]
 8000488:	b1a3      	cbz	r3, 80004b4 <Q_UART_sendZTString+0x44>
 800048a:	3c01      	subs	r4, #1
 800048c:	f44f 4088 	mov.w	r0, #17408	; 0x4400
 8000490:	2180      	movs	r1, #128	; 0x80
 8000492:	f2c4 0000 	movt	r0, #16384	; 0x4000
 8000496:	f007 f9d3 	bl	8007840 <USART_GetFlagStatus>
 800049a:	2801      	cmp	r0, #1
 800049c:	d1f6      	bne.n	800048c <Q_UART_sendZTString+0x1c>
 800049e:	f814 1f01 	ldrb.w	r1, [r4, #1]!
 80004a2:	f44f 4088 	mov.w	r0, #17408	; 0x4400
 80004a6:	f2c4 0000 	movt	r0, #16384	; 0x4000
 80004aa:	f007 f907 	bl	80076bc <USART_SendData>
 80004ae:	7863      	ldrb	r3, [r4, #1]
 80004b0:	2b00      	cmp	r3, #0
 80004b2:	d1eb      	bne.n	800048c <Q_UART_sendZTString+0x1c>
 80004b4:	f44f 4088 	mov.w	r0, #17408	; 0x4400
 80004b8:	2140      	movs	r1, #64	; 0x40
 80004ba:	f2c4 0000 	movt	r0, #16384	; 0x4000
 80004be:	f007 f9bf 	bl	8007840 <USART_GetFlagStatus>
 80004c2:	2801      	cmp	r0, #1
 80004c4:	d1f6      	bne.n	80004b4 <Q_UART_sendZTString+0x44>
 80004c6:	bd10      	pop	{r4, pc}

080004c8 <Q_UART_DMAsendZTString>:
 80004c8:	e92d 41f0 	stmdb	sp!, {r4, r5, r6, r7, r8, lr}
 80004cc:	4680      	mov	r8, r0
 80004ce:	f007 fd5d 	bl	8007f8c <strlen>
 80004d2:	1e05      	subs	r5, r0, #0
 80004d4:	dd1e      	ble.n	8000514 <Q_UART_DMAsendZTString+0x4c>
 80004d6:	f44f 4361 	mov.w	r3, #57600	; 0xe100
 80004da:	f2ce 0300 	movt	r3, #57344	; 0xe000
 80004de:	f44f 3200 	mov.w	r2, #131072	; 0x20000
 80004e2:	1c6f      	adds	r7, r5, #1
 80004e4:	f8c3 2080 	str.w	r2, [r3, #128]	; 0x80
 80004e8:	4638      	mov	r0, r7
 80004ea:	f007 fa35 	bl	8007958 <malloc>
 80004ee:	4c23      	ldr	r4, [pc, #140]	; (800057c <Q_UART_DMAsendZTString+0xb4>)
 80004f0:	4641      	mov	r1, r8
 80004f2:	463a      	mov	r2, r7
 80004f4:	4606      	mov	r6, r0
 80004f6:	f007 fcf3 	bl	8007ee0 <memcpy>
 80004fa:	6823      	ldr	r3, [r4, #0]
 80004fc:	b163      	cbz	r3, 8000518 <Q_UART_DMAsendZTString+0x50>
 80004fe:	6820      	ldr	r0, [r4, #0]
 8000500:	4631      	mov	r1, r6
 8000502:	f7ff fe4b 	bl	800019c <list_append>
 8000506:	f44f 4361 	mov.w	r3, #57600	; 0xe100
 800050a:	f2ce 0300 	movt	r3, #57344	; 0xe000
 800050e:	f44f 3200 	mov.w	r2, #131072	; 0x20000
 8000512:	601a      	str	r2, [r3, #0]
 8000514:	e8bd 81f0 	ldmia.w	sp!, {r4, r5, r6, r7, r8, pc}
 8000518:	4630      	mov	r0, r6
 800051a:	f7ff fe35 	bl	8000188 <list_create>
 800051e:	6020      	str	r0, [r4, #0]
 8000520:	6822      	ldr	r2, [r4, #0]
 8000522:	4b17      	ldr	r3, [pc, #92]	; (8000580 <Q_UART_DMAsendZTString+0xb8>)
 8000524:	6812      	ldr	r2, [r2, #0]
 8000526:	611d      	str	r5, [r3, #16]
 8000528:	f246 00a0 	movw	r0, #24736	; 0x60a0
 800052c:	4619      	mov	r1, r3
 800052e:	609a      	str	r2, [r3, #8]
 8000530:	f2c4 0002 	movt	r0, #16386	; 0x4002
 8000534:	f002 fcf6 	bl	8002f24 <DMA_Init>
 8000538:	f246 00a0 	movw	r0, #24736	; 0x60a0
 800053c:	2201      	movs	r2, #1
 800053e:	2110      	movs	r1, #16
 8000540:	f2c4 0002 	movt	r0, #16386	; 0x4002
 8000544:	f002 fdd0 	bl	80030e8 <DMA_ITConfig>
 8000548:	f246 00a0 	movw	r0, #24736	; 0x60a0
 800054c:	f44f 4100 	mov.w	r1, #32768	; 0x8000
 8000550:	f2c4 0002 	movt	r0, #16386	; 0x4002
 8000554:	f2c2 0120 	movt	r1, #8224	; 0x2020
 8000558:	f002 fe0e 	bl	8003178 <DMA_ClearITPendingBit>
 800055c:	f246 00a0 	movw	r0, #24736	; 0x60a0
 8000560:	2101      	movs	r1, #1
 8000562:	f2c4 0002 	movt	r0, #16386	; 0x4002
 8000566:	f002 fd39 	bl	8002fdc <DMA_Cmd>
 800056a:	f44f 4088 	mov.w	r0, #17408	; 0x4400
 800056e:	f2c4 0000 	movt	r0, #16384	; 0x4000
 8000572:	2180      	movs	r1, #128	; 0x80
 8000574:	2201      	movs	r2, #1
 8000576:	f007 f93d 	bl	80077f4 <USART_DMACmd>
 800057a:	e7c4      	b.n	8000506 <Q_UART_DMAsendZTString+0x3e>
 800057c:	200008f0 	.word	0x200008f0
 8000580:	200008f4 	.word	0x200008f4

08000584 <Q_UART_DMA_TXComplete>:
 8000584:	b530      	push	{r4, r5, lr}
 8000586:	b083      	sub	sp, #12
 8000588:	f44f 4088 	mov.w	r0, #17408	; 0x4400
 800058c:	f2c4 0000 	movt	r0, #16384	; 0x4000
 8000590:	2101      	movs	r1, #1
 8000592:	f007 f955 	bl	8007840 <USART_GetFlagStatus>
 8000596:	2800      	cmp	r0, #0
 8000598:	d1f6      	bne.n	8000588 <Q_UART_DMA_TXComplete+0x4>
 800059a:	f44f 4088 	mov.w	r0, #17408	; 0x4400
 800059e:	2140      	movs	r1, #64	; 0x40
 80005a0:	f2c4 0000 	movt	r0, #16384	; 0x4000
 80005a4:	f007 f94c 	bl	8007840 <USART_GetFlagStatus>
 80005a8:	2801      	cmp	r0, #1
 80005aa:	d1f6      	bne.n	800059a <Q_UART_DMA_TXComplete+0x16>
 80005ac:	f44f 4088 	mov.w	r0, #17408	; 0x4400
 80005b0:	2200      	movs	r2, #0
 80005b2:	f2c4 0000 	movt	r0, #16384	; 0x4000
 80005b6:	2180      	movs	r1, #128	; 0x80
 80005b8:	f007 f91c 	bl	80077f4 <USART_DMACmd>
 80005bc:	f246 00a0 	movw	r0, #24736	; 0x60a0
 80005c0:	f2c4 0002 	movt	r0, #16386	; 0x4002
 80005c4:	2100      	movs	r1, #0
 80005c6:	f002 fd09 	bl	8002fdc <DMA_Cmd>
 80005ca:	f246 00a0 	movw	r0, #24736	; 0x60a0
 80005ce:	2200      	movs	r2, #0
 80005d0:	f2c4 0002 	movt	r0, #16386	; 0x4002
 80005d4:	2110      	movs	r1, #16
 80005d6:	f002 fd87 	bl	80030e8 <DMA_ITConfig>
 80005da:	f246 00a0 	movw	r0, #24736	; 0x60a0
 80005de:	f44f 4100 	mov.w	r1, #32768	; 0x8000
 80005e2:	f2c2 0120 	movt	r1, #8224	; 0x2020
 80005e6:	f2c4 0002 	movt	r0, #16386	; 0x4002
 80005ea:	f002 fdc5 	bl	8003178 <DMA_ClearITPendingBit>
 80005ee:	4d2b      	ldr	r5, [pc, #172]	; (800069c <Q_UART_DMA_TXComplete+0x118>)
 80005f0:	f246 00a0 	movw	r0, #24736	; 0x60a0
 80005f4:	f2c4 0002 	movt	r0, #16386	; 0x4002
 80005f8:	f002 fba0 	bl	8002d3c <DMA_DeInit>
 80005fc:	682b      	ldr	r3, [r5, #0]
 80005fe:	685b      	ldr	r3, [r3, #4]
 8000600:	9301      	str	r3, [sp, #4]
 8000602:	682b      	ldr	r3, [r5, #0]
 8000604:	6818      	ldr	r0, [r3, #0]
 8000606:	f007 f9af 	bl	8007968 <free>
 800060a:	6828      	ldr	r0, [r5, #0]
 800060c:	f007 f9ac 	bl	8007968 <free>
 8000610:	9b01      	ldr	r3, [sp, #4]
 8000612:	602b      	str	r3, [r5, #0]
 8000614:	f44f 4088 	mov.w	r0, #17408	; 0x4400
 8000618:	2140      	movs	r1, #64	; 0x40
 800061a:	f2c4 0000 	movt	r0, #16384	; 0x4000
 800061e:	f007 f90f 	bl	8007840 <USART_GetFlagStatus>
 8000622:	2801      	cmp	r0, #1
 8000624:	4604      	mov	r4, r0
 8000626:	d1f5      	bne.n	8000614 <Q_UART_DMA_TXComplete+0x90>
 8000628:	682b      	ldr	r3, [r5, #0]
 800062a:	4d1c      	ldr	r5, [pc, #112]	; (800069c <Q_UART_DMA_TXComplete+0x118>)
 800062c:	2b00      	cmp	r3, #0
 800062e:	d033      	beq.n	8000698 <Q_UART_DMA_TXComplete+0x114>
 8000630:	682b      	ldr	r3, [r5, #0]
 8000632:	6818      	ldr	r0, [r3, #0]
 8000634:	f007 fcaa 	bl	8007f8c <strlen>
 8000638:	682a      	ldr	r2, [r5, #0]
 800063a:	4b19      	ldr	r3, [pc, #100]	; (80006a0 <Q_UART_DMA_TXComplete+0x11c>)
 800063c:	6812      	ldr	r2, [r2, #0]
 800063e:	6118      	str	r0, [r3, #16]
 8000640:	f246 00a0 	movw	r0, #24736	; 0x60a0
 8000644:	4619      	mov	r1, r3
 8000646:	609a      	str	r2, [r3, #8]
 8000648:	f2c4 0002 	movt	r0, #16386	; 0x4002
 800064c:	f002 fc6a 	bl	8002f24 <DMA_Init>
 8000650:	f246 00a0 	movw	r0, #24736	; 0x60a0
 8000654:	4622      	mov	r2, r4
 8000656:	2110      	movs	r1, #16
 8000658:	f2c4 0002 	movt	r0, #16386	; 0x4002
 800065c:	f002 fd44 	bl	80030e8 <DMA_ITConfig>
 8000660:	f246 00a0 	movw	r0, #24736	; 0x60a0
 8000664:	f44f 4100 	mov.w	r1, #32768	; 0x8000
 8000668:	f2c4 0002 	movt	r0, #16386	; 0x4002
 800066c:	f2c2 0120 	movt	r1, #8224	; 0x2020
 8000670:	f002 fd82 	bl	8003178 <DMA_ClearITPendingBit>
 8000674:	f246 00a0 	movw	r0, #24736	; 0x60a0
 8000678:	4621      	mov	r1, r4
 800067a:	f2c4 0002 	movt	r0, #16386	; 0x4002
 800067e:	f002 fcad 	bl	8002fdc <DMA_Cmd>
 8000682:	f44f 4088 	mov.w	r0, #17408	; 0x4400
 8000686:	f2c4 0000 	movt	r0, #16384	; 0x4000
 800068a:	2180      	movs	r1, #128	; 0x80
 800068c:	4622      	mov	r2, r4
 800068e:	b003      	add	sp, #12
 8000690:	e8bd 4030 	ldmia.w	sp!, {r4, r5, lr}
 8000694:	f007 b8ae 	b.w	80077f4 <USART_DMACmd>
 8000698:	b003      	add	sp, #12
 800069a:	bd30      	pop	{r4, r5, pc}
 800069c:	200008f0 	.word	0x200008f0
 80006a0:	200008f4 	.word	0x200008f4

080006a4 <GPIO_Master_init>:
 80006a4:	b500      	push	{lr}
 80006a6:	2001      	movs	r0, #1
 80006a8:	b083      	sub	sp, #12
 80006aa:	4601      	mov	r1, r0
 80006ac:	f004 fb5c 	bl	8004d68 <RCC_AHB1PeriphClockCmd>
 80006b0:	f44f 4200 	mov.w	r2, #32768	; 0x8000
 80006b4:	2000      	movs	r0, #0
 80006b6:	9200      	str	r2, [sp, #0]
 80006b8:	2201      	movs	r2, #1
 80006ba:	4603      	mov	r3, r0
 80006bc:	f88d 2004 	strb.w	r2, [sp, #4]
 80006c0:	f2c4 0002 	movt	r0, #16386	; 0x4002
 80006c4:	2203      	movs	r2, #3
 80006c6:	4669      	mov	r1, sp
 80006c8:	f88d 2005 	strb.w	r2, [sp, #5]
 80006cc:	f88d 3006 	strb.w	r3, [sp, #6]
 80006d0:	f88d 3007 	strb.w	r3, [sp, #7]
 80006d4:	f003 fb84 	bl	8003de0 <GPIO_Init>
 80006d8:	b003      	add	sp, #12
 80006da:	bd00      	pop	{pc}

080006dc <GPIO_Master_SignalizeStart>:
 80006dc:	2300      	movs	r3, #0
 80006de:	f2c4 0302 	movt	r3, #16386	; 0x4002
 80006e2:	8b1a      	ldrh	r2, [r3, #24]
 80006e4:	ea6f 4242 	mvn.w	r2, r2, lsl #17
 80006e8:	ea6f 4252 	mvn.w	r2, r2, lsr #17
 80006ec:	b292      	uxth	r2, r2
 80006ee:	831a      	strh	r2, [r3, #24]
 80006f0:	4770      	bx	lr
 80006f2:	bf00      	nop

080006f4 <GPIO_Master_SignalizeReset>:
 80006f4:	2300      	movs	r3, #0
 80006f6:	f2c4 0302 	movt	r3, #16386	; 0x4002
 80006fa:	8b5a      	ldrh	r2, [r3, #26]
 80006fc:	ea6f 4242 	mvn.w	r2, r2, lsl #17
 8000700:	ea6f 4252 	mvn.w	r2, r2, lsr #17
 8000704:	b292      	uxth	r2, r2
 8000706:	835a      	strh	r2, [r3, #26]
 8000708:	4770      	bx	lr
 800070a:	bf00      	nop

0800070c <itoa.part.0>:
 800070c:	e92d 43f0 	stmdb	sp!, {r4, r5, r6, r7, r8, r9, lr}
 8000710:	ea6f 0800 	mvn.w	r8, r0
 8000714:	b085      	sub	sp, #20
 8000716:	4603      	mov	r3, r0
 8000718:	ea4f 78d8 	mov.w	r8, r8, lsr #31
 800071c:	2800      	cmp	r0, #0
 800071e:	d06c      	beq.n	80007fa <itoa.part.0+0xee>
 8000720:	f246 6e67 	movw	lr, #26215	; 0x6667
 8000724:	4f36      	ldr	r7, [pc, #216]	; (8000800 <itoa.part.0+0xf4>)
 8000726:	4c37      	ldr	r4, [pc, #220]	; (8000804 <itoa.part.0+0xf8>)
 8000728:	f1b8 0f00 	cmp.w	r8, #0
 800072c:	d125      	bne.n	800077a <itoa.part.0+0x6e>
 800072e:	4646      	mov	r6, r8
 8000730:	f10d 0c04 	add.w	ip, sp, #4
 8000734:	f2c6 6e66 	movt	lr, #26214	; 0x6666
 8000738:	e897 0007 	ldmia.w	r7, {r0, r1, r2}
 800073c:	4665      	mov	r5, ip
 800073e:	c503      	stmia	r5!, {r0, r1}
 8000740:	fb8e 1003 	smull	r1, r0, lr, r3
 8000744:	17d9      	asrs	r1, r3, #31
 8000746:	ebc1 01a0 	rsb	r1, r1, r0, asr #2
 800074a:	eb01 0181 	add.w	r1, r1, r1, lsl #2
 800074e:	f825 2b02 	strh.w	r2, [r5], #2
 8000752:	eba3 0141 	sub.w	r1, r3, r1, lsl #1
 8000756:	f10d 0810 	add.w	r8, sp, #16
 800075a:	0c12      	lsrs	r2, r2, #16
 800075c:	ebc1 0008 	rsb	r0, r1, r8
 8000760:	702a      	strb	r2, [r5, #0]
 8000762:	1a5b      	subs	r3, r3, r1
 8000764:	f810 1c0c 	ldrb.w	r1, [r0, #-12]
 8000768:	fb8e 9203 	smull	r9, r2, lr, r3
 800076c:	17db      	asrs	r3, r3, #31
 800076e:	5531      	strb	r1, [r6, r4]
 8000770:	3601      	adds	r6, #1
 8000772:	ebd3 03a2 	rsbs	r3, r3, r2, asr #2
 8000776:	d1df      	bne.n	8000738 <itoa.part.0+0x2c>
 8000778:	e027      	b.n	80007ca <itoa.part.0+0xbe>
 800077a:	2600      	movs	r6, #0
 800077c:	f10d 0c04 	add.w	ip, sp, #4
 8000780:	f2c6 6e66 	movt	lr, #26214	; 0x6666
 8000784:	e897 0007 	ldmia.w	r7, {r0, r1, r2}
 8000788:	4665      	mov	r5, ip
 800078a:	c503      	stmia	r5!, {r0, r1}
 800078c:	fb8e 1003 	smull	r1, r0, lr, r3
 8000790:	17d9      	asrs	r1, r3, #31
 8000792:	ebc1 01a0 	rsb	r1, r1, r0, asr #2
 8000796:	eb01 0181 	add.w	r1, r1, r1, lsl #2
 800079a:	f825 2b02 	strh.w	r2, [r5], #2
 800079e:	eba3 0141 	sub.w	r1, r3, r1, lsl #1
 80007a2:	f10d 0910 	add.w	r9, sp, #16
 80007a6:	0c12      	lsrs	r2, r2, #16
 80007a8:	eb09 0001 	add.w	r0, r9, r1
 80007ac:	702a      	strb	r2, [r5, #0]
 80007ae:	1a5b      	subs	r3, r3, r1
 80007b0:	f810 1c0c 	ldrb.w	r1, [r0, #-12]
 80007b4:	fb8e 0203 	smull	r0, r2, lr, r3
 80007b8:	17db      	asrs	r3, r3, #31
 80007ba:	5531      	strb	r1, [r6, r4]
 80007bc:	3601      	adds	r6, #1
 80007be:	ebd3 03a2 	rsbs	r3, r3, r2, asr #2
 80007c2:	d1df      	bne.n	8000784 <itoa.part.0+0x78>
 80007c4:	f1b8 0f00 	cmp.w	r8, #0
 80007c8:	d102      	bne.n	80007d0 <itoa.part.0+0xc4>
 80007ca:	232d      	movs	r3, #45	; 0x2d
 80007cc:	55a3      	strb	r3, [r4, r6]
 80007ce:	3601      	adds	r6, #1
 80007d0:	2300      	movs	r3, #0
 80007d2:	480c      	ldr	r0, [pc, #48]	; (8000804 <itoa.part.0+0xf8>)
 80007d4:	55a3      	strb	r3, [r4, r6]
 80007d6:	f007 fbd9 	bl	8007f8c <strlen>
 80007da:	1e43      	subs	r3, r0, #1
 80007dc:	18e3      	adds	r3, r4, r3
 80007de:	42a3      	cmp	r3, r4
 80007e0:	d908      	bls.n	80007f4 <itoa.part.0+0xe8>
 80007e2:	4a08      	ldr	r2, [pc, #32]	; (8000804 <itoa.part.0+0xf8>)
 80007e4:	7819      	ldrb	r1, [r3, #0]
 80007e6:	7810      	ldrb	r0, [r2, #0]
 80007e8:	f803 0901 	strb.w	r0, [r3], #-1
 80007ec:	f802 1b01 	strb.w	r1, [r2], #1
 80007f0:	4293      	cmp	r3, r2
 80007f2:	d8f7      	bhi.n	80007e4 <itoa.part.0+0xd8>
 80007f4:	b005      	add	sp, #20
 80007f6:	e8bd 83f0 	ldmia.w	sp!, {r4, r5, r6, r7, r8, r9, pc}
 80007fa:	4c02      	ldr	r4, [pc, #8]	; (8000804 <itoa.part.0+0xf8>)
 80007fc:	4606      	mov	r6, r0
 80007fe:	e7e1      	b.n	80007c4 <itoa.part.0+0xb8>
 8000800:	080083e4 	.word	0x080083e4
 8000804:	20000880 	.word	0x20000880

08000808 <itoa>:
 8000808:	b508      	push	{r3, lr}
 800080a:	b118      	cbz	r0, 8000814 <itoa+0xc>
 800080c:	f7ff ff7e 	bl	800070c <itoa.part.0>
 8000810:	4803      	ldr	r0, [pc, #12]	; (8000820 <itoa+0x18>)
 8000812:	bd08      	pop	{r3, pc}
 8000814:	4a02      	ldr	r2, [pc, #8]	; (8000820 <itoa+0x18>)
 8000816:	2130      	movs	r1, #48	; 0x30
 8000818:	7050      	strb	r0, [r2, #1]
 800081a:	7011      	strb	r1, [r2, #0]
 800081c:	4800      	ldr	r0, [pc, #0]	; (8000820 <itoa+0x18>)
 800081e:	bd08      	pop	{r3, pc}
 8000820:	20000880 	.word	0x20000880

08000824 <get_char>:
 8000824:	b410      	push	{r4}
 8000826:	f248 33e4 	movw	r3, #33764	; 0x83e4
 800082a:	f6c0 0300 	movt	r3, #2048	; 0x800
 800082e:	4604      	mov	r4, r0
 8000830:	e893 0007 	ldmia.w	r3, {r0, r1, r2}
 8000834:	b085      	sub	sp, #20
 8000836:	ab01      	add	r3, sp, #4
 8000838:	c303      	stmia	r3!, {r0, r1}
 800083a:	a904      	add	r1, sp, #16
 800083c:	f823 2b02 	strh.w	r2, [r3], #2
 8000840:	190c      	adds	r4, r1, r4
 8000842:	0c12      	lsrs	r2, r2, #16
 8000844:	701a      	strb	r2, [r3, #0]
 8000846:	f814 0c0c 	ldrb.w	r0, [r4, #-12]
 800084a:	b005      	add	sp, #20
 800084c:	bc10      	pop	{r4}
 800084e:	4770      	bx	lr

08000850 <rev>:
 8000850:	b510      	push	{r4, lr}
 8000852:	4604      	mov	r4, r0
 8000854:	f007 fb9a 	bl	8007f8c <strlen>
 8000858:	1e43      	subs	r3, r0, #1
 800085a:	18e3      	adds	r3, r4, r3
 800085c:	429c      	cmp	r4, r3
 800085e:	d207      	bcs.n	8000870 <rev+0x20>
 8000860:	781a      	ldrb	r2, [r3, #0]
 8000862:	7821      	ldrb	r1, [r4, #0]
 8000864:	f803 1901 	strb.w	r1, [r3], #-1
 8000868:	f804 2b01 	strb.w	r2, [r4], #1
 800086c:	42a3      	cmp	r3, r4
 800086e:	d8f7      	bhi.n	8000860 <rev+0x10>
 8000870:	bd10      	pop	{r4, pc}
 8000872:	bf00      	nop

08000874 <toHex>:
 8000874:	2809      	cmp	r0, #9
 8000876:	d902      	bls.n	800087e <toHex+0xa>
 8000878:	3057      	adds	r0, #87	; 0x57
 800087a:	b2c0      	uxtb	r0, r0
 800087c:	4770      	bx	lr
 800087e:	3030      	adds	r0, #48	; 0x30
 8000880:	b2c0      	uxtb	r0, r0
 8000882:	4770      	bx	lr

08000884 <Delay2>:
 8000884:	4770      	bx	lr
 8000886:	bf00      	nop

08000888 <printReport>:
 8000888:	e92d 4ff0 	stmdb	sp!, {r4, r5, r6, r7, r8, r9, sl, fp, lr}
 800088c:	2700      	movs	r7, #0
 800088e:	f8df 8144 	ldr.w	r8, [pc, #324]	; 80009d4 <printReport+0x14c>
 8000892:	f8df a130 	ldr.w	sl, [pc, #304]	; 80009c4 <printReport+0x13c>
 8000896:	b083      	sub	sp, #12
 8000898:	2630      	movs	r6, #48	; 0x30
 800089a:	46bb      	mov	fp, r7
 800089c:	f640 0280 	movw	r2, #2176	; 0x880
 80008a0:	f2c2 0200 	movt	r2, #8192	; 0x2000
 80008a4:	6a90      	ldr	r0, [r2, #40]	; 0x28
 80008a6:	2800      	cmp	r0, #0
 80008a8:	d078      	beq.n	800099c <printReport+0x114>
 80008aa:	f7ff ff2f 	bl	800070c <itoa.part.0>
 80008ae:	4845      	ldr	r0, [pc, #276]	; (80009c4 <printReport+0x13c>)
 80008b0:	f7ff fe0a 	bl	80004c8 <Q_UART_DMAsendZTString>
 80008b4:	ea4f 0947 	mov.w	r9, r7, lsl #1
 80008b8:	4843      	ldr	r0, [pc, #268]	; (80009c8 <printReport+0x140>)
 80008ba:	f7ff fe05 	bl	80004c8 <Q_UART_DMAsendZTString>
 80008be:	eb09 0307 	add.w	r3, r9, r7
 80008c2:	f858 0033 	ldr.w	r0, [r8, r3, lsl #3]
 80008c6:	2800      	cmp	r0, #0
 80008c8:	d077      	beq.n	80009ba <printReport+0x132>
 80008ca:	f7ff ff1f 	bl	800070c <itoa.part.0>
 80008ce:	483d      	ldr	r0, [pc, #244]	; (80009c4 <printReport+0x13c>)
 80008d0:	f7ff fdfa 	bl	80004c8 <Q_UART_DMAsendZTString>
 80008d4:	483c      	ldr	r0, [pc, #240]	; (80009c8 <printReport+0x140>)
 80008d6:	f7ff fdf7 	bl	80004c8 <Q_UART_DMAsendZTString>
 80008da:	eb09 0307 	add.w	r3, r9, r7
 80008de:	eb08 03c3 	add.w	r3, r8, r3, lsl #3
 80008e2:	6858      	ldr	r0, [r3, #4]
 80008e4:	2800      	cmp	r0, #0
 80008e6:	d063      	beq.n	80009b0 <printReport+0x128>
 80008e8:	f7ff ff10 	bl	800070c <itoa.part.0>
 80008ec:	4835      	ldr	r0, [pc, #212]	; (80009c4 <printReport+0x13c>)
 80008ee:	f7ff fdeb 	bl	80004c8 <Q_UART_DMAsendZTString>
 80008f2:	4835      	ldr	r0, [pc, #212]	; (80009c8 <printReport+0x140>)
 80008f4:	f7ff fde8 	bl	80004c8 <Q_UART_DMAsendZTString>
 80008f8:	eb09 0307 	add.w	r3, r9, r7
 80008fc:	eb08 03c3 	add.w	r3, r8, r3, lsl #3
 8000900:	6898      	ldr	r0, [r3, #8]
 8000902:	2800      	cmp	r0, #0
 8000904:	d04f      	beq.n	80009a6 <printReport+0x11e>
 8000906:	f7ff ff01 	bl	800070c <itoa.part.0>
 800090a:	482e      	ldr	r0, [pc, #184]	; (80009c4 <printReport+0x13c>)
 800090c:	eb09 0507 	add.w	r5, r9, r7
 8000910:	f7ff fdda 	bl	80004c8 <Q_UART_DMAsendZTString>
 8000914:	eb08 05c5 	add.w	r5, r8, r5, lsl #3
 8000918:	482b      	ldr	r0, [pc, #172]	; (80009c8 <printReport+0x140>)
 800091a:	f7ff fdd5 	bl	80004c8 <Q_UART_DMAsendZTString>
 800091e:	482b      	ldr	r0, [pc, #172]	; (80009cc <printReport+0x144>)
 8000920:	f7ff fdd2 	bl	80004c8 <Q_UART_DMAsendZTString>
 8000924:	7b2b      	ldrb	r3, [r5, #12]
 8000926:	b303      	cbz	r3, 800096a <printReport+0xe2>
 8000928:	2400      	movs	r4, #0
 800092a:	e014      	b.n	8000956 <printReport+0xce>
 800092c:	3330      	adds	r3, #48	; 0x30
 800092e:	192a      	adds	r2, r5, r4
 8000930:	f88d 3004 	strb.w	r3, [sp, #4]
 8000934:	7b53      	ldrb	r3, [r2, #13]
 8000936:	f003 030f 	and.w	r3, r3, #15
 800093a:	2b09      	cmp	r3, #9
 800093c:	d813      	bhi.n	8000966 <printReport+0xde>
 800093e:	3330      	adds	r3, #48	; 0x30
 8000940:	a801      	add	r0, sp, #4
 8000942:	f88d 3005 	strb.w	r3, [sp, #5]
 8000946:	f88d 6006 	strb.w	r6, [sp, #6]
 800094a:	f7ff fdbd 	bl	80004c8 <Q_UART_DMAsendZTString>
 800094e:	7b2b      	ldrb	r3, [r5, #12]
 8000950:	3401      	adds	r4, #1
 8000952:	42a3      	cmp	r3, r4
 8000954:	dd09      	ble.n	800096a <printReport+0xe2>
 8000956:	192b      	adds	r3, r5, r4
 8000958:	3308      	adds	r3, #8
 800095a:	795b      	ldrb	r3, [r3, #5]
 800095c:	091b      	lsrs	r3, r3, #4
 800095e:	2b09      	cmp	r3, #9
 8000960:	d9e4      	bls.n	800092c <printReport+0xa4>
 8000962:	3357      	adds	r3, #87	; 0x57
 8000964:	e7e3      	b.n	800092e <printReport+0xa6>
 8000966:	3357      	adds	r3, #87	; 0x57
 8000968:	e7ea      	b.n	8000940 <printReport+0xb8>
 800096a:	44b9      	add	r9, r7
 800096c:	4818      	ldr	r0, [pc, #96]	; (80009d0 <printReport+0x148>)
 800096e:	f7ff fdab 	bl	80004c8 <Q_UART_DMAsendZTString>
 8000972:	3701      	adds	r7, #1
 8000974:	eb08 03c9 	add.w	r3, r8, r9, lsl #3
 8000978:	2f04      	cmp	r7, #4
 800097a:	f848 b039 	str.w	fp, [r8, r9, lsl #3]
 800097e:	f8c3 b004 	str.w	fp, [r3, #4]
 8000982:	f8c3 b008 	str.w	fp, [r3, #8]
 8000986:	d189      	bne.n	800089c <printReport+0x14>
 8000988:	f640 0280 	movw	r2, #2176	; 0x880
 800098c:	f2c2 0200 	movt	r2, #8192	; 0x2000
 8000990:	6a93      	ldr	r3, [r2, #40]	; 0x28
 8000992:	3301      	adds	r3, #1
 8000994:	6293      	str	r3, [r2, #40]	; 0x28
 8000996:	b003      	add	sp, #12
 8000998:	e8bd 8ff0 	ldmia.w	sp!, {r4, r5, r6, r7, r8, r9, sl, fp, pc}
 800099c:	f88a 6000 	strb.w	r6, [sl]
 80009a0:	f88a 0001 	strb.w	r0, [sl, #1]
 80009a4:	e783      	b.n	80008ae <printReport+0x26>
 80009a6:	f88a 6000 	strb.w	r6, [sl]
 80009aa:	f88a 0001 	strb.w	r0, [sl, #1]
 80009ae:	e7ac      	b.n	800090a <printReport+0x82>
 80009b0:	f88a 6000 	strb.w	r6, [sl]
 80009b4:	f88a 0001 	strb.w	r0, [sl, #1]
 80009b8:	e798      	b.n	80008ec <printReport+0x64>
 80009ba:	f88a 6000 	strb.w	r6, [sl]
 80009be:	f88a 0001 	strb.w	r0, [sl, #1]
 80009c2:	e784      	b.n	80008ce <printReport+0x46>
 80009c4:	20000880 	.word	0x20000880
 80009c8:	080083f0 	.word	0x080083f0
 80009cc:	080083f4 	.word	0x080083f4
 80009d0:	08008420 	.word	0x08008420
 80009d4:	20000930 	.word	0x20000930

080009d8 <master_main>:
 80009d8:	b570      	push	{r4, r5, r6, lr}
 80009da:	2001      	movs	r0, #1
 80009dc:	b088      	sub	sp, #32
 80009de:	f04f 4580 	mov.w	r5, #1073741824	; 0x40000000
 80009e2:	f000 f863 	bl	8000aac <Timer_init>
 80009e6:	f7ff fcd5 	bl	8000394 <Q_UART_init>
 80009ea:	4820      	ldr	r0, [pc, #128]	; (8000a6c <master_main+0x94>)
 80009ec:	4e20      	ldr	r6, [pc, #128]	; (8000a70 <master_main+0x98>)
 80009ee:	f7ff fd6b 	bl	80004c8 <Q_UART_DMAsendZTString>
 80009f2:	882b      	ldrh	r3, [r5, #0]
 80009f4:	b29b      	uxth	r3, r3
 80009f6:	f043 0301 	orr.w	r3, r3, #1
 80009fa:	802b      	strh	r3, [r5, #0]
 80009fc:	7834      	ldrb	r4, [r6, #0]
 80009fe:	b15c      	cbz	r4, 8000a18 <master_main+0x40>
 8000a00:	e012      	b.n	8000a28 <master_main+0x50>
 8000a02:	f7ff fc13 	bl	800022c <STM_EVAL_LEDOn>
 8000a06:	882b      	ldrh	r3, [r5, #0]
 8000a08:	b29b      	uxth	r3, r3
 8000a0a:	f043 0301 	orr.w	r3, r3, #1
 8000a0e:	802b      	strh	r3, [r5, #0]
 8000a10:	7833      	ldrb	r3, [r6, #0]
 8000a12:	f084 0401 	eor.w	r4, r4, #1
 8000a16:	b93b      	cbnz	r3, 8000a28 <master_main+0x50>
 8000a18:	f000 f88c 	bl	8000b34 <Timer_stopTimer>
 8000a1c:	2002      	movs	r0, #2
 8000a1e:	2c00      	cmp	r4, #0
 8000a20:	d0ef      	beq.n	8000a02 <master_main+0x2a>
 8000a22:	f7ff fc13 	bl	800024c <STM_EVAL_LEDOff>
 8000a26:	e7ee      	b.n	8000a06 <master_main+0x2e>
 8000a28:	2404      	movs	r4, #4
 8000a2a:	2300      	movs	r3, #0
 8000a2c:	4911      	ldr	r1, [pc, #68]	; (8000a74 <master_main+0x9c>)
 8000a2e:	f88d 400e 	strb.w	r4, [sp, #14]
 8000a32:	2208      	movs	r2, #8
 8000a34:	a806      	add	r0, sp, #24
 8000a36:	2401      	movs	r4, #1
 8000a38:	f88d 300d 	strb.w	r3, [sp, #13]
 8000a3c:	f88d 300c 	strb.w	r3, [sp, #12]
 8000a40:	9401      	str	r4, [sp, #4]
 8000a42:	f007 fa4d 	bl	8007ee0 <memcpy>
 8000a46:	2208      	movs	r2, #8
 8000a48:	a906      	add	r1, sp, #24
 8000a4a:	f10d 000f 	add.w	r0, sp, #15
 8000a4e:	f007 fa47 	bl	8007ee0 <memcpy>
 8000a52:	f44f 40c8 	mov.w	r0, #25600	; 0x6400
 8000a56:	a901      	add	r1, sp, #4
 8000a58:	f2c4 0000 	movt	r0, #16384	; 0x4000
 8000a5c:	f000 fe98 	bl	8001790 <CAN_Transmit>
 8000a60:	4805      	ldr	r0, [pc, #20]	; (8000a78 <master_main+0xa0>)
 8000a62:	f7ff fd31 	bl	80004c8 <Q_UART_DMAsendZTString>
 8000a66:	f7ff ff0f 	bl	8000888 <printReport>
 8000a6a:	e7fe      	b.n	8000a6a <master_main+0x92>
 8000a6c:	080083f8 	.word	0x080083f8
 8000a70:	200008ad 	.word	0x200008ad
 8000a74:	080083d8 	.word	0x080083d8
 8000a78:	0800840c 	.word	0x0800840c

08000a7c <Init_RxMes>:
 8000a7c:	2300      	movs	r3, #0
 8000a7e:	6003      	str	r3, [r0, #0]
 8000a80:	6043      	str	r3, [r0, #4]
 8000a82:	7203      	strb	r3, [r0, #8]
 8000a84:	7283      	strb	r3, [r0, #10]
 8000a86:	74c3      	strb	r3, [r0, #19]
 8000a88:	72c3      	strb	r3, [r0, #11]
 8000a8a:	60c3      	str	r3, [r0, #12]
 8000a8c:	7403      	strb	r3, [r0, #16]
 8000a8e:	7443      	strb	r3, [r0, #17]
 8000a90:	7483      	strb	r3, [r0, #18]
 8000a92:	4770      	bx	lr

08000a94 <Init_TxMes>:
 8000a94:	2300      	movs	r3, #0
 8000a96:	6003      	str	r3, [r0, #0]
 8000a98:	6043      	str	r3, [r0, #4]
 8000a9a:	7203      	strb	r3, [r0, #8]
 8000a9c:	7283      	strb	r3, [r0, #10]
 8000a9e:	72c3      	strb	r3, [r0, #11]
 8000aa0:	60c3      	str	r3, [r0, #12]
 8000aa2:	7403      	strb	r3, [r0, #16]
 8000aa4:	7443      	strb	r3, [r0, #17]
 8000aa6:	7483      	strb	r3, [r0, #18]
 8000aa8:	4770      	bx	lr
 8000aaa:	bf00      	nop

08000aac <Timer_init>:
 8000aac:	b530      	push	{r4, r5, lr}
 8000aae:	4605      	mov	r5, r0
 8000ab0:	2001      	movs	r0, #1
 8000ab2:	b083      	sub	sp, #12
 8000ab4:	4601      	mov	r1, r0
 8000ab6:	f640 1490 	movw	r4, #2448	; 0x990
 8000aba:	f2c2 0400 	movt	r4, #8192	; 0x2000
 8000abe:	f004 f97d 	bl	8004dbc <RCC_APB1PeriphClockCmd>
 8000ac2:	f04f 4080 	mov.w	r0, #1073741824	; 0x40000000
 8000ac6:	f005 fdb7 	bl	8006638 <TIM_DeInit>
 8000aca:	4620      	mov	r0, r4
 8000acc:	f005 feea 	bl	80068a4 <TIM_TimeBaseStructInit>
 8000ad0:	f240 0228 	movw	r2, #40	; 0x28
 8000ad4:	f2c2 0200 	movt	r2, #8192	; 0x2000
 8000ad8:	2300      	movs	r3, #0
 8000ada:	6812      	ldr	r2, [r2, #0]
 8000adc:	8063      	strh	r3, [r4, #2]
 8000ade:	0852      	lsrs	r2, r2, #1
 8000ae0:	fbb2 f5f5 	udiv	r5, r2, r5
 8000ae4:	4621      	mov	r1, r4
 8000ae6:	f04f 4080 	mov.w	r0, #1073741824	; 0x40000000
 8000aea:	8023      	strh	r3, [r4, #0]
 8000aec:	8123      	strh	r3, [r4, #8]
 8000aee:	6065      	str	r5, [r4, #4]
 8000af0:	f005 fe8c 	bl	800680c <TIM_TimeBaseInit>
 8000af4:	2101      	movs	r1, #1
 8000af6:	f04f 4080 	mov.w	r0, #1073741824	; 0x40000000
 8000afa:	f006 fba5 	bl	8007248 <TIM_ClearITPendingBit>
 8000afe:	2101      	movs	r1, #1
 8000b00:	f04f 4080 	mov.w	r0, #1073741824	; 0x40000000
 8000b04:	460a      	mov	r2, r1
 8000b06:	f006 fb7d 	bl	8007204 <TIM_ITConfig>
 8000b0a:	231c      	movs	r3, #28
 8000b0c:	f88d 3004 	strb.w	r3, [sp, #4]
 8000b10:	2301      	movs	r3, #1
 8000b12:	f88d 3007 	strb.w	r3, [sp, #7]
 8000b16:	a801      	add	r0, sp, #4
 8000b18:	2303      	movs	r3, #3
 8000b1a:	f88d 3005 	strb.w	r3, [sp, #5]
 8000b1e:	f000 fa57 	bl	8000fd0 <NVIC_Init>
 8000b22:	b003      	add	sp, #12
 8000b24:	bd30      	pop	{r4, r5, pc}
 8000b26:	bf00      	nop

08000b28 <Timer_startTimer>:
 8000b28:	f04f 4080 	mov.w	r0, #1073741824	; 0x40000000
 8000b2c:	2101      	movs	r1, #1
 8000b2e:	f005 bf1b 	b.w	8006968 <TIM_Cmd>
 8000b32:	bf00      	nop

08000b34 <Timer_stopTimer>:
 8000b34:	b508      	push	{r3, lr}
 8000b36:	2100      	movs	r1, #0
 8000b38:	f04f 4080 	mov.w	r0, #1073741824	; 0x40000000
 8000b3c:	f005 ff14 	bl	8006968 <TIM_Cmd>
 8000b40:	f04f 4380 	mov.w	r3, #1073741824	; 0x40000000
 8000b44:	2200      	movs	r2, #0
 8000b46:	4618      	mov	r0, r3
 8000b48:	2101      	movs	r1, #1
 8000b4a:	625a      	str	r2, [r3, #36]	; 0x24
 8000b4c:	e8bd 4008 	ldmia.w	sp!, {r3, lr}
 8000b50:	f006 bb7a 	b.w	8007248 <TIM_ClearITPendingBit>

08000b54 <CAN_Config>:
 8000b54:	b570      	push	{r4, r5, r6, lr}
 8000b56:	f44f 6540 	mov.w	r5, #3072	; 0xc00
 8000b5a:	b08a      	sub	sp, #40	; 0x28
 8000b5c:	f2c4 0502 	movt	r5, #16386	; 0x4002
 8000b60:	2008      	movs	r0, #8
 8000b62:	2101      	movs	r1, #1
 8000b64:	f004 f900 	bl	8004d68 <RCC_AHB1PeriphClockCmd>
 8000b68:	2100      	movs	r1, #0
 8000b6a:	2209      	movs	r2, #9
 8000b6c:	4628      	mov	r0, r5
 8000b6e:	f003 f9cf 	bl	8003f10 <GPIO_PinAFConfig>
 8000b72:	4628      	mov	r0, r5
 8000b74:	2209      	movs	r2, #9
 8000b76:	2101      	movs	r1, #1
 8000b78:	2400      	movs	r4, #0
 8000b7a:	f003 f9c9 	bl	8003f10 <GPIO_PinAFConfig>
 8000b7e:	2601      	movs	r6, #1
 8000b80:	2302      	movs	r3, #2
 8000b82:	2203      	movs	r2, #3
 8000b84:	4628      	mov	r0, r5
 8000b86:	a908      	add	r1, sp, #32
 8000b88:	f44f 45c8 	mov.w	r5, #25600	; 0x6400
 8000b8c:	9208      	str	r2, [sp, #32]
 8000b8e:	f88d 3024 	strb.w	r3, [sp, #36]	; 0x24
 8000b92:	f88d 3025 	strb.w	r3, [sp, #37]	; 0x25
 8000b96:	f2c4 0500 	movt	r5, #16384	; 0x4000
 8000b9a:	f88d 4026 	strb.w	r4, [sp, #38]	; 0x26
 8000b9e:	f88d 6027 	strb.w	r6, [sp, #39]	; 0x27
 8000ba2:	f003 f91d 	bl	8003de0 <GPIO_Init>
 8000ba6:	4631      	mov	r1, r6
 8000ba8:	f04f 7000 	mov.w	r0, #33554432	; 0x2000000
 8000bac:	f004 f906 	bl	8004dbc <RCC_APB1PeriphClockCmd>
 8000bb0:	4628      	mov	r0, r5
 8000bb2:	f000 fc53 	bl	800145c <CAN_DeInit>
 8000bb6:	a90a      	add	r1, sp, #40	; 0x28
 8000bb8:	2306      	movs	r3, #6
 8000bba:	2205      	movs	r2, #5
 8000bbc:	f821 3d14 	strh.w	r3, [r1, #-20]!
 8000bc0:	4628      	mov	r0, r5
 8000bc2:	f88d 401a 	strb.w	r4, [sp, #26]
 8000bc6:	f88d 401b 	strb.w	r4, [sp, #27]
 8000bca:	f88d 401c 	strb.w	r4, [sp, #28]
 8000bce:	f88d 401d 	strb.w	r4, [sp, #29]
 8000bd2:	f88d 401e 	strb.w	r4, [sp, #30]
 8000bd6:	f88d 401f 	strb.w	r4, [sp, #31]
 8000bda:	f88d 4016 	strb.w	r4, [sp, #22]
 8000bde:	f88d 4017 	strb.w	r4, [sp, #23]
 8000be2:	f88d 2018 	strb.w	r2, [sp, #24]
 8000be6:	f88d 3019 	strb.w	r3, [sp, #25]
 8000bea:	f000 fc57 	bl	800149c <CAN_Init>
 8000bee:	a801      	add	r0, sp, #4
 8000bf0:	f88d 400e 	strb.w	r4, [sp, #14]
 8000bf4:	f88d 400f 	strb.w	r4, [sp, #15]
 8000bf8:	f88d 6010 	strb.w	r6, [sp, #16]
 8000bfc:	f8ad 4004 	strh.w	r4, [sp, #4]
 8000c00:	f8ad 4006 	strh.w	r4, [sp, #6]
 8000c04:	f8ad 4008 	strh.w	r4, [sp, #8]
 8000c08:	f8ad 400a 	strh.w	r4, [sp, #10]
 8000c0c:	f8ad 400c 	strh.w	r4, [sp, #12]
 8000c10:	f88d 6011 	strb.w	r6, [sp, #17]
 8000c14:	f000 fcb8 	bl	8001588 <CAN_FilterInit>
 8000c18:	b00a      	add	sp, #40	; 0x28
 8000c1a:	bd70      	pop	{r4, r5, r6, pc}

08000c1c <NVIC_Config>:
 8000c1c:	b500      	push	{lr}
 8000c1e:	b083      	sub	sp, #12
 8000c20:	2300      	movs	r3, #0
 8000c22:	2214      	movs	r2, #20
 8000c24:	f88d 3005 	strb.w	r3, [sp, #5]
 8000c28:	f88d 3006 	strb.w	r3, [sp, #6]
 8000c2c:	a801      	add	r0, sp, #4
 8000c2e:	2301      	movs	r3, #1
 8000c30:	f88d 2004 	strb.w	r2, [sp, #4]
 8000c34:	f88d 3007 	strb.w	r3, [sp, #7]
 8000c38:	f000 f9ca 	bl	8000fd0 <NVIC_Init>
 8000c3c:	b003      	add	sp, #12
 8000c3e:	bd00      	pop	{pc}

08000c40 <LED_Display>:
 8000c40:	b510      	push	{r4, lr}
 8000c42:	4604      	mov	r4, r0
 8000c44:	2002      	movs	r0, #2
 8000c46:	f7ff fb01 	bl	800024c <STM_EVAL_LEDOff>
 8000c4a:	2003      	movs	r0, #3
 8000c4c:	f7ff fafe 	bl	800024c <STM_EVAL_LEDOff>
 8000c50:	2001      	movs	r0, #1
 8000c52:	f7ff fafb 	bl	800024c <STM_EVAL_LEDOff>
 8000c56:	2000      	movs	r0, #0
 8000c58:	f7ff faf8 	bl	800024c <STM_EVAL_LEDOff>
 8000c5c:	2c03      	cmp	r4, #3
 8000c5e:	d817      	bhi.n	8000c90 <LED_Display+0x50>
 8000c60:	e8df f004 	tbb	[pc, r4]
 8000c64:	02070c11 	.word	0x02070c11
 8000c68:	2001      	movs	r0, #1
 8000c6a:	e8bd 4010 	ldmia.w	sp!, {r4, lr}
 8000c6e:	f7ff badd 	b.w	800022c <STM_EVAL_LEDOn>
 8000c72:	2000      	movs	r0, #0
 8000c74:	e8bd 4010 	ldmia.w	sp!, {r4, lr}
 8000c78:	f7ff bad8 	b.w	800022c <STM_EVAL_LEDOn>
 8000c7c:	2003      	movs	r0, #3
 8000c7e:	e8bd 4010 	ldmia.w	sp!, {r4, lr}
 8000c82:	f7ff bad3 	b.w	800022c <STM_EVAL_LEDOn>
 8000c86:	2002      	movs	r0, #2
 8000c88:	e8bd 4010 	ldmia.w	sp!, {r4, lr}
 8000c8c:	f7ff bace 	b.w	800022c <STM_EVAL_LEDOn>
 8000c90:	bd10      	pop	{r4, pc}
 8000c92:	bf00      	nop

08000c94 <Delay>:
 8000c94:	4770      	bx	lr
 8000c96:	bf00      	nop

08000c98 <EVAL_AUDIO_TransferComplete_CallBack>:
 8000c98:	4770      	bx	lr
 8000c9a:	bf00      	nop

08000c9c <EVAL_AUDIO_GetSampleCallBack>:
 8000c9c:	2000      	movs	r0, #0
 8000c9e:	4770      	bx	lr
 8000ca0:	08008448 	.word	0x08008448
 8000ca4:	20000000 	.word	0x20000000
 8000ca8:	20000880 	.word	0x20000880
 8000cac:	20000880 	.word	0x20000880
 8000cb0:	200009b4 	.word	0x200009b4

08000cb4 <NMI_Handler>:
 8000cb4:	4770      	bx	lr
 8000cb6:	bf00      	nop

08000cb8 <HardFault_Handler>:
 8000cb8:	e7fe      	b.n	8000cb8 <HardFault_Handler>
 8000cba:	bf00      	nop

08000cbc <MemManage_Handler>:
 8000cbc:	e7fe      	b.n	8000cbc <MemManage_Handler>
 8000cbe:	bf00      	nop

08000cc0 <BusFault_Handler>:
 8000cc0:	e7fe      	b.n	8000cc0 <BusFault_Handler>
 8000cc2:	bf00      	nop

08000cc4 <UsageFault_Handler>:
 8000cc4:	e7fe      	b.n	8000cc4 <UsageFault_Handler>
 8000cc6:	bf00      	nop

08000cc8 <SVC_Handler>:
 8000cc8:	4770      	bx	lr
 8000cca:	bf00      	nop

08000ccc <DebugMon_Handler>:
 8000ccc:	4770      	bx	lr
 8000cce:	bf00      	nop

08000cd0 <PendSV_Handler>:
 8000cd0:	4770      	bx	lr
 8000cd2:	bf00      	nop

08000cd4 <SysTick_Handler>:
 8000cd4:	4770      	bx	lr
 8000cd6:	bf00      	nop

08000cd8 <CAN1_RX0_IRQHandler>:
 8000cd8:	e92d 43f0 	stmdb	sp!, {r4, r5, r6, r7, r8, r9, lr}
 8000cdc:	f04f 4380 	mov.w	r3, #1073741824	; 0x40000000
 8000ce0:	b087      	sub	sp, #28
 8000ce2:	f44f 40c8 	mov.w	r0, #25600	; 0x6400
 8000ce6:	4c29      	ldr	r4, [pc, #164]	; (8000d8c <CAN1_RX0_IRQHandler+0xb4>)
 8000ce8:	6a5d      	ldr	r5, [r3, #36]	; 0x24
 8000cea:	f2c4 0000 	movt	r0, #16384	; 0x4000
 8000cee:	2100      	movs	r1, #0
 8000cf0:	aa01      	add	r2, sp, #4
 8000cf2:	f000 fdfb 	bl	80018ec <CAN_Receive>
 8000cf6:	7823      	ldrb	r3, [r4, #0]
 8000cf8:	b91b      	cbnz	r3, 8000d02 <CAN1_RX0_IRQHandler+0x2a>
 8000cfa:	4825      	ldr	r0, [pc, #148]	; (8000d90 <CAN1_RX0_IRQHandler+0xb8>)
 8000cfc:	f7ff fbe4 	bl	80004c8 <Q_UART_DMAsendZTString>
 8000d00:	e7fe      	b.n	8000d00 <CAN1_RX0_IRQHandler+0x28>
 8000d02:	4e24      	ldr	r6, [pc, #144]	; (8000d94 <CAN1_RX0_IRQHandler+0xbc>)
 8000d04:	7830      	ldrb	r0, [r6, #0]
 8000d06:	f7ff ff9b 	bl	8000c40 <LED_Display>
 8000d0a:	7833      	ldrb	r3, [r6, #0]
 8000d0c:	1c5a      	adds	r2, r3, #1
 8000d0e:	2b03      	cmp	r3, #3
 8000d10:	7032      	strb	r2, [r6, #0]
 8000d12:	d901      	bls.n	8000d18 <CAN1_RX0_IRQHandler+0x40>
 8000d14:	2300      	movs	r3, #0
 8000d16:	7033      	strb	r3, [r6, #0]
 8000d18:	7872      	ldrb	r2, [r6, #1]
 8000d1a:	491f      	ldr	r1, [pc, #124]	; (8000d98 <CAN1_RX0_IRQHandler+0xc0>)
 8000d1c:	f89d 700e 	ldrb.w	r7, [sp, #14]
 8000d20:	f8dd 9004 	ldr.w	r9, [sp, #4]
 8000d24:	ea4f 0c42 	mov.w	ip, r2, lsl #1
 8000d28:	eb0c 0302 	add.w	r3, ip, r2
 8000d2c:	00db      	lsls	r3, r3, #3
 8000d2e:	18c8      	adds	r0, r1, r3
 8000d30:	3501      	adds	r5, #1
 8000d32:	f841 9003 	str.w	r9, [r1, r3]
 8000d36:	f100 0808 	add.w	r8, r0, #8
 8000d3a:	6045      	str	r5, [r0, #4]
 8000d3c:	7307      	strb	r7, [r0, #12]
 8000d3e:	b167      	cbz	r7, 8000d5a <CAN1_RX0_IRQHandler+0x82>
 8000d40:	2300      	movs	r3, #0
 8000d42:	ad01      	add	r5, sp, #4
 8000d44:	eb05 0803 	add.w	r8, r5, r3
 8000d48:	18c5      	adds	r5, r0, r3
 8000d4a:	f898 800b 	ldrb.w	r8, [r8, #11]
 8000d4e:	3301      	adds	r3, #1
 8000d50:	f885 800d 	strb.w	r8, [r5, #13]
 8000d54:	3508      	adds	r5, #8
 8000d56:	42bb      	cmp	r3, r7
 8000d58:	dbf3      	blt.n	8000d42 <CAN1_RX0_IRQHandler+0x6a>
 8000d5a:	f04f 4380 	mov.w	r3, #1073741824	; 0x40000000
 8000d5e:	4494      	add	ip, r2
 8000d60:	6a58      	ldr	r0, [r3, #36]	; 0x24
 8000d62:	1c53      	adds	r3, r2, #1
 8000d64:	b2db      	uxtb	r3, r3
 8000d66:	eb01 01cc 	add.w	r1, r1, ip, lsl #3
 8000d6a:	3001      	adds	r0, #1
 8000d6c:	2b04      	cmp	r3, #4
 8000d6e:	6088      	str	r0, [r1, #8]
 8000d70:	7073      	strb	r3, [r6, #1]
 8000d72:	d002      	beq.n	8000d7a <CAN1_RX0_IRQHandler+0xa2>
 8000d74:	b007      	add	sp, #28
 8000d76:	e8bd 83f0 	ldmia.w	sp!, {r4, r5, r6, r7, r8, r9, pc}
 8000d7a:	4a08      	ldr	r2, [pc, #32]	; (8000d9c <CAN1_RX0_IRQHandler+0xc4>)
 8000d7c:	2101      	movs	r1, #1
 8000d7e:	7011      	strb	r1, [r2, #0]
 8000d80:	4a04      	ldr	r2, [pc, #16]	; (8000d94 <CAN1_RX0_IRQHandler+0xbc>)
 8000d82:	2300      	movs	r3, #0
 8000d84:	7053      	strb	r3, [r2, #1]
 8000d86:	7023      	strb	r3, [r4, #0]
 8000d88:	e7f4      	b.n	8000d74 <CAN1_RX0_IRQHandler+0x9c>
 8000d8a:	bf00      	nop
 8000d8c:	20000014 	.word	0x20000014
 8000d90:	08008424 	.word	0x08008424
 8000d94:	200008ae 	.word	0x200008ae
 8000d98:	20000930 	.word	0x20000930
 8000d9c:	200008ac 	.word	0x200008ac

08000da0 <EXTI15_10_IRQHandler>:
 8000da0:	f44f 4000 	mov.w	r0, #32768	; 0x8000
 8000da4:	f002 ba82 	b.w	80032ac <EXTI_ClearITPendingBit>

08000da8 <TIM2_IRQHandler>:
 8000da8:	b508      	push	{r3, lr}
 8000daa:	f04f 4080 	mov.w	r0, #1073741824	; 0x40000000
 8000dae:	2101      	movs	r1, #1
 8000db0:	f006 fa4a 	bl	8007248 <TIM_ClearITPendingBit>
 8000db4:	f640 03ad 	movw	r3, #2221	; 0x8ad
 8000db8:	f2c2 0300 	movt	r3, #8192	; 0x2000
 8000dbc:	2201      	movs	r2, #1
 8000dbe:	2003      	movs	r0, #3
 8000dc0:	701a      	strb	r2, [r3, #0]
 8000dc2:	e8bd 4008 	ldmia.w	sp!, {r3, lr}
 8000dc6:	f7ff ba31 	b.w	800022c <STM_EVAL_LEDOn>
 8000dca:	bf00      	nop

08000dcc <_sbrk>:
 8000dcc:	4a06      	ldr	r2, [pc, #24]	; (8000de8 <_sbrk+0x1c>)
 8000dce:	6813      	ldr	r3, [r2, #0]
 8000dd0:	b13b      	cbz	r3, 8000de2 <_sbrk+0x16>
 8000dd2:	4906      	ldr	r1, [pc, #24]	; (8000dec <_sbrk+0x20>)
 8000dd4:	1818      	adds	r0, r3, r0
 8000dd6:	4288      	cmp	r0, r1
 8000dd8:	bf34      	ite	cc
 8000dda:	6010      	strcc	r0, [r2, #0]
 8000ddc:	2300      	movcs	r3, #0
 8000dde:	4618      	mov	r0, r3
 8000de0:	4770      	bx	lr
 8000de2:	4b03      	ldr	r3, [pc, #12]	; (8000df0 <_sbrk+0x24>)
 8000de4:	6013      	str	r3, [r2, #0]
 8000de6:	e7f4      	b.n	8000dd2 <_sbrk+0x6>
 8000de8:	200008b0 	.word	0x200008b0
 8000dec:	200069b8 	.word	0x200069b8
 8000df0:	200009b4 	.word	0x200009b4

08000df4 <__malloc_lock>:
 8000df4:	b672      	cpsid	i
 8000df6:	f640 03b0 	movw	r3, #2224	; 0x8b0
 8000dfa:	f2c2 0300 	movt	r3, #8192	; 0x2000
 8000dfe:	685a      	ldr	r2, [r3, #4]
 8000e00:	3201      	adds	r2, #1
 8000e02:	605a      	str	r2, [r3, #4]
 8000e04:	4770      	bx	lr
 8000e06:	bf00      	nop

08000e08 <__malloc_unlock>:
 8000e08:	4a03      	ldr	r2, [pc, #12]	; (8000e18 <__malloc_unlock+0x10>)
 8000e0a:	6853      	ldr	r3, [r2, #4]
 8000e0c:	3b01      	subs	r3, #1
 8000e0e:	6053      	str	r3, [r2, #4]
 8000e10:	b903      	cbnz	r3, 8000e14 <__malloc_unlock+0xc>
 8000e12:	b662      	cpsie	i
 8000e14:	4770      	bx	lr
 8000e16:	bf00      	nop
 8000e18:	200008b0 	.word	0x200008b0

08000e1c <SystemInit>:
 8000e1c:	f44f 5360 	mov.w	r3, #14336	; 0x3800
 8000e20:	f2c4 0302 	movt	r3, #16386	; 0x4002
 8000e24:	2200      	movs	r2, #0
 8000e26:	6819      	ldr	r1, [r3, #0]
 8000e28:	f041 0101 	orr.w	r1, r1, #1
 8000e2c:	6019      	str	r1, [r3, #0]
 8000e2e:	609a      	str	r2, [r3, #8]
 8000e30:	6818      	ldr	r0, [r3, #0]
 8000e32:	f243 0110 	movw	r1, #12304	; 0x3010
 8000e36:	f020 7084 	bic.w	r0, r0, #17301504	; 0x1080000
 8000e3a:	f2c2 4100 	movt	r1, #9216	; 0x2400
 8000e3e:	f420 3080 	bic.w	r0, r0, #65536	; 0x10000
 8000e42:	6018      	str	r0, [r3, #0]
 8000e44:	6059      	str	r1, [r3, #4]
 8000e46:	6819      	ldr	r1, [r3, #0]
 8000e48:	b082      	sub	sp, #8
 8000e4a:	f421 2180 	bic.w	r1, r1, #262144	; 0x40000
 8000e4e:	6019      	str	r1, [r3, #0]
 8000e50:	60da      	str	r2, [r3, #12]
 8000e52:	9200      	str	r2, [sp, #0]
 8000e54:	9201      	str	r2, [sp, #4]
 8000e56:	681a      	ldr	r2, [r3, #0]
 8000e58:	f442 3280 	orr.w	r2, r2, #65536	; 0x10000
 8000e5c:	601a      	str	r2, [r3, #0]
 8000e5e:	461a      	mov	r2, r3
 8000e60:	e003      	b.n	8000e6a <SystemInit+0x4e>
 8000e62:	9b00      	ldr	r3, [sp, #0]
 8000e64:	f5b3 6fa0 	cmp.w	r3, #1280	; 0x500
 8000e68:	d009      	beq.n	8000e7e <SystemInit+0x62>
 8000e6a:	6813      	ldr	r3, [r2, #0]
 8000e6c:	f403 3300 	and.w	r3, r3, #131072	; 0x20000
 8000e70:	9301      	str	r3, [sp, #4]
 8000e72:	9b00      	ldr	r3, [sp, #0]
 8000e74:	3301      	adds	r3, #1
 8000e76:	9300      	str	r3, [sp, #0]
 8000e78:	9b01      	ldr	r3, [sp, #4]
 8000e7a:	2b00      	cmp	r3, #0
 8000e7c:	d0f1      	beq.n	8000e62 <SystemInit+0x46>
 8000e7e:	f44f 5360 	mov.w	r3, #14336	; 0x3800
 8000e82:	f2c4 0302 	movt	r3, #16386	; 0x4002
 8000e86:	681b      	ldr	r3, [r3, #0]
 8000e88:	f413 3300 	ands.w	r3, r3, #131072	; 0x20000
 8000e8c:	bf08      	it	eq
 8000e8e:	9301      	streq	r3, [sp, #4]
 8000e90:	d001      	beq.n	8000e96 <SystemInit+0x7a>
 8000e92:	2301      	movs	r3, #1
 8000e94:	9301      	str	r3, [sp, #4]
 8000e96:	9b01      	ldr	r3, [sp, #4]
 8000e98:	2b01      	cmp	r3, #1
 8000e9a:	d008      	beq.n	8000eae <SystemInit+0x92>
 8000e9c:	f44f 436d 	mov.w	r3, #60672	; 0xed00
 8000ea0:	f2ce 0300 	movt	r3, #57344	; 0xe000
 8000ea4:	f04f 6200 	mov.w	r2, #134217728	; 0x8000000
 8000ea8:	609a      	str	r2, [r3, #8]
 8000eaa:	b002      	add	sp, #8
 8000eac:	4770      	bx	lr
 8000eae:	f44f 5360 	mov.w	r3, #14336	; 0x3800
 8000eb2:	f2c4 0302 	movt	r3, #16386	; 0x4002
 8000eb6:	f44f 42e0 	mov.w	r2, #28672	; 0x7000
 8000eba:	6c19      	ldr	r1, [r3, #64]	; 0x40
 8000ebc:	f2c4 0200 	movt	r2, #16384	; 0x4000
 8000ec0:	f041 5180 	orr.w	r1, r1, #268435456	; 0x10000000
 8000ec4:	6419      	str	r1, [r3, #64]	; 0x40
 8000ec6:	6811      	ldr	r1, [r2, #0]
 8000ec8:	f441 4180 	orr.w	r1, r1, #16384	; 0x4000
 8000ecc:	6011      	str	r1, [r2, #0]
 8000ece:	689a      	ldr	r2, [r3, #8]
 8000ed0:	609a      	str	r2, [r3, #8]
 8000ed2:	689a      	ldr	r2, [r3, #8]
 8000ed4:	f442 4200 	orr.w	r2, r2, #32768	; 0x8000
 8000ed8:	609a      	str	r2, [r3, #8]
 8000eda:	6899      	ldr	r1, [r3, #8]
 8000edc:	f245 4208 	movw	r2, #21512	; 0x5408
 8000ee0:	f441 51a0 	orr.w	r1, r1, #5120	; 0x1400
 8000ee4:	f2c0 7240 	movt	r2, #1856	; 0x740
 8000ee8:	6099      	str	r1, [r3, #8]
 8000eea:	605a      	str	r2, [r3, #4]
 8000eec:	681a      	ldr	r2, [r3, #0]
 8000eee:	f042 7280 	orr.w	r2, r2, #16777216	; 0x1000000
 8000ef2:	601a      	str	r2, [r3, #0]
 8000ef4:	4619      	mov	r1, r3
 8000ef6:	680a      	ldr	r2, [r1, #0]
 8000ef8:	f44f 5360 	mov.w	r3, #14336	; 0x3800
 8000efc:	0192      	lsls	r2, r2, #6
 8000efe:	f2c4 0302 	movt	r3, #16386	; 0x4002
 8000f02:	d5f8      	bpl.n	8000ef6 <SystemInit+0xda>
 8000f04:	f44f 5270 	mov.w	r2, #15360	; 0x3c00
 8000f08:	f2c4 0202 	movt	r2, #16386	; 0x4002
 8000f0c:	f240 6105 	movw	r1, #1541	; 0x605
 8000f10:	6011      	str	r1, [r2, #0]
 8000f12:	689a      	ldr	r2, [r3, #8]
 8000f14:	f022 0203 	bic.w	r2, r2, #3
 8000f18:	609a      	str	r2, [r3, #8]
 8000f1a:	689a      	ldr	r2, [r3, #8]
 8000f1c:	f042 0202 	orr.w	r2, r2, #2
 8000f20:	609a      	str	r2, [r3, #8]
 8000f22:	689a      	ldr	r2, [r3, #8]
 8000f24:	f002 020c 	and.w	r2, r2, #12
 8000f28:	2a08      	cmp	r2, #8
 8000f2a:	d1fa      	bne.n	8000f22 <SystemInit+0x106>
 8000f2c:	e7b6      	b.n	8000e9c <SystemInit+0x80>
 8000f2e:	bf00      	nop

08000f30 <SystemCoreClockUpdate>:
 8000f30:	f44f 5360 	mov.w	r3, #14336	; 0x3800
 8000f34:	f2c4 0302 	movt	r3, #16386	; 0x4002
 8000f38:	689a      	ldr	r2, [r3, #8]
 8000f3a:	f002 020c 	and.w	r2, r2, #12
 8000f3e:	2a04      	cmp	r2, #4
 8000f40:	bf04      	itt	eq
 8000f42:	f44f 5190 	moveq.w	r1, #4608	; 0x1200
 8000f46:	f2c0 017a 	movteq	r1, #122	; 0x7a
 8000f4a:	d006      	beq.n	8000f5a <SystemCoreClockUpdate+0x2a>
 8000f4c:	2a08      	cmp	r2, #8
 8000f4e:	bf1c      	itt	ne
 8000f50:	f44f 5110 	movne.w	r1, #9216	; 0x2400
 8000f54:	f2c0 01f4 	movtne	r1, #244	; 0xf4
 8000f58:	d00b      	beq.n	8000f72 <SystemCoreClockUpdate+0x42>
 8000f5a:	f44f 5260 	mov.w	r2, #14336	; 0x3800
 8000f5e:	f2c4 0202 	movt	r2, #16386	; 0x4002
 8000f62:	4b15      	ldr	r3, [pc, #84]	; (8000fb8 <SystemCoreClockUpdate+0x88>)
 8000f64:	6892      	ldr	r2, [r2, #8]
 8000f66:	f3c2 1203 	ubfx	r2, r2, #4, #4
 8000f6a:	5c9a      	ldrb	r2, [r3, r2]
 8000f6c:	40d1      	lsrs	r1, r2
 8000f6e:	6119      	str	r1, [r3, #16]
 8000f70:	4770      	bx	lr
 8000f72:	6858      	ldr	r0, [r3, #4]
 8000f74:	685a      	ldr	r2, [r3, #4]
 8000f76:	f410 0f80 	tst.w	r0, #4194304	; 0x400000
 8000f7a:	6858      	ldr	r0, [r3, #4]
 8000f7c:	bf15      	itete	ne
 8000f7e:	f44f 5390 	movne.w	r3, #4608	; 0x1200
 8000f82:	f44f 5310 	moveq.w	r3, #9216	; 0x2400
 8000f86:	f2c0 037a 	movtne	r3, #122	; 0x7a
 8000f8a:	f2c0 03f4 	movteq	r3, #244	; 0xf4
 8000f8e:	f002 023f 	and.w	r2, r2, #63	; 0x3f
 8000f92:	fbb3 f1f2 	udiv	r1, r3, r2
 8000f96:	f44f 5360 	mov.w	r3, #14336	; 0x3800
 8000f9a:	f2c4 0302 	movt	r3, #16386	; 0x4002
 8000f9e:	f3c0 1088 	ubfx	r0, r0, #6, #9
 8000fa2:	685b      	ldr	r3, [r3, #4]
 8000fa4:	f3c3 4301 	ubfx	r3, r3, #16, #2
 8000fa8:	3301      	adds	r3, #1
 8000faa:	fb01 f100 	mul.w	r1, r1, r0
 8000fae:	005b      	lsls	r3, r3, #1
 8000fb0:	fbb1 f1f3 	udiv	r1, r1, r3
 8000fb4:	e7d1      	b.n	8000f5a <SystemCoreClockUpdate+0x2a>
 8000fb6:	bf00      	nop
 8000fb8:	20000018 	.word	0x20000018

08000fbc <NVIC_PriorityGroupConfig>:
 8000fbc:	f44f 436d 	mov.w	r3, #60672	; 0xed00
 8000fc0:	f040 60bf 	orr.w	r0, r0, #100139008	; 0x5f80000
 8000fc4:	f2ce 0300 	movt	r3, #57344	; 0xe000
 8000fc8:	f440 3000 	orr.w	r0, r0, #131072	; 0x20000
 8000fcc:	60d8      	str	r0, [r3, #12]
 8000fce:	4770      	bx	lr

08000fd0 <NVIC_Init>:
 8000fd0:	78c3      	ldrb	r3, [r0, #3]
 8000fd2:	b430      	push	{r4, r5}
 8000fd4:	b97b      	cbnz	r3, 8000ff6 <NVIC_Init+0x26>
 8000fd6:	7802      	ldrb	r2, [r0, #0]
 8000fd8:	f44f 4361 	mov.w	r3, #57600	; 0xe100
 8000fdc:	0951      	lsrs	r1, r2, #5
 8000fde:	f2ce 0300 	movt	r3, #57344	; 0xe000
 8000fe2:	f002 021f 	and.w	r2, r2, #31
 8000fe6:	3120      	adds	r1, #32
 8000fe8:	2001      	movs	r0, #1
 8000fea:	fa10 f202 	lsls.w	r2, r0, r2
 8000fee:	f843 2021 	str.w	r2, [r3, r1, lsl #2]
 8000ff2:	bc30      	pop	{r4, r5}
 8000ff4:	4770      	bx	lr
 8000ff6:	f44f 436d 	mov.w	r3, #60672	; 0xed00
 8000ffa:	f2ce 0300 	movt	r3, #57344	; 0xe000
 8000ffe:	7845      	ldrb	r5, [r0, #1]
 8001000:	68da      	ldr	r2, [r3, #12]
 8001002:	7884      	ldrb	r4, [r0, #2]
 8001004:	7803      	ldrb	r3, [r0, #0]
 8001006:	43d2      	mvns	r2, r2
 8001008:	f3c2 2202 	ubfx	r2, r2, #8, #3
 800100c:	f1c2 0104 	rsb	r1, r2, #4
 8001010:	b2c9      	uxtb	r1, r1
 8001012:	fa15 f101 	lsls.w	r1, r5, r1
 8001016:	250f      	movs	r5, #15
 8001018:	fa55 f202 	asrs.w	r2, r5, r2
 800101c:	b2c9      	uxtb	r1, r1
 800101e:	4022      	ands	r2, r4
 8001020:	430a      	orrs	r2, r1
 8001022:	f103 4360 	add.w	r3, r3, #3758096384	; 0xe0000000
 8001026:	f503 4361 	add.w	r3, r3, #57600	; 0xe100
 800102a:	0112      	lsls	r2, r2, #4
 800102c:	b2d2      	uxtb	r2, r2
 800102e:	f883 2300 	strb.w	r2, [r3, #768]	; 0x300
 8001032:	7802      	ldrb	r2, [r0, #0]
 8001034:	f44f 4361 	mov.w	r3, #57600	; 0xe100
 8001038:	0951      	lsrs	r1, r2, #5
 800103a:	f2ce 0300 	movt	r3, #57344	; 0xe000
 800103e:	f002 021f 	and.w	r2, r2, #31
 8001042:	2001      	movs	r0, #1
 8001044:	fa10 f202 	lsls.w	r2, r0, r2
 8001048:	f843 2021 	str.w	r2, [r3, r1, lsl #2]
 800104c:	e7d1      	b.n	8000ff2 <NVIC_Init+0x22>
 800104e:	bf00      	nop

08001050 <NVIC_SetVectorTable>:
 8001050:	f021 4160 	bic.w	r1, r1, #3758096384	; 0xe0000000
 8001054:	f44f 436d 	mov.w	r3, #60672	; 0xed00
 8001058:	f021 017f 	bic.w	r1, r1, #127	; 0x7f
 800105c:	f2ce 0300 	movt	r3, #57344	; 0xe000
 8001060:	4301      	orrs	r1, r0
 8001062:	6099      	str	r1, [r3, #8]
 8001064:	4770      	bx	lr
 8001066:	bf00      	nop

08001068 <NVIC_SystemLPConfig>:
 8001068:	f44f 436d 	mov.w	r3, #60672	; 0xed00
 800106c:	f2ce 0300 	movt	r3, #57344	; 0xe000
 8001070:	691a      	ldr	r2, [r3, #16]
 8001072:	b919      	cbnz	r1, 800107c <NVIC_SystemLPConfig+0x14>
 8001074:	ea22 0000 	bic.w	r0, r2, r0
 8001078:	6118      	str	r0, [r3, #16]
 800107a:	4770      	bx	lr
 800107c:	4310      	orrs	r0, r2
 800107e:	6118      	str	r0, [r3, #16]
 8001080:	4770      	bx	lr
 8001082:	bf00      	nop

08001084 <SysTick_CLKSourceConfig>:
 8001084:	f24e 0310 	movw	r3, #57360	; 0xe010
 8001088:	f2ce 0300 	movt	r3, #57344	; 0xe000
 800108c:	2804      	cmp	r0, #4
 800108e:	681a      	ldr	r2, [r3, #0]
 8001090:	bf0c      	ite	eq
 8001092:	f042 0204 	orreq.w	r2, r2, #4
 8001096:	f022 0204 	bicne.w	r2, r2, #4
 800109a:	601a      	str	r2, [r3, #0]
 800109c:	4770      	bx	lr
 800109e:	bf00      	nop

080010a0 <ADC_DeInit>:
 80010a0:	b508      	push	{r3, lr}
 80010a2:	2101      	movs	r1, #1
 80010a4:	f44f 7080 	mov.w	r0, #256	; 0x100
 80010a8:	f003 fedc 	bl	8004e64 <RCC_APB2PeriphResetCmd>
 80010ac:	f44f 7080 	mov.w	r0, #256	; 0x100
 80010b0:	2100      	movs	r1, #0
 80010b2:	e8bd 4008 	ldmia.w	sp!, {r3, lr}
 80010b6:	f003 bed5 	b.w	8004e64 <RCC_APB2PeriphResetCmd>
 80010ba:	bf00      	nop

080010bc <ADC_Init>:
 80010bc:	f8d0 c004 	ldr.w	ip, [r0, #4]
 80010c0:	680b      	ldr	r3, [r1, #0]
 80010c2:	794a      	ldrb	r2, [r1, #5]
 80010c4:	f02c 7c40 	bic.w	ip, ip, #50331648	; 0x3000000
 80010c8:	b4f0      	push	{r4, r5, r6, r7}
 80010ca:	f42c 7c80 	bic.w	ip, ip, #256	; 0x100
 80010ce:	790d      	ldrb	r5, [r1, #4]
 80010d0:	68cf      	ldr	r7, [r1, #12]
 80010d2:	690c      	ldr	r4, [r1, #16]
 80010d4:	688e      	ldr	r6, [r1, #8]
 80010d6:	ea4c 0303 	orr.w	r3, ip, r3
 80010da:	ea43 2305 	orr.w	r3, r3, r5, lsl #8
 80010de:	6043      	str	r3, [r0, #4]
 80010e0:	6885      	ldr	r5, [r0, #8]
 80010e2:	f24f 73fd 	movw	r3, #63485	; 0xf7fd
 80010e6:	433c      	orrs	r4, r7
 80010e8:	f2cc 03ff 	movt	r3, #49407	; 0xc0ff
 80010ec:	4334      	orrs	r4, r6
 80010ee:	402b      	ands	r3, r5
 80010f0:	4323      	orrs	r3, r4
 80010f2:	ea43 0342 	orr.w	r3, r3, r2, lsl #1
 80010f6:	6083      	str	r3, [r0, #8]
 80010f8:	7d0b      	ldrb	r3, [r1, #20]
 80010fa:	6ac2      	ldr	r2, [r0, #44]	; 0x2c
 80010fc:	3b01      	subs	r3, #1
 80010fe:	f422 0270 	bic.w	r2, r2, #15728640	; 0xf00000
 8001102:	b2db      	uxtb	r3, r3
 8001104:	ea42 5303 	orr.w	r3, r2, r3, lsl #20
 8001108:	62c3      	str	r3, [r0, #44]	; 0x2c
 800110a:	bcf0      	pop	{r4, r5, r6, r7}
 800110c:	4770      	bx	lr
 800110e:	bf00      	nop

08001110 <ADC_StructInit>:
 8001110:	2300      	movs	r3, #0
 8001112:	6003      	str	r3, [r0, #0]
 8001114:	7103      	strb	r3, [r0, #4]
 8001116:	7143      	strb	r3, [r0, #5]
 8001118:	6083      	str	r3, [r0, #8]
 800111a:	60c3      	str	r3, [r0, #12]
 800111c:	6103      	str	r3, [r0, #16]
 800111e:	2301      	movs	r3, #1
 8001120:	7503      	strb	r3, [r0, #20]
 8001122:	4770      	bx	lr

08001124 <ADC_CommonInit>:
 8001124:	b470      	push	{r4, r5, r6}
 8001126:	f44f 520c 	mov.w	r2, #8960	; 0x2300
 800112a:	e890 0042 	ldmia.w	r0, {r1, r6}
 800112e:	f2c4 0201 	movt	r2, #16385	; 0x4001
 8001132:	6885      	ldr	r5, [r0, #8]
 8001134:	6854      	ldr	r4, [r2, #4]
 8001136:	68c0      	ldr	r0, [r0, #12]
 8001138:	f243 03e0 	movw	r3, #12512	; 0x30e0
 800113c:	4331      	orrs	r1, r6
 800113e:	f6cf 73fc 	movt	r3, #65532	; 0xfffc
 8001142:	4329      	orrs	r1, r5
 8001144:	4023      	ands	r3, r4
 8001146:	4301      	orrs	r1, r0
 8001148:	430b      	orrs	r3, r1
 800114a:	6053      	str	r3, [r2, #4]
 800114c:	bc70      	pop	{r4, r5, r6}
 800114e:	4770      	bx	lr

08001150 <ADC_CommonStructInit>:
 8001150:	2300      	movs	r3, #0
 8001152:	6003      	str	r3, [r0, #0]
 8001154:	6043      	str	r3, [r0, #4]
 8001156:	6083      	str	r3, [r0, #8]
 8001158:	60c3      	str	r3, [r0, #12]
 800115a:	4770      	bx	lr

0800115c <ADC_Cmd>:
 800115c:	6883      	ldr	r3, [r0, #8]
 800115e:	b919      	cbnz	r1, 8001168 <ADC_Cmd+0xc>
 8001160:	f023 0301 	bic.w	r3, r3, #1
 8001164:	6083      	str	r3, [r0, #8]
 8001166:	4770      	bx	lr
 8001168:	f043 0301 	orr.w	r3, r3, #1
 800116c:	6083      	str	r3, [r0, #8]
 800116e:	4770      	bx	lr

08001170 <ADC_AnalogWatchdogCmd>:
 8001170:	6843      	ldr	r3, [r0, #4]
 8001172:	f423 0340 	bic.w	r3, r3, #12582912	; 0xc00000
 8001176:	f423 7300 	bic.w	r3, r3, #512	; 0x200
 800117a:	430b      	orrs	r3, r1
 800117c:	6043      	str	r3, [r0, #4]
 800117e:	4770      	bx	lr

08001180 <ADC_AnalogWatchdogThresholdsConfig>:
 8001180:	6241      	str	r1, [r0, #36]	; 0x24
 8001182:	6282      	str	r2, [r0, #40]	; 0x28
 8001184:	4770      	bx	lr
 8001186:	bf00      	nop

08001188 <ADC_AnalogWatchdogSingleChannelConfig>:
 8001188:	6843      	ldr	r3, [r0, #4]
 800118a:	f023 031f 	bic.w	r3, r3, #31
 800118e:	430b      	orrs	r3, r1
 8001190:	6043      	str	r3, [r0, #4]
 8001192:	4770      	bx	lr

08001194 <ADC_TempSensorVrefintCmd>:
 8001194:	f44f 530c 	mov.w	r3, #8960	; 0x2300
 8001198:	f2c4 0301 	movt	r3, #16385	; 0x4001
 800119c:	685a      	ldr	r2, [r3, #4]
 800119e:	b918      	cbnz	r0, 80011a8 <ADC_TempSensorVrefintCmd+0x14>
 80011a0:	f422 0200 	bic.w	r2, r2, #8388608	; 0x800000
 80011a4:	605a      	str	r2, [r3, #4]
 80011a6:	4770      	bx	lr
 80011a8:	f442 0200 	orr.w	r2, r2, #8388608	; 0x800000
 80011ac:	605a      	str	r2, [r3, #4]
 80011ae:	4770      	bx	lr

080011b0 <ADC_VBATCmd>:
 80011b0:	f44f 530c 	mov.w	r3, #8960	; 0x2300
 80011b4:	f2c4 0301 	movt	r3, #16385	; 0x4001
 80011b8:	685a      	ldr	r2, [r3, #4]
 80011ba:	b918      	cbnz	r0, 80011c4 <ADC_VBATCmd+0x14>
 80011bc:	f422 0280 	bic.w	r2, r2, #4194304	; 0x400000
 80011c0:	605a      	str	r2, [r3, #4]
 80011c2:	4770      	bx	lr
 80011c4:	f442 0280 	orr.w	r2, r2, #4194304	; 0x400000
 80011c8:	605a      	str	r2, [r3, #4]
 80011ca:	4770      	bx	lr

080011cc <ADC_RegularChannelConfig>:
 80011cc:	2909      	cmp	r1, #9
 80011ce:	b470      	push	{r4, r5, r6}
 80011d0:	d91e      	bls.n	8001210 <ADC_RegularChannelConfig+0x44>
 80011d2:	eb01 0441 	add.w	r4, r1, r1, lsl #1
 80011d6:	3c1e      	subs	r4, #30
 80011d8:	68c6      	ldr	r6, [r0, #12]
 80011da:	2507      	movs	r5, #7
 80011dc:	40a5      	lsls	r5, r4
 80011de:	ea26 0505 	bic.w	r5, r6, r5
 80011e2:	fa13 f404 	lsls.w	r4, r3, r4
 80011e6:	ea45 0304 	orr.w	r3, r5, r4
 80011ea:	2a06      	cmp	r2, #6
 80011ec:	60c3      	str	r3, [r0, #12]
 80011ee:	d91d      	bls.n	800122c <ADC_RegularChannelConfig+0x60>
 80011f0:	2a0c      	cmp	r2, #12
 80011f2:	eb02 0282 	add.w	r2, r2, r2, lsl #2
 80011f6:	d926      	bls.n	8001246 <ADC_RegularChannelConfig+0x7a>
 80011f8:	3a41      	subs	r2, #65	; 0x41
 80011fa:	6ac4      	ldr	r4, [r0, #44]	; 0x2c
 80011fc:	231f      	movs	r3, #31
 80011fe:	4093      	lsls	r3, r2
 8001200:	ea24 0303 	bic.w	r3, r4, r3
 8001204:	4091      	lsls	r1, r2
 8001206:	ea43 0201 	orr.w	r2, r3, r1
 800120a:	62c2      	str	r2, [r0, #44]	; 0x2c
 800120c:	bc70      	pop	{r4, r5, r6}
 800120e:	4770      	bx	lr
 8001210:	6906      	ldr	r6, [r0, #16]
 8001212:	eb01 0441 	add.w	r4, r1, r1, lsl #1
 8001216:	2507      	movs	r5, #7
 8001218:	40a5      	lsls	r5, r4
 800121a:	ea26 0505 	bic.w	r5, r6, r5
 800121e:	fa13 f404 	lsls.w	r4, r3, r4
 8001222:	ea45 0304 	orr.w	r3, r5, r4
 8001226:	2a06      	cmp	r2, #6
 8001228:	6103      	str	r3, [r0, #16]
 800122a:	d8e1      	bhi.n	80011f0 <ADC_RegularChannelConfig+0x24>
 800122c:	3a01      	subs	r2, #1
 800122e:	eb02 0282 	add.w	r2, r2, r2, lsl #2
 8001232:	6b44      	ldr	r4, [r0, #52]	; 0x34
 8001234:	231f      	movs	r3, #31
 8001236:	4093      	lsls	r3, r2
 8001238:	ea24 0303 	bic.w	r3, r4, r3
 800123c:	4091      	lsls	r1, r2
 800123e:	ea43 0201 	orr.w	r2, r3, r1
 8001242:	6342      	str	r2, [r0, #52]	; 0x34
 8001244:	e7e2      	b.n	800120c <ADC_RegularChannelConfig+0x40>
 8001246:	3a23      	subs	r2, #35	; 0x23
 8001248:	6b04      	ldr	r4, [r0, #48]	; 0x30
 800124a:	231f      	movs	r3, #31
 800124c:	4093      	lsls	r3, r2
 800124e:	ea24 0303 	bic.w	r3, r4, r3
 8001252:	4091      	lsls	r1, r2
 8001254:	ea43 0201 	orr.w	r2, r3, r1
 8001258:	6302      	str	r2, [r0, #48]	; 0x30
 800125a:	e7d7      	b.n	800120c <ADC_RegularChannelConfig+0x40>

0800125c <ADC_SoftwareStartConv>:
 800125c:	6883      	ldr	r3, [r0, #8]
 800125e:	f043 4380 	orr.w	r3, r3, #1073741824	; 0x40000000
 8001262:	6083      	str	r3, [r0, #8]
 8001264:	4770      	bx	lr
 8001266:	bf00      	nop

08001268 <ADC_GetSoftwareStartConvStatus>:
 8001268:	6880      	ldr	r0, [r0, #8]
 800126a:	f3c0 5080 	ubfx	r0, r0, #22, #1
 800126e:	4770      	bx	lr

08001270 <ADC_EOCOnEachRegularChannelCmd>:
 8001270:	6883      	ldr	r3, [r0, #8]
 8001272:	b919      	cbnz	r1, 800127c <ADC_EOCOnEachRegularChannelCmd+0xc>
 8001274:	f423 6380 	bic.w	r3, r3, #1024	; 0x400
 8001278:	6083      	str	r3, [r0, #8]
 800127a:	4770      	bx	lr
 800127c:	f443 6380 	orr.w	r3, r3, #1024	; 0x400
 8001280:	6083      	str	r3, [r0, #8]
 8001282:	4770      	bx	lr

08001284 <ADC_ContinuousModeCmd>:
 8001284:	6883      	ldr	r3, [r0, #8]
 8001286:	b919      	cbnz	r1, 8001290 <ADC_ContinuousModeCmd+0xc>
 8001288:	f023 0302 	bic.w	r3, r3, #2
 800128c:	6083      	str	r3, [r0, #8]
 800128e:	4770      	bx	lr
 8001290:	f043 0302 	orr.w	r3, r3, #2
 8001294:	6083      	str	r3, [r0, #8]
 8001296:	4770      	bx	lr

08001298 <ADC_DiscModeChannelCountConfig>:
 8001298:	6843      	ldr	r3, [r0, #4]
 800129a:	3901      	subs	r1, #1
 800129c:	f423 4360 	bic.w	r3, r3, #57344	; 0xe000
 80012a0:	ea43 3141 	orr.w	r1, r3, r1, lsl #13
 80012a4:	6041      	str	r1, [r0, #4]
 80012a6:	4770      	bx	lr

080012a8 <ADC_DiscModeCmd>:
 80012a8:	6843      	ldr	r3, [r0, #4]
 80012aa:	b919      	cbnz	r1, 80012b4 <ADC_DiscModeCmd+0xc>
 80012ac:	f423 6300 	bic.w	r3, r3, #2048	; 0x800
 80012b0:	6043      	str	r3, [r0, #4]
 80012b2:	4770      	bx	lr
 80012b4:	f443 6300 	orr.w	r3, r3, #2048	; 0x800
 80012b8:	6043      	str	r3, [r0, #4]
 80012ba:	4770      	bx	lr

080012bc <ADC_GetConversionValue>:
 80012bc:	6cc0      	ldr	r0, [r0, #76]	; 0x4c
 80012be:	b280      	uxth	r0, r0
 80012c0:	4770      	bx	lr
 80012c2:	bf00      	nop

080012c4 <ADC_GetMultiModeConversionValue>:
 80012c4:	f242 3308 	movw	r3, #8968	; 0x2308
 80012c8:	f2c4 0301 	movt	r3, #16385	; 0x4001
 80012cc:	6818      	ldr	r0, [r3, #0]
 80012ce:	4770      	bx	lr

080012d0 <ADC_DMACmd>:
 80012d0:	6883      	ldr	r3, [r0, #8]
 80012d2:	b919      	cbnz	r1, 80012dc <ADC_DMACmd+0xc>
 80012d4:	f423 7380 	bic.w	r3, r3, #256	; 0x100
 80012d8:	6083      	str	r3, [r0, #8]
 80012da:	4770      	bx	lr
 80012dc:	f443 7380 	orr.w	r3, r3, #256	; 0x100
 80012e0:	6083      	str	r3, [r0, #8]
 80012e2:	4770      	bx	lr

080012e4 <ADC_DMARequestAfterLastTransferCmd>:
 80012e4:	6883      	ldr	r3, [r0, #8]
 80012e6:	b919      	cbnz	r1, 80012f0 <ADC_DMARequestAfterLastTransferCmd+0xc>
 80012e8:	f423 7300 	bic.w	r3, r3, #512	; 0x200
 80012ec:	6083      	str	r3, [r0, #8]
 80012ee:	4770      	bx	lr
 80012f0:	f443 7300 	orr.w	r3, r3, #512	; 0x200
 80012f4:	6083      	str	r3, [r0, #8]
 80012f6:	4770      	bx	lr

080012f8 <ADC_MultiModeDMARequestAfterLastTransferCmd>:
 80012f8:	f44f 530c 	mov.w	r3, #8960	; 0x2300
 80012fc:	f2c4 0301 	movt	r3, #16385	; 0x4001
 8001300:	685a      	ldr	r2, [r3, #4]
 8001302:	b918      	cbnz	r0, 800130c <ADC_MultiModeDMARequestAfterLastTransferCmd+0x14>
 8001304:	f422 5200 	bic.w	r2, r2, #8192	; 0x2000
 8001308:	605a      	str	r2, [r3, #4]
 800130a:	4770      	bx	lr
 800130c:	f442 5200 	orr.w	r2, r2, #8192	; 0x2000
 8001310:	605a      	str	r2, [r3, #4]
 8001312:	4770      	bx	lr

08001314 <ADC_InjectedChannelConfig>:
 8001314:	2909      	cmp	r1, #9
 8001316:	b470      	push	{r4, r5, r6}
 8001318:	d81c      	bhi.n	8001354 <ADC_InjectedChannelConfig+0x40>
 800131a:	6906      	ldr	r6, [r0, #16]
 800131c:	eb01 0441 	add.w	r4, r1, r1, lsl #1
 8001320:	2507      	movs	r5, #7
 8001322:	40a5      	lsls	r5, r4
 8001324:	ea26 0505 	bic.w	r5, r6, r5
 8001328:	fa13 f404 	lsls.w	r4, r3, r4
 800132c:	ea45 0304 	orr.w	r3, r5, r4
 8001330:	6103      	str	r3, [r0, #16]
 8001332:	6b83      	ldr	r3, [r0, #56]	; 0x38
 8001334:	f3c3 5401 	ubfx	r4, r3, #20, #2
 8001338:	1b12      	subs	r2, r2, r4
 800133a:	3202      	adds	r2, #2
 800133c:	b2d2      	uxtb	r2, r2
 800133e:	eb02 0282 	add.w	r2, r2, r2, lsl #2
 8001342:	241f      	movs	r4, #31
 8001344:	4094      	lsls	r4, r2
 8001346:	ea23 0304 	bic.w	r3, r3, r4
 800134a:	4091      	lsls	r1, r2
 800134c:	430b      	orrs	r3, r1
 800134e:	6383      	str	r3, [r0, #56]	; 0x38
 8001350:	bc70      	pop	{r4, r5, r6}
 8001352:	4770      	bx	lr
 8001354:	eb01 0441 	add.w	r4, r1, r1, lsl #1
 8001358:	68c6      	ldr	r6, [r0, #12]
 800135a:	3c1e      	subs	r4, #30
 800135c:	2507      	movs	r5, #7
 800135e:	40a5      	lsls	r5, r4
 8001360:	ea26 0505 	bic.w	r5, r6, r5
 8001364:	fa13 f404 	lsls.w	r4, r3, r4
 8001368:	ea45 0304 	orr.w	r3, r5, r4
 800136c:	60c3      	str	r3, [r0, #12]
 800136e:	e7e0      	b.n	8001332 <ADC_InjectedChannelConfig+0x1e>

08001370 <ADC_InjectedSequencerLengthConfig>:
 8001370:	6b83      	ldr	r3, [r0, #56]	; 0x38
 8001372:	3901      	subs	r1, #1
 8001374:	f423 1340 	bic.w	r3, r3, #3145728	; 0x300000
 8001378:	ea43 5101 	orr.w	r1, r3, r1, lsl #20
 800137c:	6381      	str	r1, [r0, #56]	; 0x38
 800137e:	4770      	bx	lr

08001380 <ADC_SetInjectedOffset>:
 8001380:	b082      	sub	sp, #8
 8001382:	2300      	movs	r3, #0
 8001384:	9301      	str	r3, [sp, #4]
 8001386:	9001      	str	r0, [sp, #4]
 8001388:	9b01      	ldr	r3, [sp, #4]
 800138a:	18cb      	adds	r3, r1, r3
 800138c:	9301      	str	r3, [sp, #4]
 800138e:	9b01      	ldr	r3, [sp, #4]
 8001390:	601a      	str	r2, [r3, #0]
 8001392:	b002      	add	sp, #8
 8001394:	4770      	bx	lr
 8001396:	bf00      	nop

08001398 <ADC_ExternalTrigInjectedConvConfig>:
 8001398:	6883      	ldr	r3, [r0, #8]
 800139a:	f423 2370 	bic.w	r3, r3, #983040	; 0xf0000
 800139e:	430b      	orrs	r3, r1
 80013a0:	6083      	str	r3, [r0, #8]
 80013a2:	4770      	bx	lr

080013a4 <ADC_ExternalTrigInjectedConvEdgeConfig>:
 80013a4:	6883      	ldr	r3, [r0, #8]
 80013a6:	f423 1340 	bic.w	r3, r3, #3145728	; 0x300000
 80013aa:	430b      	orrs	r3, r1
 80013ac:	6083      	str	r3, [r0, #8]
 80013ae:	4770      	bx	lr

080013b0 <ADC_SoftwareStartInjectedConv>:
 80013b0:	6883      	ldr	r3, [r0, #8]
 80013b2:	f443 0380 	orr.w	r3, r3, #4194304	; 0x400000
 80013b6:	6083      	str	r3, [r0, #8]
 80013b8:	4770      	bx	lr
 80013ba:	bf00      	nop

080013bc <ADC_GetSoftwareStartInjectedConvCmdStatus>:
 80013bc:	6880      	ldr	r0, [r0, #8]
 80013be:	f3c0 5080 	ubfx	r0, r0, #22, #1
 80013c2:	4770      	bx	lr

080013c4 <ADC_AutoInjectedConvCmd>:
 80013c4:	6843      	ldr	r3, [r0, #4]
 80013c6:	b919      	cbnz	r1, 80013d0 <ADC_AutoInjectedConvCmd+0xc>
 80013c8:	f423 6380 	bic.w	r3, r3, #1024	; 0x400
 80013cc:	6043      	str	r3, [r0, #4]
 80013ce:	4770      	bx	lr
 80013d0:	f443 6380 	orr.w	r3, r3, #1024	; 0x400
 80013d4:	6043      	str	r3, [r0, #4]
 80013d6:	4770      	bx	lr

080013d8 <ADC_InjectedDiscModeCmd>:
 80013d8:	6843      	ldr	r3, [r0, #4]
 80013da:	b919      	cbnz	r1, 80013e4 <ADC_InjectedDiscModeCmd+0xc>
 80013dc:	f423 5380 	bic.w	r3, r3, #4096	; 0x1000
 80013e0:	6043      	str	r3, [r0, #4]
 80013e2:	4770      	bx	lr
 80013e4:	f443 5380 	orr.w	r3, r3, #4096	; 0x1000
 80013e8:	6043      	str	r3, [r0, #4]
 80013ea:	4770      	bx	lr

080013ec <ADC_GetInjectedConversionValue>:
 80013ec:	b082      	sub	sp, #8
 80013ee:	2300      	movs	r3, #0
 80013f0:	9301      	str	r3, [sp, #4]
 80013f2:	9001      	str	r0, [sp, #4]
 80013f4:	9b01      	ldr	r3, [sp, #4]
 80013f6:	3328      	adds	r3, #40	; 0x28
 80013f8:	185b      	adds	r3, r3, r1
 80013fa:	9301      	str	r3, [sp, #4]
 80013fc:	9b01      	ldr	r3, [sp, #4]
 80013fe:	6818      	ldr	r0, [r3, #0]
 8001400:	b280      	uxth	r0, r0
 8001402:	b002      	add	sp, #8
 8001404:	4770      	bx	lr
 8001406:	bf00      	nop

08001408 <ADC_ITConfig>:
 8001408:	2301      	movs	r3, #1
 800140a:	b2c9      	uxtb	r1, r1
 800140c:	fa13 f101 	lsls.w	r1, r3, r1
 8001410:	6843      	ldr	r3, [r0, #4]
 8001412:	b91a      	cbnz	r2, 800141c <ADC_ITConfig+0x14>
 8001414:	ea23 0101 	bic.w	r1, r3, r1
 8001418:	6041      	str	r1, [r0, #4]
 800141a:	4770      	bx	lr
 800141c:	4319      	orrs	r1, r3
 800141e:	6041      	str	r1, [r0, #4]
 8001420:	4770      	bx	lr
 8001422:	bf00      	nop

08001424 <ADC_GetFlagStatus>:
 8001424:	6803      	ldr	r3, [r0, #0]
 8001426:	4219      	tst	r1, r3
 8001428:	bf0c      	ite	eq
 800142a:	2000      	moveq	r0, #0
 800142c:	2001      	movne	r0, #1
 800142e:	4770      	bx	lr

08001430 <ADC_ClearFlag>:
 8001430:	43c9      	mvns	r1, r1
 8001432:	6001      	str	r1, [r0, #0]
 8001434:	4770      	bx	lr
 8001436:	bf00      	nop

08001438 <ADC_GetITStatus>:
 8001438:	6843      	ldr	r3, [r0, #4]
 800143a:	6800      	ldr	r0, [r0, #0]
 800143c:	ea10 2011 	ands.w	r0, r0, r1, lsr #8
 8001440:	d007      	beq.n	8001452 <ADC_GetITStatus+0x1a>
 8001442:	2201      	movs	r2, #1
 8001444:	b2c9      	uxtb	r1, r1
 8001446:	fa12 f101 	lsls.w	r1, r2, r1
 800144a:	4219      	tst	r1, r3
 800144c:	bf0c      	ite	eq
 800144e:	2000      	moveq	r0, #0
 8001450:	2001      	movne	r0, #1
 8001452:	4770      	bx	lr

08001454 <ADC_ClearITPendingBit>:
 8001454:	ea6f 2111 	mvn.w	r1, r1, lsr #8
 8001458:	6001      	str	r1, [r0, #0]
 800145a:	4770      	bx	lr

0800145c <CAN_DeInit>:
 800145c:	b508      	push	{r3, lr}
 800145e:	f44f 43c8 	mov.w	r3, #25600	; 0x6400
 8001462:	f2c4 0300 	movt	r3, #16384	; 0x4000
 8001466:	4298      	cmp	r0, r3
 8001468:	d00b      	beq.n	8001482 <CAN_DeInit+0x26>
 800146a:	2101      	movs	r1, #1
 800146c:	f04f 6080 	mov.w	r0, #67108864	; 0x4000000
 8001470:	f003 fcea 	bl	8004e48 <RCC_APB1PeriphResetCmd>
 8001474:	f04f 6080 	mov.w	r0, #67108864	; 0x4000000
 8001478:	2100      	movs	r1, #0
 800147a:	e8bd 4008 	ldmia.w	sp!, {r3, lr}
 800147e:	f003 bce3 	b.w	8004e48 <RCC_APB1PeriphResetCmd>
 8001482:	2101      	movs	r1, #1
 8001484:	f04f 7000 	mov.w	r0, #33554432	; 0x2000000
 8001488:	f003 fcde 	bl	8004e48 <RCC_APB1PeriphResetCmd>
 800148c:	f04f 7000 	mov.w	r0, #33554432	; 0x2000000
 8001490:	2100      	movs	r1, #0
 8001492:	e8bd 4008 	ldmia.w	sp!, {r3, lr}
 8001496:	f003 bcd7 	b.w	8004e48 <RCC_APB1PeriphResetCmd>
 800149a:	bf00      	nop

0800149c <CAN_Init>:
 800149c:	6803      	ldr	r3, [r0, #0]
 800149e:	f023 0302 	bic.w	r3, r3, #2
 80014a2:	b470      	push	{r4, r5, r6}
 80014a4:	6003      	str	r3, [r0, #0]
 80014a6:	6803      	ldr	r3, [r0, #0]
 80014a8:	f043 0301 	orr.w	r3, r3, #1
 80014ac:	6003      	str	r3, [r0, #0]
 80014ae:	6843      	ldr	r3, [r0, #4]
 80014b0:	07db      	lsls	r3, r3, #31
 80014b2:	d407      	bmi.n	80014c4 <CAN_Init+0x28>
 80014b4:	f64f 73ff 	movw	r3, #65535	; 0xffff
 80014b8:	e001      	b.n	80014be <CAN_Init+0x22>
 80014ba:	3b01      	subs	r3, #1
 80014bc:	d002      	beq.n	80014c4 <CAN_Init+0x28>
 80014be:	6842      	ldr	r2, [r0, #4]
 80014c0:	07d2      	lsls	r2, r2, #31
 80014c2:	d5fa      	bpl.n	80014ba <CAN_Init+0x1e>
 80014c4:	6843      	ldr	r3, [r0, #4]
 80014c6:	f013 0301 	ands.w	r3, r3, #1
 80014ca:	bf08      	it	eq
 80014cc:	4618      	moveq	r0, r3
 80014ce:	d059      	beq.n	8001584 <CAN_Init+0xe8>
 80014d0:	798b      	ldrb	r3, [r1, #6]
 80014d2:	2b01      	cmp	r3, #1
 80014d4:	6803      	ldr	r3, [r0, #0]
 80014d6:	bf0c      	ite	eq
 80014d8:	f043 0380 	orreq.w	r3, r3, #128	; 0x80
 80014dc:	f023 0380 	bicne.w	r3, r3, #128	; 0x80
 80014e0:	6003      	str	r3, [r0, #0]
 80014e2:	79cb      	ldrb	r3, [r1, #7]
 80014e4:	2b01      	cmp	r3, #1
 80014e6:	6803      	ldr	r3, [r0, #0]
 80014e8:	bf0c      	ite	eq
 80014ea:	f043 0340 	orreq.w	r3, r3, #64	; 0x40
 80014ee:	f023 0340 	bicne.w	r3, r3, #64	; 0x40
 80014f2:	6003      	str	r3, [r0, #0]
 80014f4:	7a0b      	ldrb	r3, [r1, #8]
 80014f6:	2b01      	cmp	r3, #1
 80014f8:	6803      	ldr	r3, [r0, #0]
 80014fa:	bf0c      	ite	eq
 80014fc:	f043 0320 	orreq.w	r3, r3, #32
 8001500:	f023 0320 	bicne.w	r3, r3, #32
 8001504:	6003      	str	r3, [r0, #0]
 8001506:	7a4b      	ldrb	r3, [r1, #9]
 8001508:	2b01      	cmp	r3, #1
 800150a:	6803      	ldr	r3, [r0, #0]
 800150c:	bf0c      	ite	eq
 800150e:	f043 0310 	orreq.w	r3, r3, #16
 8001512:	f023 0310 	bicne.w	r3, r3, #16
 8001516:	6003      	str	r3, [r0, #0]
 8001518:	7a8b      	ldrb	r3, [r1, #10]
 800151a:	2b01      	cmp	r3, #1
 800151c:	6803      	ldr	r3, [r0, #0]
 800151e:	bf0c      	ite	eq
 8001520:	f043 0308 	orreq.w	r3, r3, #8
 8001524:	f023 0308 	bicne.w	r3, r3, #8
 8001528:	6003      	str	r3, [r0, #0]
 800152a:	7acb      	ldrb	r3, [r1, #11]
 800152c:	2b01      	cmp	r3, #1
 800152e:	6803      	ldr	r3, [r0, #0]
 8001530:	bf0c      	ite	eq
 8001532:	f043 0304 	orreq.w	r3, r3, #4
 8001536:	f023 0304 	bicne.w	r3, r3, #4
 800153a:	6003      	str	r3, [r0, #0]
 800153c:	788a      	ldrb	r2, [r1, #2]
 800153e:	78ce      	ldrb	r6, [r1, #3]
 8001540:	790d      	ldrb	r5, [r1, #4]
 8001542:	794c      	ldrb	r4, [r1, #5]
 8001544:	880b      	ldrh	r3, [r1, #0]
 8001546:	0792      	lsls	r2, r2, #30
 8001548:	ea42 6206 	orr.w	r2, r2, r6, lsl #24
 800154c:	ea42 4205 	orr.w	r2, r2, r5, lsl #16
 8001550:	3b01      	subs	r3, #1
 8001552:	ea42 5204 	orr.w	r2, r2, r4, lsl #20
 8001556:	4313      	orrs	r3, r2
 8001558:	61c3      	str	r3, [r0, #28]
 800155a:	6803      	ldr	r3, [r0, #0]
 800155c:	f023 0301 	bic.w	r3, r3, #1
 8001560:	6003      	str	r3, [r0, #0]
 8001562:	6843      	ldr	r3, [r0, #4]
 8001564:	07d9      	lsls	r1, r3, #31
 8001566:	d507      	bpl.n	8001578 <CAN_Init+0xdc>
 8001568:	f64f 73ff 	movw	r3, #65535	; 0xffff
 800156c:	e001      	b.n	8001572 <CAN_Init+0xd6>
 800156e:	3b01      	subs	r3, #1
 8001570:	d002      	beq.n	8001578 <CAN_Init+0xdc>
 8001572:	6842      	ldr	r2, [r0, #4]
 8001574:	07d2      	lsls	r2, r2, #31
 8001576:	d4fa      	bmi.n	800156e <CAN_Init+0xd2>
 8001578:	6843      	ldr	r3, [r0, #4]
 800157a:	f013 0f01 	tst.w	r3, #1
 800157e:	bf14      	ite	ne
 8001580:	2000      	movne	r0, #0
 8001582:	2001      	moveq	r0, #1
 8001584:	bc70      	pop	{r4, r5, r6}
 8001586:	4770      	bx	lr

08001588 <CAN_FilterInit>:
 8001588:	f44f 43c8 	mov.w	r3, #25600	; 0x6400
 800158c:	f2c4 0300 	movt	r3, #16384	; 0x4000
 8001590:	7a82      	ldrb	r2, [r0, #10]
 8001592:	f8d3 1200 	ldr.w	r1, [r3, #512]	; 0x200
 8001596:	f041 0101 	orr.w	r1, r1, #1
 800159a:	b4f0      	push	{r4, r5, r6, r7}
 800159c:	f8c3 1200 	str.w	r1, [r3, #512]	; 0x200
 80015a0:	2401      	movs	r4, #1
 80015a2:	f8d3 121c 	ldr.w	r1, [r3, #540]	; 0x21c
 80015a6:	4094      	lsls	r4, r2
 80015a8:	43e2      	mvns	r2, r4
 80015aa:	4011      	ands	r1, r2
 80015ac:	f8c3 121c 	str.w	r1, [r3, #540]	; 0x21c
 80015b0:	7b01      	ldrb	r1, [r0, #12]
 80015b2:	b9d1      	cbnz	r1, 80015ea <CAN_FilterInit+0x62>
 80015b4:	f8d3 620c 	ldr.w	r6, [r3, #524]	; 0x20c
 80015b8:	f8b0 c006 	ldrh.w	ip, [r0, #6]
 80015bc:	8847      	ldrh	r7, [r0, #2]
 80015be:	8885      	ldrh	r5, [r0, #4]
 80015c0:	8801      	ldrh	r1, [r0, #0]
 80015c2:	4016      	ands	r6, r2
 80015c4:	f8c3 620c 	str.w	r6, [r3, #524]	; 0x20c
 80015c8:	7a86      	ldrb	r6, [r0, #10]
 80015ca:	3648      	adds	r6, #72	; 0x48
 80015cc:	ea47 470c 	orr.w	r7, r7, ip, lsl #16
 80015d0:	f843 7036 	str.w	r7, [r3, r6, lsl #3]
 80015d4:	7a86      	ldrb	r6, [r0, #10]
 80015d6:	f246 6340 	movw	r3, #26176	; 0x6640
 80015da:	00f6      	lsls	r6, r6, #3
 80015dc:	f2c4 0300 	movt	r3, #16384	; 0x4000
 80015e0:	18f3      	adds	r3, r6, r3
 80015e2:	ea41 4105 	orr.w	r1, r1, r5, lsl #16
 80015e6:	6059      	str	r1, [r3, #4]
 80015e8:	7b01      	ldrb	r1, [r0, #12]
 80015ea:	2901      	cmp	r1, #1
 80015ec:	d049      	beq.n	8001682 <CAN_FilterInit+0xfa>
 80015ee:	7ac3      	ldrb	r3, [r0, #11]
 80015f0:	2b00      	cmp	r3, #0
 80015f2:	d12d      	bne.n	8001650 <CAN_FilterInit+0xc8>
 80015f4:	f44f 43c8 	mov.w	r3, #25600	; 0x6400
 80015f8:	f2c4 0300 	movt	r3, #16384	; 0x4000
 80015fc:	f8d3 1204 	ldr.w	r1, [r3, #516]	; 0x204
 8001600:	4011      	ands	r1, r2
 8001602:	f8c3 1204 	str.w	r1, [r3, #516]	; 0x204
 8001606:	8903      	ldrh	r3, [r0, #8]
 8001608:	2b00      	cmp	r3, #0
 800160a:	d12d      	bne.n	8001668 <CAN_FilterInit+0xe0>
 800160c:	f44f 43c8 	mov.w	r3, #25600	; 0x6400
 8001610:	f2c4 0300 	movt	r3, #16384	; 0x4000
 8001614:	f8d3 1214 	ldr.w	r1, [r3, #532]	; 0x214
 8001618:	400a      	ands	r2, r1
 800161a:	f8c3 2214 	str.w	r2, [r3, #532]	; 0x214
 800161e:	7b43      	ldrb	r3, [r0, #13]
 8001620:	2b01      	cmp	r3, #1
 8001622:	bf01      	itttt	eq
 8001624:	f44f 43c8 	moveq.w	r3, #25600	; 0x6400
 8001628:	f2c4 0300 	movteq	r3, #16384	; 0x4000
 800162c:	f8d3 221c 	ldreq.w	r2, [r3, #540]	; 0x21c
 8001630:	4314      	orreq	r4, r2
 8001632:	bf08      	it	eq
 8001634:	f8c3 421c 	streq.w	r4, [r3, #540]	; 0x21c
 8001638:	f44f 43c8 	mov.w	r3, #25600	; 0x6400
 800163c:	f2c4 0300 	movt	r3, #16384	; 0x4000
 8001640:	f8d3 2200 	ldr.w	r2, [r3, #512]	; 0x200
 8001644:	f022 0201 	bic.w	r2, r2, #1
 8001648:	f8c3 2200 	str.w	r2, [r3, #512]	; 0x200
 800164c:	bcf0      	pop	{r4, r5, r6, r7}
 800164e:	4770      	bx	lr
 8001650:	f44f 43c8 	mov.w	r3, #25600	; 0x6400
 8001654:	f2c4 0300 	movt	r3, #16384	; 0x4000
 8001658:	f8d3 1204 	ldr.w	r1, [r3, #516]	; 0x204
 800165c:	4321      	orrs	r1, r4
 800165e:	f8c3 1204 	str.w	r1, [r3, #516]	; 0x204
 8001662:	8903      	ldrh	r3, [r0, #8]
 8001664:	2b00      	cmp	r3, #0
 8001666:	d0d1      	beq.n	800160c <CAN_FilterInit+0x84>
 8001668:	2b01      	cmp	r3, #1
 800166a:	bf01      	itttt	eq
 800166c:	f44f 43c8 	moveq.w	r3, #25600	; 0x6400
 8001670:	f2c4 0300 	movteq	r3, #16384	; 0x4000
 8001674:	f8d3 2214 	ldreq.w	r2, [r3, #532]	; 0x214
 8001678:	4322      	orreq	r2, r4
 800167a:	bf08      	it	eq
 800167c:	f8c3 2214 	streq.w	r2, [r3, #532]	; 0x214
 8001680:	e7cd      	b.n	800161e <CAN_FilterInit+0x96>
 8001682:	f44f 43c8 	mov.w	r3, #25600	; 0x6400
 8001686:	f2c4 0300 	movt	r3, #16384	; 0x4000
 800168a:	f8b0 c000 	ldrh.w	ip, [r0]
 800168e:	f8d3 620c 	ldr.w	r6, [r3, #524]	; 0x20c
 8001692:	8847      	ldrh	r7, [r0, #2]
 8001694:	8885      	ldrh	r5, [r0, #4]
 8001696:	88c1      	ldrh	r1, [r0, #6]
 8001698:	4326      	orrs	r6, r4
 800169a:	f8c3 620c 	str.w	r6, [r3, #524]	; 0x20c
 800169e:	7a86      	ldrb	r6, [r0, #10]
 80016a0:	3648      	adds	r6, #72	; 0x48
 80016a2:	ea47 470c 	orr.w	r7, r7, ip, lsl #16
 80016a6:	f843 7036 	str.w	r7, [r3, r6, lsl #3]
 80016aa:	7a86      	ldrb	r6, [r0, #10]
 80016ac:	f246 6340 	movw	r3, #26176	; 0x6640
 80016b0:	00f6      	lsls	r6, r6, #3
 80016b2:	f2c4 0300 	movt	r3, #16384	; 0x4000
 80016b6:	18f3      	adds	r3, r6, r3
 80016b8:	ea41 4105 	orr.w	r1, r1, r5, lsl #16
 80016bc:	6059      	str	r1, [r3, #4]
 80016be:	e796      	b.n	80015ee <CAN_FilterInit+0x66>

080016c0 <CAN_StructInit>:
 80016c0:	2300      	movs	r3, #0
 80016c2:	7183      	strb	r3, [r0, #6]
 80016c4:	71c3      	strb	r3, [r0, #7]
 80016c6:	7203      	strb	r3, [r0, #8]
 80016c8:	7243      	strb	r3, [r0, #9]
 80016ca:	7283      	strb	r3, [r0, #10]
 80016cc:	72c3      	strb	r3, [r0, #11]
 80016ce:	7083      	strb	r3, [r0, #2]
 80016d0:	70c3      	strb	r3, [r0, #3]
 80016d2:	2303      	movs	r3, #3
 80016d4:	7103      	strb	r3, [r0, #4]
 80016d6:	2302      	movs	r3, #2
 80016d8:	7143      	strb	r3, [r0, #5]
 80016da:	2301      	movs	r3, #1
 80016dc:	8003      	strh	r3, [r0, #0]
 80016de:	4770      	bx	lr

080016e0 <CAN_SlaveStartBank>:
 80016e0:	f44f 43c8 	mov.w	r3, #25600	; 0x6400
 80016e4:	f2c4 0300 	movt	r3, #16384	; 0x4000
 80016e8:	f8d3 2200 	ldr.w	r2, [r3, #512]	; 0x200
 80016ec:	f042 0201 	orr.w	r2, r2, #1
 80016f0:	f8c3 2200 	str.w	r2, [r3, #512]	; 0x200
 80016f4:	f8d3 2200 	ldr.w	r2, [r3, #512]	; 0x200
 80016f8:	f422 527c 	bic.w	r2, r2, #16128	; 0x3f00
 80016fc:	f022 020e 	bic.w	r2, r2, #14
 8001700:	f8c3 2200 	str.w	r2, [r3, #512]	; 0x200
 8001704:	f8d3 2200 	ldr.w	r2, [r3, #512]	; 0x200
 8001708:	ea42 2200 	orr.w	r2, r2, r0, lsl #8
 800170c:	f8c3 2200 	str.w	r2, [r3, #512]	; 0x200
 8001710:	f8d3 2200 	ldr.w	r2, [r3, #512]	; 0x200
 8001714:	f022 0201 	bic.w	r2, r2, #1
 8001718:	f8c3 2200 	str.w	r2, [r3, #512]	; 0x200
 800171c:	4770      	bx	lr
 800171e:	bf00      	nop

08001720 <CAN_DBGFreeze>:
 8001720:	6803      	ldr	r3, [r0, #0]
 8001722:	b919      	cbnz	r1, 800172c <CAN_DBGFreeze+0xc>
 8001724:	f423 3380 	bic.w	r3, r3, #65536	; 0x10000
 8001728:	6003      	str	r3, [r0, #0]
 800172a:	4770      	bx	lr
 800172c:	f443 3380 	orr.w	r3, r3, #65536	; 0x10000
 8001730:	6003      	str	r3, [r0, #0]
 8001732:	4770      	bx	lr

08001734 <CAN_TTComModeCmd>:
 8001734:	6803      	ldr	r3, [r0, #0]
 8001736:	b9a9      	cbnz	r1, 8001764 <CAN_TTComModeCmd+0x30>
 8001738:	f023 0380 	bic.w	r3, r3, #128	; 0x80
 800173c:	6003      	str	r3, [r0, #0]
 800173e:	f8d0 3184 	ldr.w	r3, [r0, #388]	; 0x184
 8001742:	f423 7380 	bic.w	r3, r3, #256	; 0x100
 8001746:	f8c0 3184 	str.w	r3, [r0, #388]	; 0x184
 800174a:	f8d0 3194 	ldr.w	r3, [r0, #404]	; 0x194
 800174e:	f423 7380 	bic.w	r3, r3, #256	; 0x100
 8001752:	f8c0 3194 	str.w	r3, [r0, #404]	; 0x194
 8001756:	f8d0 31a4 	ldr.w	r3, [r0, #420]	; 0x1a4
 800175a:	f423 7380 	bic.w	r3, r3, #256	; 0x100
 800175e:	f8c0 31a4 	str.w	r3, [r0, #420]	; 0x1a4
 8001762:	4770      	bx	lr
 8001764:	f043 0380 	orr.w	r3, r3, #128	; 0x80
 8001768:	6003      	str	r3, [r0, #0]
 800176a:	f8d0 3184 	ldr.w	r3, [r0, #388]	; 0x184
 800176e:	f443 7380 	orr.w	r3, r3, #256	; 0x100
 8001772:	f8c0 3184 	str.w	r3, [r0, #388]	; 0x184
 8001776:	f8d0 3194 	ldr.w	r3, [r0, #404]	; 0x194
 800177a:	f443 7380 	orr.w	r3, r3, #256	; 0x100
 800177e:	f8c0 3194 	str.w	r3, [r0, #404]	; 0x194
 8001782:	f8d0 31a4 	ldr.w	r3, [r0, #420]	; 0x1a4
 8001786:	f443 7380 	orr.w	r3, r3, #256	; 0x100
 800178a:	f8c0 31a4 	str.w	r3, [r0, #420]	; 0x1a4
 800178e:	4770      	bx	lr

08001790 <CAN_Transmit>:
 8001790:	6882      	ldr	r2, [r0, #8]
 8001792:	0152      	lsls	r2, r2, #5
 8001794:	e92d 01f0 	stmdb	sp!, {r4, r5, r6, r7, r8}
 8001798:	4603      	mov	r3, r0
 800179a:	d405      	bmi.n	80017a8 <CAN_Transmit+0x18>
 800179c:	6882      	ldr	r2, [r0, #8]
 800179e:	0110      	lsls	r0, r2, #4
 80017a0:	d554      	bpl.n	800184c <CAN_Transmit+0xbc>
 80017a2:	2501      	movs	r5, #1
 80017a4:	4628      	mov	r0, r5
 80017a6:	e001      	b.n	80017ac <CAN_Transmit+0x1c>
 80017a8:	2500      	movs	r5, #0
 80017aa:	4628      	mov	r0, r5
 80017ac:	f105 0418 	add.w	r4, r5, #24
 80017b0:	0122      	lsls	r2, r4, #4
 80017b2:	589e      	ldr	r6, [r3, r2]
 80017b4:	f006 0601 	and.w	r6, r6, #1
 80017b8:	509e      	str	r6, [r3, r2]
 80017ba:	7a0e      	ldrb	r6, [r1, #8]
 80017bc:	2e00      	cmp	r6, #0
 80017be:	d03c      	beq.n	800183a <CAN_Transmit+0xaa>
 80017c0:	f8d1 8004 	ldr.w	r8, [r1, #4]
 80017c4:	f853 c002 	ldr.w	ip, [r3, r2]
 80017c8:	7a4f      	ldrb	r7, [r1, #9]
 80017ca:	ea46 06c8 	orr.w	r6, r6, r8, lsl #3
 80017ce:	ea46 060c 	orr.w	r6, r6, ip
 80017d2:	433e      	orrs	r6, r7
 80017d4:	509e      	str	r6, [r3, r2]
 80017d6:	7a8e      	ldrb	r6, [r1, #10]
 80017d8:	0124      	lsls	r4, r4, #4
 80017da:	191a      	adds	r2, r3, r4
 80017dc:	f006 060f 	and.w	r6, r6, #15
 80017e0:	728e      	strb	r6, [r1, #10]
 80017e2:	6856      	ldr	r6, [r2, #4]
 80017e4:	f026 060f 	bic.w	r6, r6, #15
 80017e8:	6056      	str	r6, [r2, #4]
 80017ea:	6856      	ldr	r6, [r2, #4]
 80017ec:	7a8f      	ldrb	r7, [r1, #10]
 80017ee:	433e      	orrs	r6, r7
 80017f0:	6056      	str	r6, [r2, #4]
 80017f2:	7b4a      	ldrb	r2, [r1, #13]
 80017f4:	f891 c00e 	ldrb.w	ip, [r1, #14]
 80017f8:	7acf      	ldrb	r7, [r1, #11]
 80017fa:	7b0e      	ldrb	r6, [r1, #12]
 80017fc:	0412      	lsls	r2, r2, #16
 80017fe:	ea42 620c 	orr.w	r2, r2, ip, lsl #24
 8001802:	eb03 1505 	add.w	r5, r3, r5, lsl #4
 8001806:	433a      	orrs	r2, r7
 8001808:	ea42 2206 	orr.w	r2, r2, r6, lsl #8
 800180c:	f8c5 2188 	str.w	r2, [r5, #392]	; 0x188
 8001810:	7c4a      	ldrb	r2, [r1, #17]
 8001812:	7c8f      	ldrb	r7, [r1, #18]
 8001814:	7bce      	ldrb	r6, [r1, #15]
 8001816:	7c09      	ldrb	r1, [r1, #16]
 8001818:	0412      	lsls	r2, r2, #16
 800181a:	ea42 6207 	orr.w	r2, r2, r7, lsl #24
 800181e:	4332      	orrs	r2, r6
 8001820:	ea42 2201 	orr.w	r2, r2, r1, lsl #8
 8001824:	f8c5 218c 	str.w	r2, [r5, #396]	; 0x18c
 8001828:	591a      	ldr	r2, [r3, r4]
 800182a:	f042 0201 	orr.w	r2, r2, #1
 800182e:	511a      	str	r2, [r3, r4]
 8001830:	f505 75c4 	add.w	r5, r5, #392	; 0x188
 8001834:	e8bd 01f0 	ldmia.w	sp!, {r4, r5, r6, r7, r8}
 8001838:	4770      	bx	lr
 800183a:	f8d1 c000 	ldr.w	ip, [r1]
 800183e:	7a4e      	ldrb	r6, [r1, #9]
 8001840:	589f      	ldr	r7, [r3, r2]
 8001842:	ea46 564c 	orr.w	r6, r6, ip, lsl #21
 8001846:	433e      	orrs	r6, r7
 8001848:	509e      	str	r6, [r3, r2]
 800184a:	e7c4      	b.n	80017d6 <CAN_Transmit+0x46>
 800184c:	689a      	ldr	r2, [r3, #8]
 800184e:	00d2      	lsls	r2, r2, #3
 8001850:	d502      	bpl.n	8001858 <CAN_Transmit+0xc8>
 8001852:	2502      	movs	r5, #2
 8001854:	4628      	mov	r0, r5
 8001856:	e7a9      	b.n	80017ac <CAN_Transmit+0x1c>
 8001858:	2004      	movs	r0, #4
 800185a:	e7eb      	b.n	8001834 <CAN_Transmit+0xa4>

0800185c <CAN_TransmitStatus>:
 800185c:	2901      	cmp	r1, #1
 800185e:	d02a      	beq.n	80018b6 <CAN_TransmitStatus+0x5a>
 8001860:	d310      	bcc.n	8001884 <CAN_TransmitStatus+0x28>
 8001862:	2300      	movs	r3, #0
 8001864:	2902      	cmp	r1, #2
 8001866:	d104      	bne.n	8001872 <CAN_TransmitStatus+0x16>
 8001868:	6882      	ldr	r2, [r0, #8]
 800186a:	2300      	movs	r3, #0
 800186c:	f2c1 0303 	movt	r3, #4099	; 0x1003
 8001870:	4013      	ands	r3, r2
 8001872:	2203      	movs	r2, #3
 8001874:	f2c0 4200 	movt	r2, #1024	; 0x400
 8001878:	4293      	cmp	r3, r2
 800187a:	d00d      	beq.n	8001898 <CAN_TransmitStatus+0x3c>
 800187c:	d80e      	bhi.n	800189c <CAN_TransmitStatus+0x40>
 800187e:	b9c3      	cbnz	r3, 80018b2 <CAN_TransmitStatus+0x56>
 8001880:	2002      	movs	r0, #2
 8001882:	4770      	bx	lr
 8001884:	6882      	ldr	r2, [r0, #8]
 8001886:	2303      	movs	r3, #3
 8001888:	f2c0 4300 	movt	r3, #1024	; 0x400
 800188c:	4013      	ands	r3, r2
 800188e:	2203      	movs	r2, #3
 8001890:	f2c0 4200 	movt	r2, #1024	; 0x400
 8001894:	4293      	cmp	r3, r2
 8001896:	d1f1      	bne.n	800187c <CAN_TransmitStatus+0x20>
 8001898:	2001      	movs	r0, #1
 800189a:	4770      	bx	lr
 800189c:	f44f 7240 	mov.w	r2, #768	; 0x300
 80018a0:	f6c0 0200 	movt	r2, #2048	; 0x800
 80018a4:	4293      	cmp	r3, r2
 80018a6:	d0f7      	beq.n	8001898 <CAN_TransmitStatus+0x3c>
 80018a8:	2200      	movs	r2, #0
 80018aa:	f2c1 0203 	movt	r2, #4099	; 0x1003
 80018ae:	4293      	cmp	r3, r2
 80018b0:	d0f2      	beq.n	8001898 <CAN_TransmitStatus+0x3c>
 80018b2:	2000      	movs	r0, #0
 80018b4:	4770      	bx	lr
 80018b6:	6882      	ldr	r2, [r0, #8]
 80018b8:	f44f 7340 	mov.w	r3, #768	; 0x300
 80018bc:	f6c0 0300 	movt	r3, #2048	; 0x800
 80018c0:	4013      	ands	r3, r2
 80018c2:	e7d6      	b.n	8001872 <CAN_TransmitStatus+0x16>

080018c4 <CAN_CancelTransmit>:
 80018c4:	2901      	cmp	r1, #1
 80018c6:	d00c      	beq.n	80018e2 <CAN_CancelTransmit+0x1e>
 80018c8:	d306      	bcc.n	80018d8 <CAN_CancelTransmit+0x14>
 80018ca:	2902      	cmp	r1, #2
 80018cc:	d103      	bne.n	80018d6 <CAN_CancelTransmit+0x12>
 80018ce:	6883      	ldr	r3, [r0, #8]
 80018d0:	f443 0300 	orr.w	r3, r3, #8388608	; 0x800000
 80018d4:	6083      	str	r3, [r0, #8]
 80018d6:	4770      	bx	lr
 80018d8:	6883      	ldr	r3, [r0, #8]
 80018da:	f043 0380 	orr.w	r3, r3, #128	; 0x80
 80018de:	6083      	str	r3, [r0, #8]
 80018e0:	4770      	bx	lr
 80018e2:	6883      	ldr	r3, [r0, #8]
 80018e4:	f443 4300 	orr.w	r3, r3, #32768	; 0x8000
 80018e8:	6083      	str	r3, [r0, #8]
 80018ea:	4770      	bx	lr

080018ec <CAN_Receive>:
 80018ec:	f101 031b 	add.w	r3, r1, #27
 80018f0:	b430      	push	{r4, r5}
 80018f2:	011c      	lsls	r4, r3, #4
 80018f4:	5905      	ldr	r5, [r0, r4]
 80018f6:	f005 0504 	and.w	r5, r5, #4
 80018fa:	b2ed      	uxtb	r5, r5
 80018fc:	7215      	strb	r5, [r2, #8]
 80018fe:	5904      	ldr	r4, [r0, r4]
 8001900:	2d00      	cmp	r5, #0
 8001902:	d136      	bne.n	8001972 <CAN_Receive+0x86>
 8001904:	0d64      	lsrs	r4, r4, #21
 8001906:	6014      	str	r4, [r2, #0]
 8001908:	011b      	lsls	r3, r3, #4
 800190a:	18c4      	adds	r4, r0, r3
 800190c:	58c3      	ldr	r3, [r0, r3]
 800190e:	f003 0302 	and.w	r3, r3, #2
 8001912:	7253      	strb	r3, [r2, #9]
 8001914:	6863      	ldr	r3, [r4, #4]
 8001916:	f003 030f 	and.w	r3, r3, #15
 800191a:	7293      	strb	r3, [r2, #10]
 800191c:	6864      	ldr	r4, [r4, #4]
 800191e:	eb00 1301 	add.w	r3, r0, r1, lsl #4
 8001922:	0a24      	lsrs	r4, r4, #8
 8001924:	74d4      	strb	r4, [r2, #19]
 8001926:	f8d3 41b8 	ldr.w	r4, [r3, #440]	; 0x1b8
 800192a:	72d4      	strb	r4, [r2, #11]
 800192c:	f8d3 41b8 	ldr.w	r4, [r3, #440]	; 0x1b8
 8001930:	0a24      	lsrs	r4, r4, #8
 8001932:	7314      	strb	r4, [r2, #12]
 8001934:	f8d3 41b8 	ldr.w	r4, [r3, #440]	; 0x1b8
 8001938:	0c24      	lsrs	r4, r4, #16
 800193a:	7354      	strb	r4, [r2, #13]
 800193c:	f8d3 41b8 	ldr.w	r4, [r3, #440]	; 0x1b8
 8001940:	0e24      	lsrs	r4, r4, #24
 8001942:	7394      	strb	r4, [r2, #14]
 8001944:	f8d3 41bc 	ldr.w	r4, [r3, #444]	; 0x1bc
 8001948:	73d4      	strb	r4, [r2, #15]
 800194a:	f8d3 41bc 	ldr.w	r4, [r3, #444]	; 0x1bc
 800194e:	0a24      	lsrs	r4, r4, #8
 8001950:	7414      	strb	r4, [r2, #16]
 8001952:	f8d3 41bc 	ldr.w	r4, [r3, #444]	; 0x1bc
 8001956:	f503 73dc 	add.w	r3, r3, #440	; 0x1b8
 800195a:	0c24      	lsrs	r4, r4, #16
 800195c:	7454      	strb	r4, [r2, #17]
 800195e:	685b      	ldr	r3, [r3, #4]
 8001960:	0e1b      	lsrs	r3, r3, #24
 8001962:	7493      	strb	r3, [r2, #18]
 8001964:	b141      	cbz	r1, 8001978 <CAN_Receive+0x8c>
 8001966:	6903      	ldr	r3, [r0, #16]
 8001968:	f043 0320 	orr.w	r3, r3, #32
 800196c:	6103      	str	r3, [r0, #16]
 800196e:	bc30      	pop	{r4, r5}
 8001970:	4770      	bx	lr
 8001972:	08e4      	lsrs	r4, r4, #3
 8001974:	6054      	str	r4, [r2, #4]
 8001976:	e7c7      	b.n	8001908 <CAN_Receive+0x1c>
 8001978:	68c3      	ldr	r3, [r0, #12]
 800197a:	f043 0320 	orr.w	r3, r3, #32
 800197e:	60c3      	str	r3, [r0, #12]
 8001980:	e7f5      	b.n	800196e <CAN_Receive+0x82>
 8001982:	bf00      	nop

08001984 <CAN_FIFORelease>:
 8001984:	b121      	cbz	r1, 8001990 <CAN_FIFORelease+0xc>
 8001986:	6903      	ldr	r3, [r0, #16]
 8001988:	f043 0320 	orr.w	r3, r3, #32
 800198c:	6103      	str	r3, [r0, #16]
 800198e:	4770      	bx	lr
 8001990:	68c3      	ldr	r3, [r0, #12]
 8001992:	f043 0320 	orr.w	r3, r3, #32
 8001996:	60c3      	str	r3, [r0, #12]
 8001998:	4770      	bx	lr
 800199a:	bf00      	nop

0800199c <CAN_MessagePending>:
 800199c:	b131      	cbz	r1, 80019ac <CAN_MessagePending+0x10>
 800199e:	2901      	cmp	r1, #1
 80019a0:	bf06      	itte	eq
 80019a2:	6900      	ldreq	r0, [r0, #16]
 80019a4:	f000 0003 	andeq.w	r0, r0, #3
 80019a8:	2000      	movne	r0, #0
 80019aa:	4770      	bx	lr
 80019ac:	68c0      	ldr	r0, [r0, #12]
 80019ae:	f000 0003 	and.w	r0, r0, #3
 80019b2:	4770      	bx	lr

080019b4 <CAN_OperatingModeRequest>:
 80019b4:	b9f1      	cbnz	r1, 80019f4 <CAN_OperatingModeRequest+0x40>
 80019b6:	6803      	ldr	r3, [r0, #0]
 80019b8:	f023 0303 	bic.w	r3, r3, #3
 80019bc:	f043 0301 	orr.w	r3, r3, #1
 80019c0:	6003      	str	r3, [r0, #0]
 80019c2:	6843      	ldr	r3, [r0, #4]
 80019c4:	f003 0303 	and.w	r3, r3, #3
 80019c8:	2b01      	cmp	r3, #1
 80019ca:	d009      	beq.n	80019e0 <CAN_OperatingModeRequest+0x2c>
 80019cc:	f64f 73ff 	movw	r3, #65535	; 0xffff
 80019d0:	e001      	b.n	80019d6 <CAN_OperatingModeRequest+0x22>
 80019d2:	3b01      	subs	r3, #1
 80019d4:	d004      	beq.n	80019e0 <CAN_OperatingModeRequest+0x2c>
 80019d6:	6842      	ldr	r2, [r0, #4]
 80019d8:	f002 0203 	and.w	r2, r2, #3
 80019dc:	2a01      	cmp	r2, #1
 80019de:	d1f8      	bne.n	80019d2 <CAN_OperatingModeRequest+0x1e>
 80019e0:	6840      	ldr	r0, [r0, #4]
 80019e2:	f000 0003 	and.w	r0, r0, #3
 80019e6:	f1a0 0c01 	sub.w	ip, r0, #1
 80019ea:	f1dc 0000 	rsbs	r0, ip, #0
 80019ee:	eb40 000c 	adc.w	r0, r0, ip
 80019f2:	4770      	bx	lr
 80019f4:	2901      	cmp	r1, #1
 80019f6:	d003      	beq.n	8001a00 <CAN_OperatingModeRequest+0x4c>
 80019f8:	2902      	cmp	r1, #2
 80019fa:	d017      	beq.n	8001a2c <CAN_OperatingModeRequest+0x78>
 80019fc:	2000      	movs	r0, #0
 80019fe:	4770      	bx	lr
 8001a00:	6803      	ldr	r3, [r0, #0]
 8001a02:	f023 0303 	bic.w	r3, r3, #3
 8001a06:	6003      	str	r3, [r0, #0]
 8001a08:	6843      	ldr	r3, [r0, #4]
 8001a0a:	0799      	lsls	r1, r3, #30
 8001a0c:	d007      	beq.n	8001a1e <CAN_OperatingModeRequest+0x6a>
 8001a0e:	f64f 73ff 	movw	r3, #65535	; 0xffff
 8001a12:	e001      	b.n	8001a18 <CAN_OperatingModeRequest+0x64>
 8001a14:	3b01      	subs	r3, #1
 8001a16:	d002      	beq.n	8001a1e <CAN_OperatingModeRequest+0x6a>
 8001a18:	6842      	ldr	r2, [r0, #4]
 8001a1a:	0792      	lsls	r2, r2, #30
 8001a1c:	d1fa      	bne.n	8001a14 <CAN_OperatingModeRequest+0x60>
 8001a1e:	6843      	ldr	r3, [r0, #4]
 8001a20:	f013 0f03 	tst.w	r3, #3
 8001a24:	bf14      	ite	ne
 8001a26:	2000      	movne	r0, #0
 8001a28:	2001      	moveq	r0, #1
 8001a2a:	4770      	bx	lr
 8001a2c:	6803      	ldr	r3, [r0, #0]
 8001a2e:	f023 0303 	bic.w	r3, r3, #3
 8001a32:	f043 0302 	orr.w	r3, r3, #2
 8001a36:	6003      	str	r3, [r0, #0]
 8001a38:	6843      	ldr	r3, [r0, #4]
 8001a3a:	f003 0303 	and.w	r3, r3, #3
 8001a3e:	2b02      	cmp	r3, #2
 8001a40:	d009      	beq.n	8001a56 <CAN_OperatingModeRequest+0xa2>
 8001a42:	f64f 73ff 	movw	r3, #65535	; 0xffff
 8001a46:	e001      	b.n	8001a4c <CAN_OperatingModeRequest+0x98>
 8001a48:	3b01      	subs	r3, #1
 8001a4a:	d004      	beq.n	8001a56 <CAN_OperatingModeRequest+0xa2>
 8001a4c:	6842      	ldr	r2, [r0, #4]
 8001a4e:	f002 0203 	and.w	r2, r2, #3
 8001a52:	2a02      	cmp	r2, #2
 8001a54:	d1f8      	bne.n	8001a48 <CAN_OperatingModeRequest+0x94>
 8001a56:	6840      	ldr	r0, [r0, #4]
 8001a58:	f000 0003 	and.w	r0, r0, #3
 8001a5c:	f1a0 0102 	sub.w	r1, r0, #2
 8001a60:	4248      	negs	r0, r1
 8001a62:	eb40 0001 	adc.w	r0, r0, r1
 8001a66:	4770      	bx	lr

08001a68 <CAN_Sleep>:
 8001a68:	6803      	ldr	r3, [r0, #0]
 8001a6a:	f023 0303 	bic.w	r3, r3, #3
 8001a6e:	f043 0302 	orr.w	r3, r3, #2
 8001a72:	6003      	str	r3, [r0, #0]
 8001a74:	6840      	ldr	r0, [r0, #4]
 8001a76:	f000 0003 	and.w	r0, r0, #3
 8001a7a:	f1a0 0302 	sub.w	r3, r0, #2
 8001a7e:	4258      	negs	r0, r3
 8001a80:	eb40 0003 	adc.w	r0, r0, r3
 8001a84:	4770      	bx	lr
 8001a86:	bf00      	nop

08001a88 <CAN_WakeUp>:
 8001a88:	6803      	ldr	r3, [r0, #0]
 8001a8a:	f023 0302 	bic.w	r3, r3, #2
 8001a8e:	6003      	str	r3, [r0, #0]
 8001a90:	6843      	ldr	r3, [r0, #4]
 8001a92:	0799      	lsls	r1, r3, #30
 8001a94:	d507      	bpl.n	8001aa6 <CAN_WakeUp+0x1e>
 8001a96:	f64f 73ff 	movw	r3, #65535	; 0xffff
 8001a9a:	e001      	b.n	8001aa0 <CAN_WakeUp+0x18>
 8001a9c:	3b01      	subs	r3, #1
 8001a9e:	d002      	beq.n	8001aa6 <CAN_WakeUp+0x1e>
 8001aa0:	6842      	ldr	r2, [r0, #4]
 8001aa2:	0792      	lsls	r2, r2, #30
 8001aa4:	d4fa      	bmi.n	8001a9c <CAN_WakeUp+0x14>
 8001aa6:	6843      	ldr	r3, [r0, #4]
 8001aa8:	f013 0f02 	tst.w	r3, #2
 8001aac:	bf14      	ite	ne
 8001aae:	2000      	movne	r0, #0
 8001ab0:	2001      	moveq	r0, #1
 8001ab2:	4770      	bx	lr

08001ab4 <CAN_GetLastErrorCode>:
 8001ab4:	6980      	ldr	r0, [r0, #24]
 8001ab6:	f000 0070 	and.w	r0, r0, #112	; 0x70
 8001aba:	4770      	bx	lr

08001abc <CAN_GetReceiveErrorCounter>:
 8001abc:	6980      	ldr	r0, [r0, #24]
 8001abe:	0e00      	lsrs	r0, r0, #24
 8001ac0:	4770      	bx	lr
 8001ac2:	bf00      	nop

08001ac4 <CAN_GetLSBTransmitErrorCounter>:
 8001ac4:	6980      	ldr	r0, [r0, #24]
 8001ac6:	f3c0 4007 	ubfx	r0, r0, #16, #8
 8001aca:	4770      	bx	lr

08001acc <CAN_ITConfig>:
 8001acc:	6943      	ldr	r3, [r0, #20]
 8001ace:	b91a      	cbnz	r2, 8001ad8 <CAN_ITConfig+0xc>
 8001ad0:	ea23 0101 	bic.w	r1, r3, r1
 8001ad4:	6141      	str	r1, [r0, #20]
 8001ad6:	4770      	bx	lr
 8001ad8:	4319      	orrs	r1, r3
 8001ada:	6141      	str	r1, [r0, #20]
 8001adc:	4770      	bx	lr
 8001ade:	bf00      	nop

08001ae0 <CAN_GetFlagStatus>:
 8001ae0:	f411 0f70 	tst.w	r1, #15728640	; 0xf00000
 8001ae4:	d009      	beq.n	8001afa <CAN_GetFlagStatus+0x1a>
 8001ae6:	6983      	ldr	r3, [r0, #24]
 8001ae8:	f023 437f 	bic.w	r3, r3, #4278190080	; 0xff000000
 8001aec:	f423 0370 	bic.w	r3, r3, #15728640	; 0xf00000
 8001af0:	420b      	tst	r3, r1
 8001af2:	bf0c      	ite	eq
 8001af4:	2000      	moveq	r0, #0
 8001af6:	2001      	movne	r0, #1
 8001af8:	4770      	bx	lr
 8001afa:	01cb      	lsls	r3, r1, #7
 8001afc:	d509      	bpl.n	8001b12 <CAN_GetFlagStatus+0x32>
 8001afe:	6843      	ldr	r3, [r0, #4]
 8001b00:	f023 437f 	bic.w	r3, r3, #4278190080	; 0xff000000
 8001b04:	f423 0370 	bic.w	r3, r3, #15728640	; 0xf00000
 8001b08:	420b      	tst	r3, r1
 8001b0a:	bf0c      	ite	eq
 8001b0c:	2000      	moveq	r0, #0
 8001b0e:	2001      	movne	r0, #1
 8001b10:	4770      	bx	lr
 8001b12:	010a      	lsls	r2, r1, #4
 8001b14:	d40b      	bmi.n	8001b2e <CAN_GetFlagStatus+0x4e>
 8001b16:	018b      	lsls	r3, r1, #6
 8001b18:	d513      	bpl.n	8001b42 <CAN_GetFlagStatus+0x62>
 8001b1a:	68c3      	ldr	r3, [r0, #12]
 8001b1c:	f023 437f 	bic.w	r3, r3, #4278190080	; 0xff000000
 8001b20:	f423 0370 	bic.w	r3, r3, #15728640	; 0xf00000
 8001b24:	420b      	tst	r3, r1
 8001b26:	bf0c      	ite	eq
 8001b28:	2000      	moveq	r0, #0
 8001b2a:	2001      	movne	r0, #1
 8001b2c:	4770      	bx	lr
 8001b2e:	6883      	ldr	r3, [r0, #8]
 8001b30:	f023 437f 	bic.w	r3, r3, #4278190080	; 0xff000000
 8001b34:	f423 0370 	bic.w	r3, r3, #15728640	; 0xf00000
 8001b38:	420b      	tst	r3, r1
 8001b3a:	bf0c      	ite	eq
 8001b3c:	2000      	moveq	r0, #0
 8001b3e:	2001      	movne	r0, #1
 8001b40:	4770      	bx	lr
 8001b42:	6903      	ldr	r3, [r0, #16]
 8001b44:	f023 437f 	bic.w	r3, r3, #4278190080	; 0xff000000
 8001b48:	f423 0370 	bic.w	r3, r3, #15728640	; 0xf00000
 8001b4c:	420b      	tst	r3, r1
 8001b4e:	bf0c      	ite	eq
 8001b50:	2000      	moveq	r0, #0
 8001b52:	2001      	movne	r0, #1
 8001b54:	4770      	bx	lr
 8001b56:	bf00      	nop

08001b58 <CAN_ClearFlag>:
 8001b58:	2370      	movs	r3, #112	; 0x70
 8001b5a:	f2c3 03f0 	movt	r3, #12528	; 0x30f0
 8001b5e:	4299      	cmp	r1, r3
 8001b60:	d00e      	beq.n	8001b80 <CAN_ClearFlag+0x28>
 8001b62:	f021 437f 	bic.w	r3, r1, #4278190080	; 0xff000000
 8001b66:	018a      	lsls	r2, r1, #6
 8001b68:	f423 0370 	bic.w	r3, r3, #15728640	; 0xf00000
 8001b6c:	d406      	bmi.n	8001b7c <CAN_ClearFlag+0x24>
 8001b6e:	014a      	lsls	r2, r1, #5
 8001b70:	d409      	bmi.n	8001b86 <CAN_ClearFlag+0x2e>
 8001b72:	010a      	lsls	r2, r1, #4
 8001b74:	bf4c      	ite	mi
 8001b76:	6083      	strmi	r3, [r0, #8]
 8001b78:	6043      	strpl	r3, [r0, #4]
 8001b7a:	4770      	bx	lr
 8001b7c:	60c3      	str	r3, [r0, #12]
 8001b7e:	4770      	bx	lr
 8001b80:	2300      	movs	r3, #0
 8001b82:	6183      	str	r3, [r0, #24]
 8001b84:	4770      	bx	lr
 8001b86:	6103      	str	r3, [r0, #16]
 8001b88:	4770      	bx	lr
 8001b8a:	bf00      	nop

08001b8c <CAN_GetITStatus>:
 8001b8c:	6943      	ldr	r3, [r0, #20]
 8001b8e:	400b      	ands	r3, r1
 8001b90:	d00b      	beq.n	8001baa <CAN_GetITStatus+0x1e>
 8001b92:	2940      	cmp	r1, #64	; 0x40
 8001b94:	d033      	beq.n	8001bfe <CAN_GetITStatus+0x72>
 8001b96:	d80a      	bhi.n	8001bae <CAN_GetITStatus+0x22>
 8001b98:	2904      	cmp	r1, #4
 8001b9a:	d03b      	beq.n	8001c14 <CAN_GetITStatus+0x88>
 8001b9c:	d825      	bhi.n	8001bea <CAN_GetITStatus+0x5e>
 8001b9e:	2901      	cmp	r1, #1
 8001ba0:	d04e      	beq.n	8001c40 <CAN_GetITStatus+0xb4>
 8001ba2:	2902      	cmp	r1, #2
 8001ba4:	d042      	beq.n	8001c2c <CAN_GetITStatus+0xa0>
 8001ba6:	2000      	movs	r0, #0
 8001ba8:	4770      	bx	lr
 8001baa:	4618      	mov	r0, r3
 8001bac:	4770      	bx	lr
 8001bae:	f5b1 6f00 	cmp.w	r1, #2048	; 0x800
 8001bb2:	d028      	beq.n	8001c06 <CAN_GetITStatus+0x7a>
 8001bb4:	d80c      	bhi.n	8001bd0 <CAN_GetITStatus+0x44>
 8001bb6:	f5b1 7f00 	cmp.w	r1, #512	; 0x200
 8001bba:	d04e      	beq.n	8001c5a <CAN_GetITStatus+0xce>
 8001bbc:	f5b1 6f80 	cmp.w	r1, #1024	; 0x400
 8001bc0:	d030      	beq.n	8001c24 <CAN_GetITStatus+0x98>
 8001bc2:	f5b1 7f80 	cmp.w	r1, #256	; 0x100
 8001bc6:	d1ee      	bne.n	8001ba6 <CAN_GetITStatus+0x1a>
 8001bc8:	6980      	ldr	r0, [r0, #24]
 8001bca:	f000 0001 	and.w	r0, r0, #1
 8001bce:	4770      	bx	lr
 8001bd0:	f5b1 3f80 	cmp.w	r1, #65536	; 0x10000
 8001bd4:	d03d      	beq.n	8001c52 <CAN_GetITStatus+0xc6>
 8001bd6:	f5b1 3f00 	cmp.w	r1, #131072	; 0x20000
 8001bda:	d02d      	beq.n	8001c38 <CAN_GetITStatus+0xac>
 8001bdc:	f5b1 4f00 	cmp.w	r1, #32768	; 0x8000
 8001be0:	d1e1      	bne.n	8001ba6 <CAN_GetITStatus+0x1a>
 8001be2:	6840      	ldr	r0, [r0, #4]
 8001be4:	f3c0 0080 	ubfx	r0, r0, #2, #1
 8001be8:	4770      	bx	lr
 8001bea:	2910      	cmp	r1, #16
 8001bec:	d039      	beq.n	8001c62 <CAN_GetITStatus+0xd6>
 8001bee:	2920      	cmp	r1, #32
 8001bf0:	d014      	beq.n	8001c1c <CAN_GetITStatus+0x90>
 8001bf2:	2908      	cmp	r1, #8
 8001bf4:	d1d7      	bne.n	8001ba6 <CAN_GetITStatus+0x1a>
 8001bf6:	68c0      	ldr	r0, [r0, #12]
 8001bf8:	f3c0 1000 	ubfx	r0, r0, #4, #1
 8001bfc:	4770      	bx	lr
 8001bfe:	6900      	ldr	r0, [r0, #16]
 8001c00:	f3c0 1000 	ubfx	r0, r0, #4, #1
 8001c04:	4770      	bx	lr
 8001c06:	6983      	ldr	r3, [r0, #24]
 8001c08:	f013 0f70 	tst.w	r3, #112	; 0x70
 8001c0c:	bf0c      	ite	eq
 8001c0e:	2000      	moveq	r0, #0
 8001c10:	2001      	movne	r0, #1
 8001c12:	4770      	bx	lr
 8001c14:	68c0      	ldr	r0, [r0, #12]
 8001c16:	f3c0 00c0 	ubfx	r0, r0, #3, #1
 8001c1a:	4770      	bx	lr
 8001c1c:	6900      	ldr	r0, [r0, #16]
 8001c1e:	f3c0 00c0 	ubfx	r0, r0, #3, #1
 8001c22:	4770      	bx	lr
 8001c24:	6980      	ldr	r0, [r0, #24]
 8001c26:	f3c0 0080 	ubfx	r0, r0, #2, #1
 8001c2a:	4770      	bx	lr
 8001c2c:	68c0      	ldr	r0, [r0, #12]
 8001c2e:	f010 0003 	ands.w	r0, r0, #3
 8001c32:	bf18      	it	ne
 8001c34:	2001      	movne	r0, #1
 8001c36:	4770      	bx	lr
 8001c38:	6840      	ldr	r0, [r0, #4]
 8001c3a:	f3c0 1000 	ubfx	r0, r0, #4, #1
 8001c3e:	4770      	bx	lr
 8001c40:	6880      	ldr	r0, [r0, #8]
 8001c42:	f000 3001 	and.w	r0, r0, #16843009	; 0x1010101
 8001c46:	f020 7080 	bic.w	r0, r0, #16777216	; 0x1000000
 8001c4a:	3000      	adds	r0, #0
 8001c4c:	bf18      	it	ne
 8001c4e:	2001      	movne	r0, #1
 8001c50:	4770      	bx	lr
 8001c52:	6840      	ldr	r0, [r0, #4]
 8001c54:	f3c0 00c0 	ubfx	r0, r0, #3, #1
 8001c58:	4770      	bx	lr
 8001c5a:	6980      	ldr	r0, [r0, #24]
 8001c5c:	f3c0 0040 	ubfx	r0, r0, #1, #1
 8001c60:	4770      	bx	lr
 8001c62:	6900      	ldr	r0, [r0, #16]
 8001c64:	f010 0003 	ands.w	r0, r0, #3
 8001c68:	bf18      	it	ne
 8001c6a:	2001      	movne	r0, #1
 8001c6c:	4770      	bx	lr
 8001c6e:	bf00      	nop

08001c70 <CAN_ClearITPendingBit>:
 8001c70:	f5b1 7f80 	cmp.w	r1, #256	; 0x100
 8001c74:	d01e      	beq.n	8001cb4 <CAN_ClearITPendingBit+0x44>
 8001c76:	d911      	bls.n	8001c9c <CAN_ClearITPendingBit+0x2c>
 8001c78:	f5b1 6f00 	cmp.w	r1, #2048	; 0x800
 8001c7c:	d018      	beq.n	8001cb0 <CAN_ClearITPendingBit+0x40>
 8001c7e:	d91c      	bls.n	8001cba <CAN_ClearITPendingBit+0x4a>
 8001c80:	f5b1 3f80 	cmp.w	r1, #65536	; 0x10000
 8001c84:	d036      	beq.n	8001cf4 <CAN_ClearITPendingBit+0x84>
 8001c86:	f5b1 3f00 	cmp.w	r1, #131072	; 0x20000
 8001c8a:	d030      	beq.n	8001cee <CAN_ClearITPendingBit+0x7e>
 8001c8c:	f5b1 4f00 	cmp.w	r1, #32768	; 0x8000
 8001c90:	d119      	bne.n	8001cc6 <CAN_ClearITPendingBit+0x56>
 8001c92:	2300      	movs	r3, #0
 8001c94:	6183      	str	r3, [r0, #24]
 8001c96:	2304      	movs	r3, #4
 8001c98:	6043      	str	r3, [r0, #4]
 8001c9a:	e014      	b.n	8001cc6 <CAN_ClearITPendingBit+0x56>
 8001c9c:	2908      	cmp	r1, #8
 8001c9e:	d01d      	beq.n	8001cdc <CAN_ClearITPendingBit+0x6c>
 8001ca0:	d912      	bls.n	8001cc8 <CAN_ClearITPendingBit+0x58>
 8001ca2:	2920      	cmp	r1, #32
 8001ca4:	d017      	beq.n	8001cd6 <CAN_ClearITPendingBit+0x66>
 8001ca6:	2940      	cmp	r1, #64	; 0x40
 8001ca8:	d10d      	bne.n	8001cc6 <CAN_ClearITPendingBit+0x56>
 8001caa:	2310      	movs	r3, #16
 8001cac:	6103      	str	r3, [r0, #16]
 8001cae:	4770      	bx	lr
 8001cb0:	2300      	movs	r3, #0
 8001cb2:	6183      	str	r3, [r0, #24]
 8001cb4:	2304      	movs	r3, #4
 8001cb6:	6043      	str	r3, [r0, #4]
 8001cb8:	4770      	bx	lr
 8001cba:	f5b1 7f00 	cmp.w	r1, #512	; 0x200
 8001cbe:	d0f9      	beq.n	8001cb4 <CAN_ClearITPendingBit+0x44>
 8001cc0:	f5b1 6f80 	cmp.w	r1, #1024	; 0x400
 8001cc4:	d0f6      	beq.n	8001cb4 <CAN_ClearITPendingBit+0x44>
 8001cc6:	4770      	bx	lr
 8001cc8:	2901      	cmp	r1, #1
 8001cca:	d00a      	beq.n	8001ce2 <CAN_ClearITPendingBit+0x72>
 8001ccc:	2904      	cmp	r1, #4
 8001cce:	d1fa      	bne.n	8001cc6 <CAN_ClearITPendingBit+0x56>
 8001cd0:	2308      	movs	r3, #8
 8001cd2:	60c3      	str	r3, [r0, #12]
 8001cd4:	4770      	bx	lr
 8001cd6:	2308      	movs	r3, #8
 8001cd8:	6103      	str	r3, [r0, #16]
 8001cda:	4770      	bx	lr
 8001cdc:	2310      	movs	r3, #16
 8001cde:	60c3      	str	r3, [r0, #12]
 8001ce0:	4770      	bx	lr
 8001ce2:	f240 1301 	movw	r3, #257	; 0x101
 8001ce6:	f361 431f 	bfi	r3, r1, #16, #16
 8001cea:	6083      	str	r3, [r0, #8]
 8001cec:	4770      	bx	lr
 8001cee:	2310      	movs	r3, #16
 8001cf0:	6043      	str	r3, [r0, #4]
 8001cf2:	4770      	bx	lr
 8001cf4:	2308      	movs	r3, #8
 8001cf6:	6043      	str	r3, [r0, #4]
 8001cf8:	4770      	bx	lr
 8001cfa:	bf00      	nop

08001cfc <CRC_ResetDR>:
 8001cfc:	f44f 5340 	mov.w	r3, #12288	; 0x3000
 8001d00:	f2c4 0302 	movt	r3, #16386	; 0x4002
 8001d04:	2201      	movs	r2, #1
 8001d06:	609a      	str	r2, [r3, #8]
 8001d08:	4770      	bx	lr
 8001d0a:	bf00      	nop

08001d0c <CRC_CalcCRC>:
 8001d0c:	f44f 5340 	mov.w	r3, #12288	; 0x3000
 8001d10:	f2c4 0302 	movt	r3, #16386	; 0x4002
 8001d14:	6018      	str	r0, [r3, #0]
 8001d16:	6818      	ldr	r0, [r3, #0]
 8001d18:	4770      	bx	lr
 8001d1a:	bf00      	nop

08001d1c <CRC_CalcBlockCRC>:
 8001d1c:	b410      	push	{r4}
 8001d1e:	b159      	cbz	r1, 8001d38 <CRC_CalcBlockCRC+0x1c>
 8001d20:	f44f 5440 	mov.w	r4, #12288	; 0x3000
 8001d24:	3804      	subs	r0, #4
 8001d26:	2300      	movs	r3, #0
 8001d28:	f2c4 0402 	movt	r4, #16386	; 0x4002
 8001d2c:	f850 2f04 	ldr.w	r2, [r0, #4]!
 8001d30:	3301      	adds	r3, #1
 8001d32:	428b      	cmp	r3, r1
 8001d34:	6022      	str	r2, [r4, #0]
 8001d36:	d1f9      	bne.n	8001d2c <CRC_CalcBlockCRC+0x10>
 8001d38:	f44f 5340 	mov.w	r3, #12288	; 0x3000
 8001d3c:	f2c4 0302 	movt	r3, #16386	; 0x4002
 8001d40:	6818      	ldr	r0, [r3, #0]
 8001d42:	bc10      	pop	{r4}
 8001d44:	4770      	bx	lr
 8001d46:	bf00      	nop

08001d48 <CRC_GetCRC>:
 8001d48:	f44f 5340 	mov.w	r3, #12288	; 0x3000
 8001d4c:	f2c4 0302 	movt	r3, #16386	; 0x4002
 8001d50:	6818      	ldr	r0, [r3, #0]
 8001d52:	4770      	bx	lr

08001d54 <CRC_SetIDRegister>:
 8001d54:	f44f 5340 	mov.w	r3, #12288	; 0x3000
 8001d58:	f2c4 0302 	movt	r3, #16386	; 0x4002
 8001d5c:	7118      	strb	r0, [r3, #4]
 8001d5e:	4770      	bx	lr

08001d60 <CRC_GetIDRegister>:
 8001d60:	f44f 5340 	mov.w	r3, #12288	; 0x3000
 8001d64:	f2c4 0302 	movt	r3, #16386	; 0x4002
 8001d68:	7918      	ldrb	r0, [r3, #4]
 8001d6a:	4770      	bx	lr

08001d6c <CRYP_DeInit>:
 8001d6c:	b508      	push	{r3, lr}
 8001d6e:	2010      	movs	r0, #16
 8001d70:	2101      	movs	r1, #1
 8001d72:	f003 f84d 	bl	8004e10 <RCC_AHB2PeriphResetCmd>
 8001d76:	2010      	movs	r0, #16
 8001d78:	2100      	movs	r1, #0
 8001d7a:	e8bd 4008 	ldmia.w	sp!, {r3, lr}
 8001d7e:	f003 b847 	b.w	8004e10 <RCC_AHB2PeriphResetCmd>
 8001d82:	bf00      	nop

08001d84 <CRYP_Init>:
 8001d84:	2300      	movs	r3, #0
 8001d86:	f2c5 0306 	movt	r3, #20486	; 0x5006
 8001d8a:	8842      	ldrh	r2, [r0, #2]
 8001d8c:	6819      	ldr	r1, [r3, #0]
 8001d8e:	f021 0138 	bic.w	r1, r1, #56	; 0x38
 8001d92:	b410      	push	{r4}
 8001d94:	8884      	ldrh	r4, [r0, #4]
 8001d96:	6019      	str	r1, [r3, #0]
 8001d98:	6819      	ldr	r1, [r3, #0]
 8001d9a:	4311      	orrs	r1, r2
 8001d9c:	6019      	str	r1, [r3, #0]
 8001d9e:	6819      	ldr	r1, [r3, #0]
 8001da0:	f021 01c0 	bic.w	r1, r1, #192	; 0xc0
 8001da4:	6019      	str	r1, [r3, #0]
 8001da6:	6819      	ldr	r1, [r3, #0]
 8001da8:	2a20      	cmp	r2, #32
 8001daa:	bf18      	it	ne
 8001dac:	2a28      	cmpne	r2, #40	; 0x28
 8001dae:	ea44 0101 	orr.w	r1, r4, r1
 8001db2:	6019      	str	r1, [r3, #0]
 8001db4:	d003      	beq.n	8001dbe <CRYP_Init+0x3a>
 8001db6:	2a30      	cmp	r2, #48	; 0x30
 8001db8:	d001      	beq.n	8001dbe <CRYP_Init+0x3a>
 8001dba:	2a38      	cmp	r2, #56	; 0x38
 8001dbc:	d10a      	bne.n	8001dd4 <CRYP_Init+0x50>
 8001dbe:	2300      	movs	r3, #0
 8001dc0:	f2c5 0306 	movt	r3, #20486	; 0x5006
 8001dc4:	88c1      	ldrh	r1, [r0, #6]
 8001dc6:	681a      	ldr	r2, [r3, #0]
 8001dc8:	f422 7240 	bic.w	r2, r2, #768	; 0x300
 8001dcc:	601a      	str	r2, [r3, #0]
 8001dce:	681a      	ldr	r2, [r3, #0]
 8001dd0:	430a      	orrs	r2, r1
 8001dd2:	601a      	str	r2, [r3, #0]
 8001dd4:	2300      	movs	r3, #0
 8001dd6:	f2c5 0306 	movt	r3, #20486	; 0x5006
 8001dda:	8801      	ldrh	r1, [r0, #0]
 8001ddc:	681a      	ldr	r2, [r3, #0]
 8001dde:	f022 0204 	bic.w	r2, r2, #4
 8001de2:	601a      	str	r2, [r3, #0]
 8001de4:	681a      	ldr	r2, [r3, #0]
 8001de6:	430a      	orrs	r2, r1
 8001de8:	601a      	str	r2, [r3, #0]
 8001dea:	bc10      	pop	{r4}
 8001dec:	4770      	bx	lr
 8001dee:	bf00      	nop

08001df0 <CRYP_StructInit>:
 8001df0:	2300      	movs	r3, #0
 8001df2:	8003      	strh	r3, [r0, #0]
 8001df4:	8043      	strh	r3, [r0, #2]
 8001df6:	8083      	strh	r3, [r0, #4]
 8001df8:	80c3      	strh	r3, [r0, #6]
 8001dfa:	4770      	bx	lr

08001dfc <CRYP_KeyInit>:
 8001dfc:	2300      	movs	r3, #0
 8001dfe:	6802      	ldr	r2, [r0, #0]
 8001e00:	f2c5 0306 	movt	r3, #20486	; 0x5006
 8001e04:	621a      	str	r2, [r3, #32]
 8001e06:	6842      	ldr	r2, [r0, #4]
 8001e08:	625a      	str	r2, [r3, #36]	; 0x24
 8001e0a:	6882      	ldr	r2, [r0, #8]
 8001e0c:	629a      	str	r2, [r3, #40]	; 0x28
 8001e0e:	68c2      	ldr	r2, [r0, #12]
 8001e10:	62da      	str	r2, [r3, #44]	; 0x2c
 8001e12:	6902      	ldr	r2, [r0, #16]
 8001e14:	631a      	str	r2, [r3, #48]	; 0x30
 8001e16:	6942      	ldr	r2, [r0, #20]
 8001e18:	635a      	str	r2, [r3, #52]	; 0x34
 8001e1a:	6982      	ldr	r2, [r0, #24]
 8001e1c:	639a      	str	r2, [r3, #56]	; 0x38
 8001e1e:	69c2      	ldr	r2, [r0, #28]
 8001e20:	63da      	str	r2, [r3, #60]	; 0x3c
 8001e22:	4770      	bx	lr

08001e24 <CRYP_KeyStructInit>:
 8001e24:	2300      	movs	r3, #0
 8001e26:	6003      	str	r3, [r0, #0]
 8001e28:	6043      	str	r3, [r0, #4]
 8001e2a:	6083      	str	r3, [r0, #8]
 8001e2c:	60c3      	str	r3, [r0, #12]
 8001e2e:	6103      	str	r3, [r0, #16]
 8001e30:	6143      	str	r3, [r0, #20]
 8001e32:	6183      	str	r3, [r0, #24]
 8001e34:	61c3      	str	r3, [r0, #28]
 8001e36:	4770      	bx	lr

08001e38 <CRYP_IVInit>:
 8001e38:	2300      	movs	r3, #0
 8001e3a:	6802      	ldr	r2, [r0, #0]
 8001e3c:	f2c5 0306 	movt	r3, #20486	; 0x5006
 8001e40:	641a      	str	r2, [r3, #64]	; 0x40
 8001e42:	6842      	ldr	r2, [r0, #4]
 8001e44:	645a      	str	r2, [r3, #68]	; 0x44
 8001e46:	6882      	ldr	r2, [r0, #8]
 8001e48:	649a      	str	r2, [r3, #72]	; 0x48
 8001e4a:	68c2      	ldr	r2, [r0, #12]
 8001e4c:	64da      	str	r2, [r3, #76]	; 0x4c
 8001e4e:	4770      	bx	lr

08001e50 <CRYP_IVStructInit>:
 8001e50:	2300      	movs	r3, #0
 8001e52:	6003      	str	r3, [r0, #0]
 8001e54:	6043      	str	r3, [r0, #4]
 8001e56:	6083      	str	r3, [r0, #8]
 8001e58:	60c3      	str	r3, [r0, #12]
 8001e5a:	4770      	bx	lr

08001e5c <CRYP_FIFOFlush>:
 8001e5c:	2300      	movs	r3, #0
 8001e5e:	f2c5 0306 	movt	r3, #20486	; 0x5006
 8001e62:	681a      	ldr	r2, [r3, #0]
 8001e64:	f442 4280 	orr.w	r2, r2, #16384	; 0x4000
 8001e68:	601a      	str	r2, [r3, #0]
 8001e6a:	4770      	bx	lr

08001e6c <CRYP_Cmd>:
 8001e6c:	2300      	movs	r3, #0
 8001e6e:	f2c5 0306 	movt	r3, #20486	; 0x5006
 8001e72:	681a      	ldr	r2, [r3, #0]
 8001e74:	b918      	cbnz	r0, 8001e7e <CRYP_Cmd+0x12>
 8001e76:	f422 4200 	bic.w	r2, r2, #32768	; 0x8000
 8001e7a:	601a      	str	r2, [r3, #0]
 8001e7c:	4770      	bx	lr
 8001e7e:	f442 4200 	orr.w	r2, r2, #32768	; 0x8000
 8001e82:	601a      	str	r2, [r3, #0]
 8001e84:	4770      	bx	lr
 8001e86:	bf00      	nop

08001e88 <CRYP_DataIn>:
 8001e88:	2300      	movs	r3, #0
 8001e8a:	f2c5 0306 	movt	r3, #20486	; 0x5006
 8001e8e:	6098      	str	r0, [r3, #8]
 8001e90:	4770      	bx	lr
 8001e92:	bf00      	nop

08001e94 <CRYP_DataOut>:
 8001e94:	2300      	movs	r3, #0
 8001e96:	f2c5 0306 	movt	r3, #20486	; 0x5006
 8001e9a:	68d8      	ldr	r0, [r3, #12]
 8001e9c:	4770      	bx	lr
 8001e9e:	bf00      	nop

08001ea0 <CRYP_SaveContext>:
 8001ea0:	e92d 07f0 	stmdb	sp!, {r4, r5, r6, r7, r8, r9, sl}
 8001ea4:	2300      	movs	r3, #0
 8001ea6:	b083      	sub	sp, #12
 8001ea8:	f2c5 0306 	movt	r3, #20486	; 0x5006
 8001eac:	2200      	movs	r2, #0
 8001eae:	9201      	str	r2, [sp, #4]
 8001eb0:	691a      	ldr	r2, [r3, #16]
 8001eb2:	f022 0201 	bic.w	r2, r2, #1
 8001eb6:	611a      	str	r2, [r3, #16]
 8001eb8:	681a      	ldr	r2, [r3, #0]
 8001eba:	f012 0f08 	tst.w	r2, #8
 8001ebe:	bf0c      	ite	eq
 8001ec0:	2515      	moveq	r5, #21
 8001ec2:	2511      	movne	r5, #17
 8001ec4:	f64f 76ff 	movw	r6, #65535	; 0xffff
 8001ec8:	685c      	ldr	r4, [r3, #4]
 8001eca:	9a01      	ldr	r2, [sp, #4]
 8001ecc:	3201      	adds	r2, #1
 8001ece:	9201      	str	r2, [sp, #4]
 8001ed0:	9a01      	ldr	r2, [sp, #4]
 8001ed2:	42b2      	cmp	r2, r6
 8001ed4:	ea05 0404 	and.w	r4, r5, r4
 8001ed8:	d001      	beq.n	8001ede <CRYP_SaveContext+0x3e>
 8001eda:	2c01      	cmp	r4, #1
 8001edc:	d1f4      	bne.n	8001ec8 <CRYP_SaveContext+0x28>
 8001ede:	2300      	movs	r3, #0
 8001ee0:	f2c5 0306 	movt	r3, #20486	; 0x5006
 8001ee4:	685a      	ldr	r2, [r3, #4]
 8001ee6:	4015      	ands	r5, r2
 8001ee8:	2d01      	cmp	r5, #1
 8001eea:	d004      	beq.n	8001ef6 <CRYP_SaveContext+0x56>
 8001eec:	2000      	movs	r0, #0
 8001eee:	b003      	add	sp, #12
 8001ef0:	e8bd 07f0 	ldmia.w	sp!, {r4, r5, r6, r7, r8, r9, sl}
 8001ef4:	4770      	bx	lr
 8001ef6:	691a      	ldr	r2, [r3, #16]
 8001ef8:	f022 0202 	bic.w	r2, r2, #2
 8001efc:	611a      	str	r2, [r3, #16]
 8001efe:	681a      	ldr	r2, [r3, #0]
 8001f00:	f422 4200 	bic.w	r2, r2, #32768	; 0x8000
 8001f04:	601a      	str	r2, [r3, #0]
 8001f06:	f8d3 a000 	ldr.w	sl, [r3]
 8001f0a:	f8d1 9000 	ldr.w	r9, [r1]
 8001f0e:	f8d1 8004 	ldr.w	r8, [r1, #4]
 8001f12:	f8d1 c008 	ldr.w	ip, [r1, #8]
 8001f16:	68cf      	ldr	r7, [r1, #12]
 8001f18:	690e      	ldr	r6, [r1, #16]
 8001f1a:	694c      	ldr	r4, [r1, #20]
 8001f1c:	698a      	ldr	r2, [r1, #24]
 8001f1e:	69c9      	ldr	r1, [r1, #28]
 8001f20:	f40a 7a7f 	and.w	sl, sl, #1020	; 0x3fc
 8001f24:	f8c0 a000 	str.w	sl, [r0]
 8001f28:	f8d3 a040 	ldr.w	sl, [r3, #64]	; 0x40
 8001f2c:	f8c0 a004 	str.w	sl, [r0, #4]
 8001f30:	f8d3 a044 	ldr.w	sl, [r3, #68]	; 0x44
 8001f34:	f8c0 a008 	str.w	sl, [r0, #8]
 8001f38:	f8d3 a048 	ldr.w	sl, [r3, #72]	; 0x48
 8001f3c:	f8c0 a00c 	str.w	sl, [r0, #12]
 8001f40:	6cdb      	ldr	r3, [r3, #76]	; 0x4c
 8001f42:	f8c0 9014 	str.w	r9, [r0, #20]
 8001f46:	6103      	str	r3, [r0, #16]
 8001f48:	f8c0 8018 	str.w	r8, [r0, #24]
 8001f4c:	f8c0 c01c 	str.w	ip, [r0, #28]
 8001f50:	6207      	str	r7, [r0, #32]
 8001f52:	6246      	str	r6, [r0, #36]	; 0x24
 8001f54:	6284      	str	r4, [r0, #40]	; 0x28
 8001f56:	62c2      	str	r2, [r0, #44]	; 0x2c
 8001f58:	6301      	str	r1, [r0, #48]	; 0x30
 8001f5a:	4628      	mov	r0, r5
 8001f5c:	e7c7      	b.n	8001eee <CRYP_SaveContext+0x4e>
 8001f5e:	bf00      	nop

08001f60 <CRYP_RestoreContext>:
 8001f60:	2300      	movs	r3, #0
 8001f62:	f2c5 0306 	movt	r3, #20486	; 0x5006
 8001f66:	6802      	ldr	r2, [r0, #0]
 8001f68:	601a      	str	r2, [r3, #0]
 8001f6a:	6942      	ldr	r2, [r0, #20]
 8001f6c:	621a      	str	r2, [r3, #32]
 8001f6e:	6982      	ldr	r2, [r0, #24]
 8001f70:	625a      	str	r2, [r3, #36]	; 0x24
 8001f72:	69c2      	ldr	r2, [r0, #28]
 8001f74:	629a      	str	r2, [r3, #40]	; 0x28
 8001f76:	6a02      	ldr	r2, [r0, #32]
 8001f78:	62da      	str	r2, [r3, #44]	; 0x2c
 8001f7a:	6a42      	ldr	r2, [r0, #36]	; 0x24
 8001f7c:	631a      	str	r2, [r3, #48]	; 0x30
 8001f7e:	6a82      	ldr	r2, [r0, #40]	; 0x28
 8001f80:	635a      	str	r2, [r3, #52]	; 0x34
 8001f82:	6ac2      	ldr	r2, [r0, #44]	; 0x2c
 8001f84:	639a      	str	r2, [r3, #56]	; 0x38
 8001f86:	6b02      	ldr	r2, [r0, #48]	; 0x30
 8001f88:	63da      	str	r2, [r3, #60]	; 0x3c
 8001f8a:	6842      	ldr	r2, [r0, #4]
 8001f8c:	641a      	str	r2, [r3, #64]	; 0x40
 8001f8e:	6882      	ldr	r2, [r0, #8]
 8001f90:	645a      	str	r2, [r3, #68]	; 0x44
 8001f92:	68c2      	ldr	r2, [r0, #12]
 8001f94:	649a      	str	r2, [r3, #72]	; 0x48
 8001f96:	6902      	ldr	r2, [r0, #16]
 8001f98:	64da      	str	r2, [r3, #76]	; 0x4c
 8001f9a:	681a      	ldr	r2, [r3, #0]
 8001f9c:	f442 4200 	orr.w	r2, r2, #32768	; 0x8000
 8001fa0:	601a      	str	r2, [r3, #0]
 8001fa2:	4770      	bx	lr

08001fa4 <CRYP_DMACmd>:
 8001fa4:	2300      	movs	r3, #0
 8001fa6:	f2c5 0306 	movt	r3, #20486	; 0x5006
 8001faa:	691a      	ldr	r2, [r3, #16]
 8001fac:	b929      	cbnz	r1, 8001fba <CRYP_DMACmd+0x16>
 8001fae:	ea22 0000 	bic.w	r0, r2, r0
 8001fb2:	f000 00ff 	and.w	r0, r0, #255	; 0xff
 8001fb6:	6118      	str	r0, [r3, #16]
 8001fb8:	4770      	bx	lr
 8001fba:	4310      	orrs	r0, r2
 8001fbc:	6118      	str	r0, [r3, #16]
 8001fbe:	4770      	bx	lr

08001fc0 <CRYP_ITConfig>:
 8001fc0:	2300      	movs	r3, #0
 8001fc2:	f2c5 0306 	movt	r3, #20486	; 0x5006
 8001fc6:	695a      	ldr	r2, [r3, #20]
 8001fc8:	b929      	cbnz	r1, 8001fd6 <CRYP_ITConfig+0x16>
 8001fca:	ea22 0000 	bic.w	r0, r2, r0
 8001fce:	f000 00ff 	and.w	r0, r0, #255	; 0xff
 8001fd2:	6158      	str	r0, [r3, #20]
 8001fd4:	4770      	bx	lr
 8001fd6:	4310      	orrs	r0, r2
 8001fd8:	6158      	str	r0, [r3, #20]
 8001fda:	4770      	bx	lr

08001fdc <CRYP_GetITStatus>:
 8001fdc:	2300      	movs	r3, #0
 8001fde:	f2c5 0306 	movt	r3, #20486	; 0x5006
 8001fe2:	69db      	ldr	r3, [r3, #28]
 8001fe4:	4218      	tst	r0, r3
 8001fe6:	bf0c      	ite	eq
 8001fe8:	2000      	moveq	r0, #0
 8001fea:	2001      	movne	r0, #1
 8001fec:	4770      	bx	lr
 8001fee:	bf00      	nop

08001ff0 <CRYP_GetFlagStatus>:
 8001ff0:	2300      	movs	r3, #0
 8001ff2:	f2c5 0306 	movt	r3, #20486	; 0x5006
 8001ff6:	0682      	lsls	r2, r0, #26
 8001ff8:	bf4c      	ite	mi
 8001ffa:	699b      	ldrmi	r3, [r3, #24]
 8001ffc:	685b      	ldrpl	r3, [r3, #4]
 8001ffe:	4203      	tst	r3, r0
 8002000:	bf0c      	ite	eq
 8002002:	2000      	moveq	r0, #0
 8002004:	2001      	movne	r0, #1
 8002006:	4770      	bx	lr

08002008 <CRYP_AES_ECB>:
 8002008:	e92d 43f0 	stmdb	sp!, {r4, r5, r6, r7, r8, r9, lr}
 800200c:	b08d      	sub	sp, #52	; 0x34
 800200e:	4615      	mov	r5, r2
 8002010:	2600      	movs	r6, #0
 8002012:	4604      	mov	r4, r0
 8002014:	4668      	mov	r0, sp
 8002016:	460f      	mov	r7, r1
 8002018:	4698      	mov	r8, r3
 800201a:	f8dd 9050 	ldr.w	r9, [sp, #80]	; 0x50
 800201e:	960b      	str	r6, [sp, #44]	; 0x2c
 8002020:	f7ff ff00 	bl	8001e24 <CRYP_KeyStructInit>
 8002024:	2dc0      	cmp	r5, #192	; 0xc0
 8002026:	f000 80c4 	beq.w	80021b2 <CRYP_AES_ECB+0x1aa>
 800202a:	f5b5 7f80 	cmp.w	r5, #256	; 0x100
 800202e:	f000 80a3 	beq.w	8002178 <CRYP_AES_ECB+0x170>
 8002032:	2d80      	cmp	r5, #128	; 0x80
 8002034:	f000 8091 	beq.w	800215a <CRYP_AES_ECB+0x152>
 8002038:	bba4      	cbnz	r4, 80020a4 <CRYP_AES_ECB+0x9c>
 800203a:	f7ff ff0f 	bl	8001e5c <CRYP_FIFOFlush>
 800203e:	ad08      	add	r5, sp, #32
 8002040:	2304      	movs	r3, #4
 8002042:	4628      	mov	r0, r5
 8002044:	f8ad 3020 	strh.w	r3, [sp, #32]
 8002048:	2338      	movs	r3, #56	; 0x38
 800204a:	f8ad 3022 	strh.w	r3, [sp, #34]	; 0x22
 800204e:	f8ad 4024 	strh.w	r4, [sp, #36]	; 0x24
 8002052:	f7ff fe97 	bl	8001d84 <CRYP_Init>
 8002056:	4668      	mov	r0, sp
 8002058:	f7ff fed0 	bl	8001dfc <CRYP_KeyInit>
 800205c:	2001      	movs	r0, #1
 800205e:	f7ff ff05 	bl	8001e6c <CRYP_Cmd>
 8002062:	e002      	b.n	800206a <CRYP_AES_ECB+0x62>
 8002064:	2800      	cmp	r0, #0
 8002066:	f000 80bb 	beq.w	80021e0 <CRYP_AES_ECB+0x1d8>
 800206a:	2010      	movs	r0, #16
 800206c:	f7ff ffc0 	bl	8001ff0 <CRYP_GetFlagStatus>
 8002070:	9b0b      	ldr	r3, [sp, #44]	; 0x2c
 8002072:	3301      	adds	r3, #1
 8002074:	930b      	str	r3, [sp, #44]	; 0x2c
 8002076:	9b0b      	ldr	r3, [sp, #44]	; 0x2c
 8002078:	f5b3 3f80 	cmp.w	r3, #65536	; 0x10000
 800207c:	d1f2      	bne.n	8002064 <CRYP_AES_ECB+0x5c>
 800207e:	2800      	cmp	r0, #0
 8002080:	f000 80ae 	beq.w	80021e0 <CRYP_AES_ECB+0x1d8>
 8002084:	2320      	movs	r3, #32
 8002086:	4628      	mov	r0, r5
 8002088:	f8ad 3022 	strh.w	r3, [sp, #34]	; 0x22
 800208c:	2380      	movs	r3, #128	; 0x80
 800208e:	f8ad 3024 	strh.w	r3, [sp, #36]	; 0x24
 8002092:	f7ff fe77 	bl	8001d84 <CRYP_Init>
 8002096:	f7ff fee1 	bl	8001e5c <CRYP_FIFOFlush>
 800209a:	2001      	movs	r0, #1
 800209c:	f7ff fee6 	bl	8001e6c <CRYP_Cmd>
 80020a0:	2400      	movs	r4, #0
 80020a2:	e03b      	b.n	800211c <CRYP_AES_ECB+0x114>
 80020a4:	4668      	mov	r0, sp
 80020a6:	ad0c      	add	r5, sp, #48	; 0x30
 80020a8:	f7ff fea8 	bl	8001dfc <CRYP_KeyInit>
 80020ac:	2300      	movs	r3, #0
 80020ae:	f825 3d10 	strh.w	r3, [r5, #-16]!
 80020b2:	2320      	movs	r3, #32
 80020b4:	4628      	mov	r0, r5
 80020b6:	f8ad 3022 	strh.w	r3, [sp, #34]	; 0x22
 80020ba:	2380      	movs	r3, #128	; 0x80
 80020bc:	f8ad 3024 	strh.w	r3, [sp, #36]	; 0x24
 80020c0:	f7ff fe60 	bl	8001d84 <CRYP_Init>
 80020c4:	f7ff feca 	bl	8001e5c <CRYP_FIFOFlush>
 80020c8:	2001      	movs	r0, #1
 80020ca:	f7ff fecf 	bl	8001e6c <CRYP_Cmd>
 80020ce:	f1b9 0f00 	cmp.w	r9, #0
 80020d2:	d040      	beq.n	8002156 <CRYP_AES_ECB+0x14e>
 80020d4:	9d15      	ldr	r5, [sp, #84]	; 0x54
 80020d6:	f108 0410 	add.w	r4, r8, #16
 80020da:	3510      	adds	r5, #16
 80020dc:	2600      	movs	r6, #0
 80020de:	f854 0c10 	ldr.w	r0, [r4, #-16]
 80020e2:	f7ff fed1 	bl	8001e88 <CRYP_DataIn>
 80020e6:	f854 0c0c 	ldr.w	r0, [r4, #-12]
 80020ea:	f7ff fecd 	bl	8001e88 <CRYP_DataIn>
 80020ee:	f854 0c08 	ldr.w	r0, [r4, #-8]
 80020f2:	f7ff fec9 	bl	8001e88 <CRYP_DataIn>
 80020f6:	f854 0c04 	ldr.w	r0, [r4, #-4]
 80020fa:	f7ff fec5 	bl	8001e88 <CRYP_DataIn>
 80020fe:	960b      	str	r6, [sp, #44]	; 0x2c
 8002100:	e000      	b.n	8002104 <CRYP_AES_ECB+0xfc>
 8002102:	b190      	cbz	r0, 800212a <CRYP_AES_ECB+0x122>
 8002104:	2010      	movs	r0, #16
 8002106:	f7ff ff73 	bl	8001ff0 <CRYP_GetFlagStatus>
 800210a:	9b0b      	ldr	r3, [sp, #44]	; 0x2c
 800210c:	3301      	adds	r3, #1
 800210e:	930b      	str	r3, [sp, #44]	; 0x2c
 8002110:	9b0b      	ldr	r3, [sp, #44]	; 0x2c
 8002112:	f5b3 3f80 	cmp.w	r3, #65536	; 0x10000
 8002116:	d1f4      	bne.n	8002102 <CRYP_AES_ECB+0xfa>
 8002118:	b138      	cbz	r0, 800212a <CRYP_AES_ECB+0x122>
 800211a:	2400      	movs	r4, #0
 800211c:	2000      	movs	r0, #0
 800211e:	f7ff fea5 	bl	8001e6c <CRYP_Cmd>
 8002122:	4620      	mov	r0, r4
 8002124:	b00d      	add	sp, #52	; 0x34
 8002126:	e8bd 83f0 	ldmia.w	sp!, {r4, r5, r6, r7, r8, r9, pc}
 800212a:	f7ff feb3 	bl	8001e94 <CRYP_DataOut>
 800212e:	f845 0c10 	str.w	r0, [r5, #-16]
 8002132:	f7ff feaf 	bl	8001e94 <CRYP_DataOut>
 8002136:	f845 0c0c 	str.w	r0, [r5, #-12]
 800213a:	f7ff feab 	bl	8001e94 <CRYP_DataOut>
 800213e:	f845 0c08 	str.w	r0, [r5, #-8]
 8002142:	f7ff fea7 	bl	8001e94 <CRYP_DataOut>
 8002146:	ebc8 0304 	rsb	r3, r8, r4
 800214a:	f845 0c04 	str.w	r0, [r5, #-4]
 800214e:	3410      	adds	r4, #16
 8002150:	3510      	adds	r5, #16
 8002152:	4599      	cmp	r9, r3
 8002154:	d8c3      	bhi.n	80020de <CRYP_AES_ECB+0xd6>
 8002156:	2401      	movs	r4, #1
 8002158:	e7e0      	b.n	800211c <CRYP_AES_ECB+0x114>
 800215a:	f8ad 6026 	strh.w	r6, [sp, #38]	; 0x26
 800215e:	683b      	ldr	r3, [r7, #0]
 8002160:	ba1b      	rev	r3, r3
 8002162:	9304      	str	r3, [sp, #16]
 8002164:	687b      	ldr	r3, [r7, #4]
 8002166:	ba1b      	rev	r3, r3
 8002168:	9305      	str	r3, [sp, #20]
 800216a:	68bb      	ldr	r3, [r7, #8]
 800216c:	ba1b      	rev	r3, r3
 800216e:	9306      	str	r3, [sp, #24]
 8002170:	68fb      	ldr	r3, [r7, #12]
 8002172:	ba1b      	rev	r3, r3
 8002174:	9307      	str	r3, [sp, #28]
 8002176:	e75f      	b.n	8002038 <CRYP_AES_ECB+0x30>
 8002178:	f44f 7300 	mov.w	r3, #512	; 0x200
 800217c:	f8ad 3026 	strh.w	r3, [sp, #38]	; 0x26
 8002180:	683b      	ldr	r3, [r7, #0]
 8002182:	ba1b      	rev	r3, r3
 8002184:	9300      	str	r3, [sp, #0]
 8002186:	687b      	ldr	r3, [r7, #4]
 8002188:	ba1b      	rev	r3, r3
 800218a:	9301      	str	r3, [sp, #4]
 800218c:	68bb      	ldr	r3, [r7, #8]
 800218e:	ba1b      	rev	r3, r3
 8002190:	9302      	str	r3, [sp, #8]
 8002192:	68fb      	ldr	r3, [r7, #12]
 8002194:	ba1b      	rev	r3, r3
 8002196:	9303      	str	r3, [sp, #12]
 8002198:	693b      	ldr	r3, [r7, #16]
 800219a:	ba1b      	rev	r3, r3
 800219c:	9304      	str	r3, [sp, #16]
 800219e:	697b      	ldr	r3, [r7, #20]
 80021a0:	ba1b      	rev	r3, r3
 80021a2:	9305      	str	r3, [sp, #20]
 80021a4:	69bb      	ldr	r3, [r7, #24]
 80021a6:	ba1b      	rev	r3, r3
 80021a8:	9306      	str	r3, [sp, #24]
 80021aa:	69fb      	ldr	r3, [r7, #28]
 80021ac:	ba1b      	rev	r3, r3
 80021ae:	9307      	str	r3, [sp, #28]
 80021b0:	e742      	b.n	8002038 <CRYP_AES_ECB+0x30>
 80021b2:	f44f 7380 	mov.w	r3, #256	; 0x100
 80021b6:	f8ad 3026 	strh.w	r3, [sp, #38]	; 0x26
 80021ba:	683b      	ldr	r3, [r7, #0]
 80021bc:	ba1b      	rev	r3, r3
 80021be:	9302      	str	r3, [sp, #8]
 80021c0:	687b      	ldr	r3, [r7, #4]
 80021c2:	ba1b      	rev	r3, r3
 80021c4:	9303      	str	r3, [sp, #12]
 80021c6:	68bb      	ldr	r3, [r7, #8]
 80021c8:	ba1b      	rev	r3, r3
 80021ca:	9304      	str	r3, [sp, #16]
 80021cc:	68fb      	ldr	r3, [r7, #12]
 80021ce:	ba1b      	rev	r3, r3
 80021d0:	9305      	str	r3, [sp, #20]
 80021d2:	693b      	ldr	r3, [r7, #16]
 80021d4:	ba1b      	rev	r3, r3
 80021d6:	9306      	str	r3, [sp, #24]
 80021d8:	697b      	ldr	r3, [r7, #20]
 80021da:	ba1b      	rev	r3, r3
 80021dc:	9307      	str	r3, [sp, #28]
 80021de:	e72b      	b.n	8002038 <CRYP_AES_ECB+0x30>
 80021e0:	2304      	movs	r3, #4
 80021e2:	f8ad 3020 	strh.w	r3, [sp, #32]
 80021e6:	e764      	b.n	80020b2 <CRYP_AES_ECB+0xaa>

080021e8 <CRYP_AES_CBC>:
 80021e8:	e92d 47f0 	stmdb	sp!, {r4, r5, r6, r7, r8, r9, sl, lr}
 80021ec:	b090      	sub	sp, #64	; 0x40
 80021ee:	461d      	mov	r5, r3
 80021f0:	2600      	movs	r6, #0
 80021f2:	4604      	mov	r4, r0
 80021f4:	4668      	mov	r0, sp
 80021f6:	460f      	mov	r7, r1
 80021f8:	4690      	mov	r8, r2
 80021fa:	f8dd 9060 	ldr.w	r9, [sp, #96]	; 0x60
 80021fe:	f8dd a064 	ldr.w	sl, [sp, #100]	; 0x64
 8002202:	960f      	str	r6, [sp, #60]	; 0x3c
 8002204:	f7ff fe0e 	bl	8001e24 <CRYP_KeyStructInit>
 8002208:	2dc0      	cmp	r5, #192	; 0xc0
 800220a:	f000 80e3 	beq.w	80023d4 <CRYP_AES_CBC+0x1ec>
 800220e:	f5b5 7f80 	cmp.w	r5, #256	; 0x100
 8002212:	f000 80ba 	beq.w	800238a <CRYP_AES_CBC+0x1a2>
 8002216:	2d80      	cmp	r5, #128	; 0x80
 8002218:	f000 80a4 	beq.w	8002364 <CRYP_AES_CBC+0x17c>
 800221c:	683b      	ldr	r3, [r7, #0]
 800221e:	ba1b      	rev	r3, r3
 8002220:	9308      	str	r3, [sp, #32]
 8002222:	687b      	ldr	r3, [r7, #4]
 8002224:	ba1b      	rev	r3, r3
 8002226:	9309      	str	r3, [sp, #36]	; 0x24
 8002228:	68bb      	ldr	r3, [r7, #8]
 800222a:	ba1b      	rev	r3, r3
 800222c:	930a      	str	r3, [sp, #40]	; 0x28
 800222e:	68fb      	ldr	r3, [r7, #12]
 8002230:	ba1b      	rev	r3, r3
 8002232:	930b      	str	r3, [sp, #44]	; 0x2c
 8002234:	2c00      	cmp	r4, #0
 8002236:	d137      	bne.n	80022a8 <CRYP_AES_CBC+0xc0>
 8002238:	f7ff fe10 	bl	8001e5c <CRYP_FIFOFlush>
 800223c:	ad0c      	add	r5, sp, #48	; 0x30
 800223e:	2304      	movs	r3, #4
 8002240:	4628      	mov	r0, r5
 8002242:	f8ad 3030 	strh.w	r3, [sp, #48]	; 0x30
 8002246:	2338      	movs	r3, #56	; 0x38
 8002248:	f8ad 3032 	strh.w	r3, [sp, #50]	; 0x32
 800224c:	f8ad 4034 	strh.w	r4, [sp, #52]	; 0x34
 8002250:	f7ff fd98 	bl	8001d84 <CRYP_Init>
 8002254:	4668      	mov	r0, sp
 8002256:	f7ff fdd1 	bl	8001dfc <CRYP_KeyInit>
 800225a:	2001      	movs	r0, #1
 800225c:	f7ff fe06 	bl	8001e6c <CRYP_Cmd>
 8002260:	e002      	b.n	8002268 <CRYP_AES_CBC+0x80>
 8002262:	2800      	cmp	r0, #0
 8002264:	f000 80d3 	beq.w	800240e <CRYP_AES_CBC+0x226>
 8002268:	2010      	movs	r0, #16
 800226a:	f7ff fec1 	bl	8001ff0 <CRYP_GetFlagStatus>
 800226e:	9b0f      	ldr	r3, [sp, #60]	; 0x3c
 8002270:	3301      	adds	r3, #1
 8002272:	930f      	str	r3, [sp, #60]	; 0x3c
 8002274:	9b0f      	ldr	r3, [sp, #60]	; 0x3c
 8002276:	f5b3 3f80 	cmp.w	r3, #65536	; 0x10000
 800227a:	d1f2      	bne.n	8002262 <CRYP_AES_CBC+0x7a>
 800227c:	2800      	cmp	r0, #0
 800227e:	f000 80c6 	beq.w	800240e <CRYP_AES_CBC+0x226>
 8002282:	2328      	movs	r3, #40	; 0x28
 8002284:	4628      	mov	r0, r5
 8002286:	f8ad 3032 	strh.w	r3, [sp, #50]	; 0x32
 800228a:	2380      	movs	r3, #128	; 0x80
 800228c:	f8ad 3034 	strh.w	r3, [sp, #52]	; 0x34
 8002290:	f7ff fd78 	bl	8001d84 <CRYP_Init>
 8002294:	a808      	add	r0, sp, #32
 8002296:	f7ff fdcf 	bl	8001e38 <CRYP_IVInit>
 800229a:	f7ff fddf 	bl	8001e5c <CRYP_FIFOFlush>
 800229e:	2001      	movs	r0, #1
 80022a0:	f7ff fde4 	bl	8001e6c <CRYP_Cmd>
 80022a4:	2400      	movs	r4, #0
 80022a6:	e03e      	b.n	8002326 <CRYP_AES_CBC+0x13e>
 80022a8:	4668      	mov	r0, sp
 80022aa:	ad10      	add	r5, sp, #64	; 0x40
 80022ac:	f7ff fda6 	bl	8001dfc <CRYP_KeyInit>
 80022b0:	2300      	movs	r3, #0
 80022b2:	f825 3d10 	strh.w	r3, [r5, #-16]!
 80022b6:	2328      	movs	r3, #40	; 0x28
 80022b8:	4628      	mov	r0, r5
 80022ba:	f8ad 3032 	strh.w	r3, [sp, #50]	; 0x32
 80022be:	2380      	movs	r3, #128	; 0x80
 80022c0:	f8ad 3034 	strh.w	r3, [sp, #52]	; 0x34
 80022c4:	f7ff fd5e 	bl	8001d84 <CRYP_Init>
 80022c8:	a808      	add	r0, sp, #32
 80022ca:	f7ff fdb5 	bl	8001e38 <CRYP_IVInit>
 80022ce:	f7ff fdc5 	bl	8001e5c <CRYP_FIFOFlush>
 80022d2:	2001      	movs	r0, #1
 80022d4:	f7ff fdca 	bl	8001e6c <CRYP_Cmd>
 80022d8:	f1ba 0f00 	cmp.w	sl, #0
 80022dc:	d040      	beq.n	8002360 <CRYP_AES_CBC+0x178>
 80022de:	9d1a      	ldr	r5, [sp, #104]	; 0x68
 80022e0:	f109 0410 	add.w	r4, r9, #16
 80022e4:	3510      	adds	r5, #16
 80022e6:	2600      	movs	r6, #0
 80022e8:	f854 0c10 	ldr.w	r0, [r4, #-16]
 80022ec:	f7ff fdcc 	bl	8001e88 <CRYP_DataIn>
 80022f0:	f854 0c0c 	ldr.w	r0, [r4, #-12]
 80022f4:	f7ff fdc8 	bl	8001e88 <CRYP_DataIn>
 80022f8:	f854 0c08 	ldr.w	r0, [r4, #-8]
 80022fc:	f7ff fdc4 	bl	8001e88 <CRYP_DataIn>
 8002300:	f854 0c04 	ldr.w	r0, [r4, #-4]
 8002304:	f7ff fdc0 	bl	8001e88 <CRYP_DataIn>
 8002308:	960f      	str	r6, [sp, #60]	; 0x3c
 800230a:	e000      	b.n	800230e <CRYP_AES_CBC+0x126>
 800230c:	b190      	cbz	r0, 8002334 <CRYP_AES_CBC+0x14c>
 800230e:	2010      	movs	r0, #16
 8002310:	f7ff fe6e 	bl	8001ff0 <CRYP_GetFlagStatus>
 8002314:	9b0f      	ldr	r3, [sp, #60]	; 0x3c
 8002316:	3301      	adds	r3, #1
 8002318:	930f      	str	r3, [sp, #60]	; 0x3c
 800231a:	9b0f      	ldr	r3, [sp, #60]	; 0x3c
 800231c:	f5b3 3f80 	cmp.w	r3, #65536	; 0x10000
 8002320:	d1f4      	bne.n	800230c <CRYP_AES_CBC+0x124>
 8002322:	b138      	cbz	r0, 8002334 <CRYP_AES_CBC+0x14c>
 8002324:	2400      	movs	r4, #0
 8002326:	2000      	movs	r0, #0
 8002328:	f7ff fda0 	bl	8001e6c <CRYP_Cmd>
 800232c:	4620      	mov	r0, r4
 800232e:	b010      	add	sp, #64	; 0x40
 8002330:	e8bd 87f0 	ldmia.w	sp!, {r4, r5, r6, r7, r8, r9, sl, pc}
 8002334:	f7ff fdae 	bl	8001e94 <CRYP_DataOut>
 8002338:	f845 0c10 	str.w	r0, [r5, #-16]
 800233c:	f7ff fdaa 	bl	8001e94 <CRYP_DataOut>
 8002340:	f845 0c0c 	str.w	r0, [r5, #-12]
 8002344:	f7ff fda6 	bl	8001e94 <CRYP_DataOut>
 8002348:	f845 0c08 	str.w	r0, [r5, #-8]
 800234c:	f7ff fda2 	bl	8001e94 <CRYP_DataOut>
 8002350:	ebc9 0304 	rsb	r3, r9, r4
 8002354:	f845 0c04 	str.w	r0, [r5, #-4]
 8002358:	3410      	adds	r4, #16
 800235a:	3510      	adds	r5, #16
 800235c:	459a      	cmp	sl, r3
 800235e:	d8c3      	bhi.n	80022e8 <CRYP_AES_CBC+0x100>
 8002360:	2401      	movs	r4, #1
 8002362:	e7e0      	b.n	8002326 <CRYP_AES_CBC+0x13e>
 8002364:	f8ad 6036 	strh.w	r6, [sp, #54]	; 0x36
 8002368:	f8d8 3000 	ldr.w	r3, [r8]
 800236c:	ba1b      	rev	r3, r3
 800236e:	9304      	str	r3, [sp, #16]
 8002370:	f8d8 3004 	ldr.w	r3, [r8, #4]
 8002374:	ba1b      	rev	r3, r3
 8002376:	9305      	str	r3, [sp, #20]
 8002378:	f8d8 3008 	ldr.w	r3, [r8, #8]
 800237c:	ba1b      	rev	r3, r3
 800237e:	9306      	str	r3, [sp, #24]
 8002380:	f8d8 300c 	ldr.w	r3, [r8, #12]
 8002384:	ba1b      	rev	r3, r3
 8002386:	9307      	str	r3, [sp, #28]
 8002388:	e748      	b.n	800221c <CRYP_AES_CBC+0x34>
 800238a:	f44f 7300 	mov.w	r3, #512	; 0x200
 800238e:	f8ad 3036 	strh.w	r3, [sp, #54]	; 0x36
 8002392:	f8d8 3000 	ldr.w	r3, [r8]
 8002396:	ba1b      	rev	r3, r3
 8002398:	9300      	str	r3, [sp, #0]
 800239a:	f8d8 3004 	ldr.w	r3, [r8, #4]
 800239e:	ba1b      	rev	r3, r3
 80023a0:	9301      	str	r3, [sp, #4]
 80023a2:	f8d8 3008 	ldr.w	r3, [r8, #8]
 80023a6:	ba1b      	rev	r3, r3
 80023a8:	9302      	str	r3, [sp, #8]
 80023aa:	f8d8 300c 	ldr.w	r3, [r8, #12]
 80023ae:	ba1b      	rev	r3, r3
 80023b0:	9303      	str	r3, [sp, #12]
 80023b2:	f8d8 3010 	ldr.w	r3, [r8, #16]
 80023b6:	ba1b      	rev	r3, r3
 80023b8:	9304      	str	r3, [sp, #16]
 80023ba:	f8d8 3014 	ldr.w	r3, [r8, #20]
 80023be:	ba1b      	rev	r3, r3
 80023c0:	9305      	str	r3, [sp, #20]
 80023c2:	f8d8 3018 	ldr.w	r3, [r8, #24]
 80023c6:	ba1b      	rev	r3, r3
 80023c8:	9306      	str	r3, [sp, #24]
 80023ca:	f8d8 301c 	ldr.w	r3, [r8, #28]
 80023ce:	ba1b      	rev	r3, r3
 80023d0:	9307      	str	r3, [sp, #28]
 80023d2:	e723      	b.n	800221c <CRYP_AES_CBC+0x34>
 80023d4:	f44f 7380 	mov.w	r3, #256	; 0x100
 80023d8:	f8ad 3036 	strh.w	r3, [sp, #54]	; 0x36
 80023dc:	f8d8 3000 	ldr.w	r3, [r8]
 80023e0:	ba1b      	rev	r3, r3
 80023e2:	9302      	str	r3, [sp, #8]
 80023e4:	f8d8 3004 	ldr.w	r3, [r8, #4]
 80023e8:	ba1b      	rev	r3, r3
 80023ea:	9303      	str	r3, [sp, #12]
 80023ec:	f8d8 3008 	ldr.w	r3, [r8, #8]
 80023f0:	ba1b      	rev	r3, r3
 80023f2:	9304      	str	r3, [sp, #16]
 80023f4:	f8d8 300c 	ldr.w	r3, [r8, #12]
 80023f8:	ba1b      	rev	r3, r3
 80023fa:	9305      	str	r3, [sp, #20]
 80023fc:	f8d8 3010 	ldr.w	r3, [r8, #16]
 8002400:	ba1b      	rev	r3, r3
 8002402:	9306      	str	r3, [sp, #24]
 8002404:	f8d8 3014 	ldr.w	r3, [r8, #20]
 8002408:	ba1b      	rev	r3, r3
 800240a:	9307      	str	r3, [sp, #28]
 800240c:	e706      	b.n	800221c <CRYP_AES_CBC+0x34>
 800240e:	2304      	movs	r3, #4
 8002410:	f8ad 3030 	strh.w	r3, [sp, #48]	; 0x30
 8002414:	e74f      	b.n	80022b6 <CRYP_AES_CBC+0xce>
 8002416:	bf00      	nop

08002418 <CRYP_AES_CTR>:
 8002418:	e92d 47f0 	stmdb	sp!, {r4, r5, r6, r7, r8, r9, sl, lr}
 800241c:	b090      	sub	sp, #64	; 0x40
 800241e:	461d      	mov	r5, r3
 8002420:	2600      	movs	r6, #0
 8002422:	4604      	mov	r4, r0
 8002424:	a801      	add	r0, sp, #4
 8002426:	460f      	mov	r7, r1
 8002428:	4690      	mov	r8, r2
 800242a:	f8dd a060 	ldr.w	sl, [sp, #96]	; 0x60
 800242e:	f8dd 9064 	ldr.w	r9, [sp, #100]	; 0x64
 8002432:	960f      	str	r6, [sp, #60]	; 0x3c
 8002434:	f7ff fcf6 	bl	8001e24 <CRYP_KeyStructInit>
 8002438:	2dc0      	cmp	r5, #192	; 0xc0
 800243a:	f000 80aa 	beq.w	8002592 <CRYP_AES_CTR+0x17a>
 800243e:	f5b5 7f80 	cmp.w	r5, #256	; 0x100
 8002442:	f000 8081 	beq.w	8002548 <CRYP_AES_CTR+0x130>
 8002446:	2d80      	cmp	r5, #128	; 0x80
 8002448:	d06b      	beq.n	8002522 <CRYP_AES_CTR+0x10a>
 800244a:	683b      	ldr	r3, [r7, #0]
 800244c:	ba1b      	rev	r3, r3
 800244e:	9309      	str	r3, [sp, #36]	; 0x24
 8002450:	687b      	ldr	r3, [r7, #4]
 8002452:	ba1b      	rev	r3, r3
 8002454:	930a      	str	r3, [sp, #40]	; 0x28
 8002456:	68bb      	ldr	r3, [r7, #8]
 8002458:	ba1b      	rev	r3, r3
 800245a:	930b      	str	r3, [sp, #44]	; 0x2c
 800245c:	68fb      	ldr	r3, [r7, #12]
 800245e:	ba1b      	rev	r3, r3
 8002460:	a801      	add	r0, sp, #4
 8002462:	930c      	str	r3, [sp, #48]	; 0x30
 8002464:	f7ff fcca 	bl	8001dfc <CRYP_KeyInit>
 8002468:	2330      	movs	r3, #48	; 0x30
 800246a:	a80d      	add	r0, sp, #52	; 0x34
 800246c:	f8ad 3036 	strh.w	r3, [sp, #54]	; 0x36
 8002470:	2c00      	cmp	r4, #0
 8002472:	bf0c      	ite	eq
 8002474:	2404      	moveq	r4, #4
 8002476:	2400      	movne	r4, #0
 8002478:	2380      	movs	r3, #128	; 0x80
 800247a:	f8ad 3038 	strh.w	r3, [sp, #56]	; 0x38
 800247e:	f8ad 4034 	strh.w	r4, [sp, #52]	; 0x34
 8002482:	f7ff fc7f 	bl	8001d84 <CRYP_Init>
 8002486:	a809      	add	r0, sp, #36	; 0x24
 8002488:	f7ff fcd6 	bl	8001e38 <CRYP_IVInit>
 800248c:	f7ff fce6 	bl	8001e5c <CRYP_FIFOFlush>
 8002490:	2001      	movs	r0, #1
 8002492:	f7ff fceb 	bl	8001e6c <CRYP_Cmd>
 8002496:	f1b9 0f00 	cmp.w	r9, #0
 800249a:	d040      	beq.n	800251e <CRYP_AES_CTR+0x106>
 800249c:	9d1a      	ldr	r5, [sp, #104]	; 0x68
 800249e:	f10a 0410 	add.w	r4, sl, #16
 80024a2:	3510      	adds	r5, #16
 80024a4:	2600      	movs	r6, #0
 80024a6:	f854 0c10 	ldr.w	r0, [r4, #-16]
 80024aa:	f7ff fced 	bl	8001e88 <CRYP_DataIn>
 80024ae:	f854 0c0c 	ldr.w	r0, [r4, #-12]
 80024b2:	f7ff fce9 	bl	8001e88 <CRYP_DataIn>
 80024b6:	f854 0c08 	ldr.w	r0, [r4, #-8]
 80024ba:	f7ff fce5 	bl	8001e88 <CRYP_DataIn>
 80024be:	f854 0c04 	ldr.w	r0, [r4, #-4]
 80024c2:	f7ff fce1 	bl	8001e88 <CRYP_DataIn>
 80024c6:	960f      	str	r6, [sp, #60]	; 0x3c
 80024c8:	e000      	b.n	80024cc <CRYP_AES_CTR+0xb4>
 80024ca:	b190      	cbz	r0, 80024f2 <CRYP_AES_CTR+0xda>
 80024cc:	2010      	movs	r0, #16
 80024ce:	f7ff fd8f 	bl	8001ff0 <CRYP_GetFlagStatus>
 80024d2:	9b0f      	ldr	r3, [sp, #60]	; 0x3c
 80024d4:	3301      	adds	r3, #1
 80024d6:	930f      	str	r3, [sp, #60]	; 0x3c
 80024d8:	9b0f      	ldr	r3, [sp, #60]	; 0x3c
 80024da:	f5b3 3f80 	cmp.w	r3, #65536	; 0x10000
 80024de:	d1f4      	bne.n	80024ca <CRYP_AES_CTR+0xb2>
 80024e0:	b138      	cbz	r0, 80024f2 <CRYP_AES_CTR+0xda>
 80024e2:	2400      	movs	r4, #0
 80024e4:	2000      	movs	r0, #0
 80024e6:	f7ff fcc1 	bl	8001e6c <CRYP_Cmd>
 80024ea:	4620      	mov	r0, r4
 80024ec:	b010      	add	sp, #64	; 0x40
 80024ee:	e8bd 87f0 	ldmia.w	sp!, {r4, r5, r6, r7, r8, r9, sl, pc}
 80024f2:	f7ff fccf 	bl	8001e94 <CRYP_DataOut>
 80024f6:	f845 0c10 	str.w	r0, [r5, #-16]
 80024fa:	f7ff fccb 	bl	8001e94 <CRYP_DataOut>
 80024fe:	f845 0c0c 	str.w	r0, [r5, #-12]
 8002502:	f7ff fcc7 	bl	8001e94 <CRYP_DataOut>
 8002506:	f845 0c08 	str.w	r0, [r5, #-8]
 800250a:	f7ff fcc3 	bl	8001e94 <CRYP_DataOut>
 800250e:	ebca 0304 	rsb	r3, sl, r4
 8002512:	f845 0c04 	str.w	r0, [r5, #-4]
 8002516:	3410      	adds	r4, #16
 8002518:	3510      	adds	r5, #16
 800251a:	4599      	cmp	r9, r3
 800251c:	d8c3      	bhi.n	80024a6 <CRYP_AES_CTR+0x8e>
 800251e:	2401      	movs	r4, #1
 8002520:	e7e0      	b.n	80024e4 <CRYP_AES_CTR+0xcc>
 8002522:	f8ad 603a 	strh.w	r6, [sp, #58]	; 0x3a
 8002526:	f8d8 3000 	ldr.w	r3, [r8]
 800252a:	ba1b      	rev	r3, r3
 800252c:	9305      	str	r3, [sp, #20]
 800252e:	f8d8 3004 	ldr.w	r3, [r8, #4]
 8002532:	ba1b      	rev	r3, r3
 8002534:	9306      	str	r3, [sp, #24]
 8002536:	f8d8 3008 	ldr.w	r3, [r8, #8]
 800253a:	ba1b      	rev	r3, r3
 800253c:	9307      	str	r3, [sp, #28]
 800253e:	f8d8 300c 	ldr.w	r3, [r8, #12]
 8002542:	ba1b      	rev	r3, r3
 8002544:	9308      	str	r3, [sp, #32]
 8002546:	e780      	b.n	800244a <CRYP_AES_CTR+0x32>
 8002548:	f44f 7300 	mov.w	r3, #512	; 0x200
 800254c:	f8ad 303a 	strh.w	r3, [sp, #58]	; 0x3a
 8002550:	f8d8 3000 	ldr.w	r3, [r8]
 8002554:	ba1b      	rev	r3, r3
 8002556:	9301      	str	r3, [sp, #4]
 8002558:	f8d8 3004 	ldr.w	r3, [r8, #4]
 800255c:	ba1b      	rev	r3, r3
 800255e:	9302      	str	r3, [sp, #8]
 8002560:	f8d8 3008 	ldr.w	r3, [r8, #8]
 8002564:	ba1b      	rev	r3, r3
 8002566:	9303      	str	r3, [sp, #12]
 8002568:	f8d8 300c 	ldr.w	r3, [r8, #12]
 800256c:	ba1b      	rev	r3, r3
 800256e:	9304      	str	r3, [sp, #16]
 8002570:	f8d8 3010 	ldr.w	r3, [r8, #16]
 8002574:	ba1b      	rev	r3, r3
 8002576:	9305      	str	r3, [sp, #20]
 8002578:	f8d8 3014 	ldr.w	r3, [r8, #20]
 800257c:	ba1b      	rev	r3, r3
 800257e:	9306      	str	r3, [sp, #24]
 8002580:	f8d8 3018 	ldr.w	r3, [r8, #24]
 8002584:	ba1b      	rev	r3, r3
 8002586:	9307      	str	r3, [sp, #28]
 8002588:	f8d8 301c 	ldr.w	r3, [r8, #28]
 800258c:	ba1b      	rev	r3, r3
 800258e:	9308      	str	r3, [sp, #32]
 8002590:	e75b      	b.n	800244a <CRYP_AES_CTR+0x32>
 8002592:	f44f 7380 	mov.w	r3, #256	; 0x100
 8002596:	f8ad 303a 	strh.w	r3, [sp, #58]	; 0x3a
 800259a:	f8d8 3000 	ldr.w	r3, [r8]
 800259e:	ba1b      	rev	r3, r3
 80025a0:	9303      	str	r3, [sp, #12]
 80025a2:	f8d8 3004 	ldr.w	r3, [r8, #4]
 80025a6:	ba1b      	rev	r3, r3
 80025a8:	9304      	str	r3, [sp, #16]
 80025aa:	f8d8 3008 	ldr.w	r3, [r8, #8]
 80025ae:	ba1b      	rev	r3, r3
 80025b0:	9305      	str	r3, [sp, #20]
 80025b2:	f8d8 300c 	ldr.w	r3, [r8, #12]
 80025b6:	ba1b      	rev	r3, r3
 80025b8:	9306      	str	r3, [sp, #24]
 80025ba:	f8d8 3010 	ldr.w	r3, [r8, #16]
 80025be:	ba1b      	rev	r3, r3
 80025c0:	9307      	str	r3, [sp, #28]
 80025c2:	f8d8 3014 	ldr.w	r3, [r8, #20]
 80025c6:	ba1b      	rev	r3, r3
 80025c8:	9308      	str	r3, [sp, #32]
 80025ca:	e73e      	b.n	800244a <CRYP_AES_CTR+0x32>

080025cc <CRYP_DES_ECB>:
 80025cc:	e92d 41f0 	stmdb	sp!, {r4, r5, r6, r7, r8, lr}
 80025d0:	b08c      	sub	sp, #48	; 0x30
 80025d2:	2500      	movs	r5, #0
 80025d4:	4606      	mov	r6, r0
 80025d6:	a801      	add	r0, sp, #4
 80025d8:	460c      	mov	r4, r1
 80025da:	4617      	mov	r7, r2
 80025dc:	4698      	mov	r8, r3
 80025de:	950b      	str	r5, [sp, #44]	; 0x2c
 80025e0:	f7ff fc20 	bl	8001e24 <CRYP_KeyStructInit>
 80025e4:	2310      	movs	r3, #16
 80025e6:	f8ad 3026 	strh.w	r3, [sp, #38]	; 0x26
 80025ea:	2e01      	cmp	r6, #1
 80025ec:	bf14      	ite	ne
 80025ee:	2604      	movne	r6, #4
 80025f0:	462e      	moveq	r6, r5
 80025f2:	2380      	movs	r3, #128	; 0x80
 80025f4:	a809      	add	r0, sp, #36	; 0x24
 80025f6:	f8ad 3028 	strh.w	r3, [sp, #40]	; 0x28
 80025fa:	f8ad 6024 	strh.w	r6, [sp, #36]	; 0x24
 80025fe:	f7ff fbc1 	bl	8001d84 <CRYP_Init>
 8002602:	6823      	ldr	r3, [r4, #0]
 8002604:	ba1b      	rev	r3, r3
 8002606:	9303      	str	r3, [sp, #12]
 8002608:	6863      	ldr	r3, [r4, #4]
 800260a:	ba1b      	rev	r3, r3
 800260c:	a801      	add	r0, sp, #4
 800260e:	9304      	str	r3, [sp, #16]
 8002610:	f7ff fbf4 	bl	8001dfc <CRYP_KeyInit>
 8002614:	f7ff fc22 	bl	8001e5c <CRYP_FIFOFlush>
 8002618:	2001      	movs	r0, #1
 800261a:	f7ff fc27 	bl	8001e6c <CRYP_Cmd>
 800261e:	f1b8 0f00 	cmp.w	r8, #0
 8002622:	d02e      	beq.n	8002682 <CRYP_DES_ECB+0xb6>
 8002624:	9c12      	ldr	r4, [sp, #72]	; 0x48
 8002626:	3708      	adds	r7, #8
 8002628:	3408      	adds	r4, #8
 800262a:	462e      	mov	r6, r5
 800262c:	f857 0c08 	ldr.w	r0, [r7, #-8]
 8002630:	f7ff fc2a 	bl	8001e88 <CRYP_DataIn>
 8002634:	f857 0c04 	ldr.w	r0, [r7, #-4]
 8002638:	f7ff fc26 	bl	8001e88 <CRYP_DataIn>
 800263c:	960b      	str	r6, [sp, #44]	; 0x2c
 800263e:	e000      	b.n	8002642 <CRYP_DES_ECB+0x76>
 8002640:	b190      	cbz	r0, 8002668 <CRYP_DES_ECB+0x9c>
 8002642:	2010      	movs	r0, #16
 8002644:	f7ff fcd4 	bl	8001ff0 <CRYP_GetFlagStatus>
 8002648:	9b0b      	ldr	r3, [sp, #44]	; 0x2c
 800264a:	3301      	adds	r3, #1
 800264c:	930b      	str	r3, [sp, #44]	; 0x2c
 800264e:	9b0b      	ldr	r3, [sp, #44]	; 0x2c
 8002650:	f5b3 3f80 	cmp.w	r3, #65536	; 0x10000
 8002654:	d1f4      	bne.n	8002640 <CRYP_DES_ECB+0x74>
 8002656:	b138      	cbz	r0, 8002668 <CRYP_DES_ECB+0x9c>
 8002658:	2400      	movs	r4, #0
 800265a:	2000      	movs	r0, #0
 800265c:	f7ff fc06 	bl	8001e6c <CRYP_Cmd>
 8002660:	4620      	mov	r0, r4
 8002662:	b00c      	add	sp, #48	; 0x30
 8002664:	e8bd 81f0 	ldmia.w	sp!, {r4, r5, r6, r7, r8, pc}
 8002668:	f7ff fc14 	bl	8001e94 <CRYP_DataOut>
 800266c:	f844 0c08 	str.w	r0, [r4, #-8]
 8002670:	f7ff fc10 	bl	8001e94 <CRYP_DataOut>
 8002674:	3508      	adds	r5, #8
 8002676:	f844 0c04 	str.w	r0, [r4, #-4]
 800267a:	3708      	adds	r7, #8
 800267c:	3408      	adds	r4, #8
 800267e:	45a8      	cmp	r8, r5
 8002680:	d8d4      	bhi.n	800262c <CRYP_DES_ECB+0x60>
 8002682:	2401      	movs	r4, #1
 8002684:	e7e9      	b.n	800265a <CRYP_DES_ECB+0x8e>
 8002686:	bf00      	nop

08002688 <CRYP_DES_CBC>:
 8002688:	e92d 43f0 	stmdb	sp!, {r4, r5, r6, r7, r8, r9, lr}
 800268c:	b091      	sub	sp, #68	; 0x44
 800268e:	2500      	movs	r5, #0
 8002690:	4606      	mov	r6, r0
 8002692:	a801      	add	r0, sp, #4
 8002694:	460c      	mov	r4, r1
 8002696:	4617      	mov	r7, r2
 8002698:	4699      	mov	r9, r3
 800269a:	f8dd 8060 	ldr.w	r8, [sp, #96]	; 0x60
 800269e:	950f      	str	r5, [sp, #60]	; 0x3c
 80026a0:	f7ff fbc0 	bl	8001e24 <CRYP_KeyStructInit>
 80026a4:	2318      	movs	r3, #24
 80026a6:	f8ad 3036 	strh.w	r3, [sp, #54]	; 0x36
 80026aa:	2e01      	cmp	r6, #1
 80026ac:	bf14      	ite	ne
 80026ae:	2604      	movne	r6, #4
 80026b0:	462e      	moveq	r6, r5
 80026b2:	2380      	movs	r3, #128	; 0x80
 80026b4:	a80d      	add	r0, sp, #52	; 0x34
 80026b6:	f8ad 3038 	strh.w	r3, [sp, #56]	; 0x38
 80026ba:	f8ad 6034 	strh.w	r6, [sp, #52]	; 0x34
 80026be:	f7ff fb61 	bl	8001d84 <CRYP_Init>
 80026c2:	6823      	ldr	r3, [r4, #0]
 80026c4:	ba1b      	rev	r3, r3
 80026c6:	9303      	str	r3, [sp, #12]
 80026c8:	6863      	ldr	r3, [r4, #4]
 80026ca:	ba1b      	rev	r3, r3
 80026cc:	a801      	add	r0, sp, #4
 80026ce:	9304      	str	r3, [sp, #16]
 80026d0:	f7ff fb94 	bl	8001dfc <CRYP_KeyInit>
 80026d4:	683b      	ldr	r3, [r7, #0]
 80026d6:	ba1b      	rev	r3, r3
 80026d8:	9309      	str	r3, [sp, #36]	; 0x24
 80026da:	687b      	ldr	r3, [r7, #4]
 80026dc:	ba1b      	rev	r3, r3
 80026de:	a809      	add	r0, sp, #36	; 0x24
 80026e0:	930a      	str	r3, [sp, #40]	; 0x28
 80026e2:	f7ff fba9 	bl	8001e38 <CRYP_IVInit>
 80026e6:	f7ff fbb9 	bl	8001e5c <CRYP_FIFOFlush>
 80026ea:	2001      	movs	r0, #1
 80026ec:	f7ff fbbe 	bl	8001e6c <CRYP_Cmd>
 80026f0:	f1b8 0f00 	cmp.w	r8, #0
 80026f4:	d02f      	beq.n	8002756 <CRYP_DES_CBC+0xce>
 80026f6:	9e19      	ldr	r6, [sp, #100]	; 0x64
 80026f8:	f109 0408 	add.w	r4, r9, #8
 80026fc:	3608      	adds	r6, #8
 80026fe:	462f      	mov	r7, r5
 8002700:	f854 0c08 	ldr.w	r0, [r4, #-8]
 8002704:	f7ff fbc0 	bl	8001e88 <CRYP_DataIn>
 8002708:	f854 0c04 	ldr.w	r0, [r4, #-4]
 800270c:	f7ff fbbc 	bl	8001e88 <CRYP_DataIn>
 8002710:	970f      	str	r7, [sp, #60]	; 0x3c
 8002712:	e000      	b.n	8002716 <CRYP_DES_CBC+0x8e>
 8002714:	b190      	cbz	r0, 800273c <CRYP_DES_CBC+0xb4>
 8002716:	2010      	movs	r0, #16
 8002718:	f7ff fc6a 	bl	8001ff0 <CRYP_GetFlagStatus>
 800271c:	9b0f      	ldr	r3, [sp, #60]	; 0x3c
 800271e:	3301      	adds	r3, #1
 8002720:	930f      	str	r3, [sp, #60]	; 0x3c
 8002722:	9b0f      	ldr	r3, [sp, #60]	; 0x3c
 8002724:	f5b3 3f80 	cmp.w	r3, #65536	; 0x10000
 8002728:	d1f4      	bne.n	8002714 <CRYP_DES_CBC+0x8c>
 800272a:	b138      	cbz	r0, 800273c <CRYP_DES_CBC+0xb4>
 800272c:	2400      	movs	r4, #0
 800272e:	2000      	movs	r0, #0
 8002730:	f7ff fb9c 	bl	8001e6c <CRYP_Cmd>
 8002734:	4620      	mov	r0, r4
 8002736:	b011      	add	sp, #68	; 0x44
 8002738:	e8bd 83f0 	ldmia.w	sp!, {r4, r5, r6, r7, r8, r9, pc}
 800273c:	f7ff fbaa 	bl	8001e94 <CRYP_DataOut>
 8002740:	f846 0c08 	str.w	r0, [r6, #-8]
 8002744:	f7ff fba6 	bl	8001e94 <CRYP_DataOut>
 8002748:	3508      	adds	r5, #8
 800274a:	f846 0c04 	str.w	r0, [r6, #-4]
 800274e:	3408      	adds	r4, #8
 8002750:	3608      	adds	r6, #8
 8002752:	45a8      	cmp	r8, r5
 8002754:	d8d4      	bhi.n	8002700 <CRYP_DES_CBC+0x78>
 8002756:	2401      	movs	r4, #1
 8002758:	e7e9      	b.n	800272e <CRYP_DES_CBC+0xa6>
 800275a:	bf00      	nop

0800275c <CRYP_TDES_ECB>:
 800275c:	e92d 41f0 	stmdb	sp!, {r4, r5, r6, r7, r8, lr}
 8002760:	b08c      	sub	sp, #48	; 0x30
 8002762:	460c      	mov	r4, r1
 8002764:	2500      	movs	r5, #0
 8002766:	4606      	mov	r6, r0
 8002768:	a801      	add	r0, sp, #4
 800276a:	4617      	mov	r7, r2
 800276c:	4698      	mov	r8, r3
 800276e:	950b      	str	r5, [sp, #44]	; 0x2c
 8002770:	2e01      	cmp	r6, #1
 8002772:	bf14      	ite	ne
 8002774:	2604      	movne	r6, #4
 8002776:	462e      	moveq	r6, r5
 8002778:	f7ff fb54 	bl	8001e24 <CRYP_KeyStructInit>
 800277c:	2380      	movs	r3, #128	; 0x80
 800277e:	a809      	add	r0, sp, #36	; 0x24
 8002780:	f8ad 3028 	strh.w	r3, [sp, #40]	; 0x28
 8002784:	f8ad 6024 	strh.w	r6, [sp, #36]	; 0x24
 8002788:	f8ad 5026 	strh.w	r5, [sp, #38]	; 0x26
 800278c:	f7ff fafa 	bl	8001d84 <CRYP_Init>
 8002790:	6823      	ldr	r3, [r4, #0]
 8002792:	ba1b      	rev	r3, r3
 8002794:	9303      	str	r3, [sp, #12]
 8002796:	6863      	ldr	r3, [r4, #4]
 8002798:	ba1b      	rev	r3, r3
 800279a:	9304      	str	r3, [sp, #16]
 800279c:	68a3      	ldr	r3, [r4, #8]
 800279e:	ba1b      	rev	r3, r3
 80027a0:	9305      	str	r3, [sp, #20]
 80027a2:	68e3      	ldr	r3, [r4, #12]
 80027a4:	ba1b      	rev	r3, r3
 80027a6:	9306      	str	r3, [sp, #24]
 80027a8:	6923      	ldr	r3, [r4, #16]
 80027aa:	ba1b      	rev	r3, r3
 80027ac:	9307      	str	r3, [sp, #28]
 80027ae:	6963      	ldr	r3, [r4, #20]
 80027b0:	ba1b      	rev	r3, r3
 80027b2:	a801      	add	r0, sp, #4
 80027b4:	9308      	str	r3, [sp, #32]
 80027b6:	f7ff fb21 	bl	8001dfc <CRYP_KeyInit>
 80027ba:	f7ff fb4f 	bl	8001e5c <CRYP_FIFOFlush>
 80027be:	2001      	movs	r0, #1
 80027c0:	f7ff fb54 	bl	8001e6c <CRYP_Cmd>
 80027c4:	f1b8 0f00 	cmp.w	r8, #0
 80027c8:	d02e      	beq.n	8002828 <CRYP_TDES_ECB+0xcc>
 80027ca:	9c12      	ldr	r4, [sp, #72]	; 0x48
 80027cc:	3708      	adds	r7, #8
 80027ce:	3408      	adds	r4, #8
 80027d0:	462e      	mov	r6, r5
 80027d2:	f857 0c08 	ldr.w	r0, [r7, #-8]
 80027d6:	f7ff fb57 	bl	8001e88 <CRYP_DataIn>
 80027da:	f857 0c04 	ldr.w	r0, [r7, #-4]
 80027de:	f7ff fb53 	bl	8001e88 <CRYP_DataIn>
 80027e2:	960b      	str	r6, [sp, #44]	; 0x2c
 80027e4:	e000      	b.n	80027e8 <CRYP_TDES_ECB+0x8c>
 80027e6:	b190      	cbz	r0, 800280e <CRYP_TDES_ECB+0xb2>
 80027e8:	2010      	movs	r0, #16
 80027ea:	f7ff fc01 	bl	8001ff0 <CRYP_GetFlagStatus>
 80027ee:	9b0b      	ldr	r3, [sp, #44]	; 0x2c
 80027f0:	3301      	adds	r3, #1
 80027f2:	930b      	str	r3, [sp, #44]	; 0x2c
 80027f4:	9b0b      	ldr	r3, [sp, #44]	; 0x2c
 80027f6:	f5b3 3f80 	cmp.w	r3, #65536	; 0x10000
 80027fa:	d1f4      	bne.n	80027e6 <CRYP_TDES_ECB+0x8a>
 80027fc:	b138      	cbz	r0, 800280e <CRYP_TDES_ECB+0xb2>
 80027fe:	2400      	movs	r4, #0
 8002800:	2000      	movs	r0, #0
 8002802:	f7ff fb33 	bl	8001e6c <CRYP_Cmd>
 8002806:	4620      	mov	r0, r4
 8002808:	b00c      	add	sp, #48	; 0x30
 800280a:	e8bd 81f0 	ldmia.w	sp!, {r4, r5, r6, r7, r8, pc}
 800280e:	f7ff fb41 	bl	8001e94 <CRYP_DataOut>
 8002812:	f844 0c08 	str.w	r0, [r4, #-8]
 8002816:	f7ff fb3d 	bl	8001e94 <CRYP_DataOut>
 800281a:	3508      	adds	r5, #8
 800281c:	f844 0c04 	str.w	r0, [r4, #-4]
 8002820:	3708      	adds	r7, #8
 8002822:	3408      	adds	r4, #8
 8002824:	45a8      	cmp	r8, r5
 8002826:	d8d4      	bhi.n	80027d2 <CRYP_TDES_ECB+0x76>
 8002828:	2401      	movs	r4, #1
 800282a:	e7e9      	b.n	8002800 <CRYP_TDES_ECB+0xa4>

0800282c <CRYP_TDES_CBC>:
 800282c:	e92d 43f0 	stmdb	sp!, {r4, r5, r6, r7, r8, r9, lr}
 8002830:	b091      	sub	sp, #68	; 0x44
 8002832:	2500      	movs	r5, #0
 8002834:	4606      	mov	r6, r0
 8002836:	a801      	add	r0, sp, #4
 8002838:	460c      	mov	r4, r1
 800283a:	4617      	mov	r7, r2
 800283c:	4699      	mov	r9, r3
 800283e:	f8dd 8060 	ldr.w	r8, [sp, #96]	; 0x60
 8002842:	950f      	str	r5, [sp, #60]	; 0x3c
 8002844:	f7ff faee 	bl	8001e24 <CRYP_KeyStructInit>
 8002848:	2308      	movs	r3, #8
 800284a:	f8ad 3036 	strh.w	r3, [sp, #54]	; 0x36
 800284e:	2e01      	cmp	r6, #1
 8002850:	bf14      	ite	ne
 8002852:	2604      	movne	r6, #4
 8002854:	462e      	moveq	r6, r5
 8002856:	2380      	movs	r3, #128	; 0x80
 8002858:	a80d      	add	r0, sp, #52	; 0x34
 800285a:	f8ad 3038 	strh.w	r3, [sp, #56]	; 0x38
 800285e:	f8ad 6034 	strh.w	r6, [sp, #52]	; 0x34
 8002862:	f7ff fa8f 	bl	8001d84 <CRYP_Init>
 8002866:	6823      	ldr	r3, [r4, #0]
 8002868:	ba1b      	rev	r3, r3
 800286a:	9303      	str	r3, [sp, #12]
 800286c:	6863      	ldr	r3, [r4, #4]
 800286e:	ba1b      	rev	r3, r3
 8002870:	9304      	str	r3, [sp, #16]
 8002872:	68a3      	ldr	r3, [r4, #8]
 8002874:	ba1b      	rev	r3, r3
 8002876:	9305      	str	r3, [sp, #20]
 8002878:	68e3      	ldr	r3, [r4, #12]
 800287a:	ba1b      	rev	r3, r3
 800287c:	9306      	str	r3, [sp, #24]
 800287e:	6923      	ldr	r3, [r4, #16]
 8002880:	ba1b      	rev	r3, r3
 8002882:	9307      	str	r3, [sp, #28]
 8002884:	6963      	ldr	r3, [r4, #20]
 8002886:	ba1b      	rev	r3, r3
 8002888:	a801      	add	r0, sp, #4
 800288a:	9308      	str	r3, [sp, #32]
 800288c:	f7ff fab6 	bl	8001dfc <CRYP_KeyInit>
 8002890:	683b      	ldr	r3, [r7, #0]
 8002892:	ba1b      	rev	r3, r3
 8002894:	9309      	str	r3, [sp, #36]	; 0x24
 8002896:	687b      	ldr	r3, [r7, #4]
 8002898:	ba1b      	rev	r3, r3
 800289a:	a809      	add	r0, sp, #36	; 0x24
 800289c:	930a      	str	r3, [sp, #40]	; 0x28
 800289e:	f7ff facb 	bl	8001e38 <CRYP_IVInit>
 80028a2:	f7ff fadb 	bl	8001e5c <CRYP_FIFOFlush>
 80028a6:	2001      	movs	r0, #1
 80028a8:	f7ff fae0 	bl	8001e6c <CRYP_Cmd>
 80028ac:	f1b8 0f00 	cmp.w	r8, #0
 80028b0:	d02f      	beq.n	8002912 <CRYP_TDES_CBC+0xe6>
 80028b2:	9e19      	ldr	r6, [sp, #100]	; 0x64
 80028b4:	f109 0408 	add.w	r4, r9, #8
 80028b8:	3608      	adds	r6, #8
 80028ba:	462f      	mov	r7, r5
 80028bc:	f854 0c08 	ldr.w	r0, [r4, #-8]
 80028c0:	f7ff fae2 	bl	8001e88 <CRYP_DataIn>
 80028c4:	f854 0c04 	ldr.w	r0, [r4, #-4]
 80028c8:	f7ff fade 	bl	8001e88 <CRYP_DataIn>
 80028cc:	970f      	str	r7, [sp, #60]	; 0x3c
 80028ce:	e000      	b.n	80028d2 <CRYP_TDES_CBC+0xa6>
 80028d0:	b190      	cbz	r0, 80028f8 <CRYP_TDES_CBC+0xcc>
 80028d2:	2010      	movs	r0, #16
 80028d4:	f7ff fb8c 	bl	8001ff0 <CRYP_GetFlagStatus>
 80028d8:	9b0f      	ldr	r3, [sp, #60]	; 0x3c
 80028da:	3301      	adds	r3, #1
 80028dc:	930f      	str	r3, [sp, #60]	; 0x3c
 80028de:	9b0f      	ldr	r3, [sp, #60]	; 0x3c
 80028e0:	f5b3 3f80 	cmp.w	r3, #65536	; 0x10000
 80028e4:	d1f4      	bne.n	80028d0 <CRYP_TDES_CBC+0xa4>
 80028e6:	b138      	cbz	r0, 80028f8 <CRYP_TDES_CBC+0xcc>
 80028e8:	2400      	movs	r4, #0
 80028ea:	2000      	movs	r0, #0
 80028ec:	f7ff fabe 	bl	8001e6c <CRYP_Cmd>
 80028f0:	4620      	mov	r0, r4
 80028f2:	b011      	add	sp, #68	; 0x44
 80028f4:	e8bd 83f0 	ldmia.w	sp!, {r4, r5, r6, r7, r8, r9, pc}
 80028f8:	f7ff facc 	bl	8001e94 <CRYP_DataOut>
 80028fc:	f846 0c08 	str.w	r0, [r6, #-8]
 8002900:	f7ff fac8 	bl	8001e94 <CRYP_DataOut>
 8002904:	3508      	adds	r5, #8
 8002906:	f846 0c04 	str.w	r0, [r6, #-4]
 800290a:	3408      	adds	r4, #8
 800290c:	3608      	adds	r6, #8
 800290e:	45a8      	cmp	r8, r5
 8002910:	d8d4      	bhi.n	80028bc <CRYP_TDES_CBC+0x90>
 8002912:	2401      	movs	r4, #1
 8002914:	e7e9      	b.n	80028ea <CRYP_TDES_CBC+0xbe>
 8002916:	bf00      	nop

08002918 <DAC_DeInit>:
 8002918:	b508      	push	{r3, lr}
 800291a:	2101      	movs	r1, #1
 800291c:	f04f 5000 	mov.w	r0, #536870912	; 0x20000000
 8002920:	f002 fa92 	bl	8004e48 <RCC_APB1PeriphResetCmd>
 8002924:	f04f 5000 	mov.w	r0, #536870912	; 0x20000000
 8002928:	2100      	movs	r1, #0
 800292a:	e8bd 4008 	ldmia.w	sp!, {r3, lr}
 800292e:	f002 ba8b 	b.w	8004e48 <RCC_APB1PeriphResetCmd>
 8002932:	bf00      	nop

08002934 <DAC_Init>:
 8002934:	b470      	push	{r4, r5, r6}
 8002936:	e891 0060 	ldmia.w	r1, {r5, r6}
 800293a:	f44f 43e8 	mov.w	r3, #29696	; 0x7400
 800293e:	688c      	ldr	r4, [r1, #8]
 8002940:	68ca      	ldr	r2, [r1, #12]
 8002942:	f2c4 0300 	movt	r3, #16384	; 0x4000
 8002946:	ea46 0105 	orr.w	r1, r6, r5
 800294a:	430c      	orrs	r4, r1
 800294c:	681e      	ldr	r6, [r3, #0]
 800294e:	f640 75fe 	movw	r5, #4094	; 0xffe
 8002952:	4085      	lsls	r5, r0
 8002954:	4322      	orrs	r2, r4
 8002956:	ea26 0505 	bic.w	r5, r6, r5
 800295a:	fa12 f000 	lsls.w	r0, r2, r0
 800295e:	4328      	orrs	r0, r5
 8002960:	6018      	str	r0, [r3, #0]
 8002962:	bc70      	pop	{r4, r5, r6}
 8002964:	4770      	bx	lr
 8002966:	bf00      	nop

08002968 <DAC_StructInit>:
 8002968:	2300      	movs	r3, #0
 800296a:	6003      	str	r3, [r0, #0]
 800296c:	6043      	str	r3, [r0, #4]
 800296e:	6083      	str	r3, [r0, #8]
 8002970:	60c3      	str	r3, [r0, #12]
 8002972:	4770      	bx	lr

08002974 <DAC_Cmd>:
 8002974:	f44f 43e8 	mov.w	r3, #29696	; 0x7400
 8002978:	f2c4 0300 	movt	r3, #16384	; 0x4000
 800297c:	681a      	ldr	r2, [r3, #0]
 800297e:	b931      	cbnz	r1, 800298e <DAC_Cmd+0x1a>
 8002980:	2101      	movs	r1, #1
 8002982:	fa11 f000 	lsls.w	r0, r1, r0
 8002986:	ea22 0000 	bic.w	r0, r2, r0
 800298a:	6018      	str	r0, [r3, #0]
 800298c:	4770      	bx	lr
 800298e:	2101      	movs	r1, #1
 8002990:	fa11 f000 	lsls.w	r0, r1, r0
 8002994:	4310      	orrs	r0, r2
 8002996:	6018      	str	r0, [r3, #0]
 8002998:	4770      	bx	lr
 800299a:	bf00      	nop

0800299c <DAC_SoftwareTriggerCmd>:
 800299c:	f44f 43e8 	mov.w	r3, #29696	; 0x7400
 80029a0:	f2c4 0300 	movt	r3, #16384	; 0x4000
 80029a4:	0900      	lsrs	r0, r0, #4
 80029a6:	685a      	ldr	r2, [r3, #4]
 80029a8:	b931      	cbnz	r1, 80029b8 <DAC_SoftwareTriggerCmd+0x1c>
 80029aa:	2101      	movs	r1, #1
 80029ac:	fa11 f000 	lsls.w	r0, r1, r0
 80029b0:	ea22 0000 	bic.w	r0, r2, r0
 80029b4:	6058      	str	r0, [r3, #4]
 80029b6:	4770      	bx	lr
 80029b8:	2101      	movs	r1, #1
 80029ba:	fa11 f000 	lsls.w	r0, r1, r0
 80029be:	4310      	orrs	r0, r2
 80029c0:	6058      	str	r0, [r3, #4]
 80029c2:	4770      	bx	lr

080029c4 <DAC_DualSoftwareTriggerCmd>:
 80029c4:	f44f 43e8 	mov.w	r3, #29696	; 0x7400
 80029c8:	f2c4 0300 	movt	r3, #16384	; 0x4000
 80029cc:	685a      	ldr	r2, [r3, #4]
 80029ce:	b918      	cbnz	r0, 80029d8 <DAC_DualSoftwareTriggerCmd+0x14>
 80029d0:	f022 0203 	bic.w	r2, r2, #3
 80029d4:	605a      	str	r2, [r3, #4]
 80029d6:	4770      	bx	lr
 80029d8:	f042 0203 	orr.w	r2, r2, #3
 80029dc:	605a      	str	r2, [r3, #4]
 80029de:	4770      	bx	lr

080029e0 <DAC_WaveGenerationCmd>:
 80029e0:	f44f 43e8 	mov.w	r3, #29696	; 0x7400
 80029e4:	f2c4 0300 	movt	r3, #16384	; 0x4000
 80029e8:	4081      	lsls	r1, r0
 80029ea:	b922      	cbnz	r2, 80029f6 <DAC_WaveGenerationCmd+0x16>
 80029ec:	681a      	ldr	r2, [r3, #0]
 80029ee:	ea22 0101 	bic.w	r1, r2, r1
 80029f2:	6019      	str	r1, [r3, #0]
 80029f4:	4770      	bx	lr
 80029f6:	681a      	ldr	r2, [r3, #0]
 80029f8:	4311      	orrs	r1, r2
 80029fa:	6019      	str	r1, [r3, #0]
 80029fc:	4770      	bx	lr
 80029fe:	bf00      	nop

08002a00 <DAC_SetChannel1Data>:
 8002a00:	b082      	sub	sp, #8
 8002a02:	f44f 43e8 	mov.w	r3, #29696	; 0x7400
 8002a06:	f2c4 0300 	movt	r3, #16384	; 0x4000
 8002a0a:	2200      	movs	r2, #0
 8002a0c:	9201      	str	r2, [sp, #4]
 8002a0e:	9301      	str	r3, [sp, #4]
 8002a10:	9b01      	ldr	r3, [sp, #4]
 8002a12:	3308      	adds	r3, #8
 8002a14:	181b      	adds	r3, r3, r0
 8002a16:	9301      	str	r3, [sp, #4]
 8002a18:	9b01      	ldr	r3, [sp, #4]
 8002a1a:	6019      	str	r1, [r3, #0]
 8002a1c:	b002      	add	sp, #8
 8002a1e:	4770      	bx	lr

08002a20 <DAC_SetChannel2Data>:
 8002a20:	b082      	sub	sp, #8
 8002a22:	f44f 43e8 	mov.w	r3, #29696	; 0x7400
 8002a26:	f2c4 0300 	movt	r3, #16384	; 0x4000
 8002a2a:	2200      	movs	r2, #0
 8002a2c:	9201      	str	r2, [sp, #4]
 8002a2e:	9301      	str	r3, [sp, #4]
 8002a30:	9b01      	ldr	r3, [sp, #4]
 8002a32:	3314      	adds	r3, #20
 8002a34:	181b      	adds	r3, r3, r0
 8002a36:	9301      	str	r3, [sp, #4]
 8002a38:	9b01      	ldr	r3, [sp, #4]
 8002a3a:	6019      	str	r1, [r3, #0]
 8002a3c:	b002      	add	sp, #8
 8002a3e:	4770      	bx	lr

08002a40 <DAC_SetDualChannelData>:
 8002a40:	f247 4320 	movw	r3, #29728	; 0x7420
 8002a44:	2808      	cmp	r0, #8
 8002a46:	f2c4 0300 	movt	r3, #16384	; 0x4000
 8002a4a:	bf0c      	ite	eq
 8002a4c:	ea42 2101 	orreq.w	r1, r2, r1, lsl #8
 8002a50:	ea42 4101 	orrne.w	r1, r2, r1, lsl #16
 8002a54:	50c1      	str	r1, [r0, r3]
 8002a56:	4770      	bx	lr

08002a58 <DAC_GetDataOutputValue>:
 8002a58:	b082      	sub	sp, #8
 8002a5a:	f44f 43e8 	mov.w	r3, #29696	; 0x7400
 8002a5e:	f2c4 0300 	movt	r3, #16384	; 0x4000
 8002a62:	2200      	movs	r2, #0
 8002a64:	9201      	str	r2, [sp, #4]
 8002a66:	9301      	str	r3, [sp, #4]
 8002a68:	9b01      	ldr	r3, [sp, #4]
 8002a6a:	332c      	adds	r3, #44	; 0x2c
 8002a6c:	eb03 0390 	add.w	r3, r3, r0, lsr #2
 8002a70:	9301      	str	r3, [sp, #4]
 8002a72:	9b01      	ldr	r3, [sp, #4]
 8002a74:	6818      	ldr	r0, [r3, #0]
 8002a76:	b280      	uxth	r0, r0
 8002a78:	b002      	add	sp, #8
 8002a7a:	4770      	bx	lr

08002a7c <DAC_DMACmd>:
 8002a7c:	f44f 43e8 	mov.w	r3, #29696	; 0x7400
 8002a80:	f2c4 0300 	movt	r3, #16384	; 0x4000
 8002a84:	681a      	ldr	r2, [r3, #0]
 8002a86:	b939      	cbnz	r1, 8002a98 <DAC_DMACmd+0x1c>
 8002a88:	f44f 5180 	mov.w	r1, #4096	; 0x1000
 8002a8c:	fa11 f000 	lsls.w	r0, r1, r0
 8002a90:	ea22 0000 	bic.w	r0, r2, r0
 8002a94:	6018      	str	r0, [r3, #0]
 8002a96:	4770      	bx	lr
 8002a98:	f44f 5180 	mov.w	r1, #4096	; 0x1000
 8002a9c:	fa11 f000 	lsls.w	r0, r1, r0
 8002aa0:	4310      	orrs	r0, r2
 8002aa2:	6018      	str	r0, [r3, #0]
 8002aa4:	4770      	bx	lr
 8002aa6:	bf00      	nop

08002aa8 <DAC_ITConfig>:
 8002aa8:	f44f 43e8 	mov.w	r3, #29696	; 0x7400
 8002aac:	f2c4 0300 	movt	r3, #16384	; 0x4000
 8002ab0:	4081      	lsls	r1, r0
 8002ab2:	b922      	cbnz	r2, 8002abe <DAC_ITConfig+0x16>
 8002ab4:	681a      	ldr	r2, [r3, #0]
 8002ab6:	ea22 0101 	bic.w	r1, r2, r1
 8002aba:	6019      	str	r1, [r3, #0]
 8002abc:	4770      	bx	lr
 8002abe:	681a      	ldr	r2, [r3, #0]
 8002ac0:	4311      	orrs	r1, r2
 8002ac2:	6019      	str	r1, [r3, #0]
 8002ac4:	4770      	bx	lr
 8002ac6:	bf00      	nop

08002ac8 <DAC_GetFlagStatus>:
 8002ac8:	f44f 43e8 	mov.w	r3, #29696	; 0x7400
 8002acc:	f2c4 0300 	movt	r3, #16384	; 0x4000
 8002ad0:	4081      	lsls	r1, r0
 8002ad2:	6b5b      	ldr	r3, [r3, #52]	; 0x34
 8002ad4:	4219      	tst	r1, r3
 8002ad6:	bf0c      	ite	eq
 8002ad8:	2000      	moveq	r0, #0
 8002ada:	2001      	movne	r0, #1
 8002adc:	4770      	bx	lr
 8002ade:	bf00      	nop

08002ae0 <DAC_ClearFlag>:
 8002ae0:	f44f 43e8 	mov.w	r3, #29696	; 0x7400
 8002ae4:	f2c4 0300 	movt	r3, #16384	; 0x4000
 8002ae8:	4081      	lsls	r1, r0
 8002aea:	6359      	str	r1, [r3, #52]	; 0x34
 8002aec:	4770      	bx	lr
 8002aee:	bf00      	nop

08002af0 <DAC_GetITStatus>:
 8002af0:	f44f 43e8 	mov.w	r3, #29696	; 0x7400
 8002af4:	f2c4 0300 	movt	r3, #16384	; 0x4000
 8002af8:	4081      	lsls	r1, r0
 8002afa:	681a      	ldr	r2, [r3, #0]
 8002afc:	6b58      	ldr	r0, [r3, #52]	; 0x34
 8002afe:	4008      	ands	r0, r1
 8002b00:	d003      	beq.n	8002b0a <DAC_GetITStatus+0x1a>
 8002b02:	4211      	tst	r1, r2
 8002b04:	bf0c      	ite	eq
 8002b06:	2000      	moveq	r0, #0
 8002b08:	2001      	movne	r0, #1
 8002b0a:	4770      	bx	lr

08002b0c <DAC_ClearITPendingBit>:
 8002b0c:	f44f 43e8 	mov.w	r3, #29696	; 0x7400
 8002b10:	f2c4 0300 	movt	r3, #16384	; 0x4000
 8002b14:	4081      	lsls	r1, r0
 8002b16:	6359      	str	r1, [r3, #52]	; 0x34
 8002b18:	4770      	bx	lr
 8002b1a:	bf00      	nop

08002b1c <DBGMCU_GetREVID>:
 8002b1c:	f44f 5300 	mov.w	r3, #8192	; 0x2000
 8002b20:	f2ce 0304 	movt	r3, #57348	; 0xe004
 8002b24:	6818      	ldr	r0, [r3, #0]
 8002b26:	0c00      	lsrs	r0, r0, #16
 8002b28:	4770      	bx	lr
 8002b2a:	bf00      	nop

08002b2c <DBGMCU_GetDEVID>:
 8002b2c:	f44f 5300 	mov.w	r3, #8192	; 0x2000
 8002b30:	f2ce 0304 	movt	r3, #57348	; 0xe004
 8002b34:	6818      	ldr	r0, [r3, #0]
 8002b36:	0500      	lsls	r0, r0, #20
 8002b38:	0d00      	lsrs	r0, r0, #20
 8002b3a:	4770      	bx	lr

08002b3c <DBGMCU_Config>:
 8002b3c:	f44f 5300 	mov.w	r3, #8192	; 0x2000
 8002b40:	f2ce 0304 	movt	r3, #57348	; 0xe004
 8002b44:	685a      	ldr	r2, [r3, #4]
 8002b46:	b919      	cbnz	r1, 8002b50 <DBGMCU_Config+0x14>
 8002b48:	ea22 0000 	bic.w	r0, r2, r0
 8002b4c:	6058      	str	r0, [r3, #4]
 8002b4e:	4770      	bx	lr
 8002b50:	4310      	orrs	r0, r2
 8002b52:	6058      	str	r0, [r3, #4]
 8002b54:	4770      	bx	lr
 8002b56:	bf00      	nop

08002b58 <DBGMCU_APB1PeriphConfig>:
 8002b58:	f44f 5300 	mov.w	r3, #8192	; 0x2000
 8002b5c:	f2ce 0304 	movt	r3, #57348	; 0xe004
 8002b60:	689a      	ldr	r2, [r3, #8]
 8002b62:	b919      	cbnz	r1, 8002b6c <DBGMCU_APB1PeriphConfig+0x14>
 8002b64:	ea22 0000 	bic.w	r0, r2, r0
 8002b68:	6098      	str	r0, [r3, #8]
 8002b6a:	4770      	bx	lr
 8002b6c:	4310      	orrs	r0, r2
 8002b6e:	6098      	str	r0, [r3, #8]
 8002b70:	4770      	bx	lr
 8002b72:	bf00      	nop

08002b74 <DBGMCU_APB2PeriphConfig>:
 8002b74:	f44f 5300 	mov.w	r3, #8192	; 0x2000
 8002b78:	f2ce 0304 	movt	r3, #57348	; 0xe004
 8002b7c:	68da      	ldr	r2, [r3, #12]
 8002b7e:	b919      	cbnz	r1, 8002b88 <DBGMCU_APB2PeriphConfig+0x14>
 8002b80:	ea22 0000 	bic.w	r0, r2, r0
 8002b84:	60d8      	str	r0, [r3, #12]
 8002b86:	4770      	bx	lr
 8002b88:	4310      	orrs	r0, r2
 8002b8a:	60d8      	str	r0, [r3, #12]
 8002b8c:	4770      	bx	lr
 8002b8e:	bf00      	nop

08002b90 <DCMI_DeInit>:
 8002b90:	2300      	movs	r3, #0
 8002b92:	f2c5 0305 	movt	r3, #20485	; 0x5005
 8002b96:	2200      	movs	r2, #0
 8002b98:	211f      	movs	r1, #31
 8002b9a:	601a      	str	r2, [r3, #0]
 8002b9c:	60da      	str	r2, [r3, #12]
 8002b9e:	6159      	str	r1, [r3, #20]
 8002ba0:	619a      	str	r2, [r3, #24]
 8002ba2:	61da      	str	r2, [r3, #28]
 8002ba4:	621a      	str	r2, [r3, #32]
 8002ba6:	625a      	str	r2, [r3, #36]	; 0x24
 8002ba8:	4770      	bx	lr
 8002baa:	bf00      	nop

08002bac <DCMI_Init>:
 8002bac:	2300      	movs	r3, #0
 8002bae:	f2c5 0305 	movt	r3, #20485	; 0x5005
 8002bb2:	b4f0      	push	{r4, r5, r6, r7}
 8002bb4:	f8b0 c002 	ldrh.w	ip, [r0, #2]
 8002bb8:	681e      	ldr	r6, [r3, #0]
 8002bba:	8802      	ldrh	r2, [r0, #0]
 8002bbc:	8887      	ldrh	r7, [r0, #4]
 8002bbe:	88c1      	ldrh	r1, [r0, #6]
 8002bc0:	8905      	ldrh	r5, [r0, #8]
 8002bc2:	8944      	ldrh	r4, [r0, #10]
 8002bc4:	8980      	ldrh	r0, [r0, #12]
 8002bc6:	f426 4680 	bic.w	r6, r6, #16384	; 0x4000
 8002bca:	ea4c 0202 	orr.w	r2, ip, r2
 8002bce:	f026 0601 	bic.w	r6, r6, #1
 8002bd2:	433a      	orrs	r2, r7
 8002bd4:	601e      	str	r6, [r3, #0]
 8002bd6:	430a      	orrs	r2, r1
 8002bd8:	432a      	orrs	r2, r5
 8002bda:	6819      	ldr	r1, [r3, #0]
 8002bdc:	4322      	orrs	r2, r4
 8002bde:	f421 617f 	bic.w	r1, r1, #4080	; 0xff0
 8002be2:	4302      	orrs	r2, r0
 8002be4:	f021 0102 	bic.w	r1, r1, #2
 8002be8:	b292      	uxth	r2, r2
 8002bea:	430a      	orrs	r2, r1
 8002bec:	601a      	str	r2, [r3, #0]
 8002bee:	bcf0      	pop	{r4, r5, r6, r7}
 8002bf0:	4770      	bx	lr
 8002bf2:	bf00      	nop

08002bf4 <DCMI_StructInit>:
 8002bf4:	2300      	movs	r3, #0
 8002bf6:	8003      	strh	r3, [r0, #0]
 8002bf8:	8043      	strh	r3, [r0, #2]
 8002bfa:	8083      	strh	r3, [r0, #4]
 8002bfc:	80c3      	strh	r3, [r0, #6]
 8002bfe:	8103      	strh	r3, [r0, #8]
 8002c00:	8143      	strh	r3, [r0, #10]
 8002c02:	8183      	strh	r3, [r0, #12]
 8002c04:	4770      	bx	lr
 8002c06:	bf00      	nop

08002c08 <DCMI_CROPConfig>:
 8002c08:	b430      	push	{r4, r5}
 8002c0a:	8841      	ldrh	r1, [r0, #2]
 8002c0c:	8805      	ldrh	r5, [r0, #0]
 8002c0e:	8884      	ldrh	r4, [r0, #4]
 8002c10:	88c2      	ldrh	r2, [r0, #6]
 8002c12:	2300      	movs	r3, #0
 8002c14:	f2c5 0305 	movt	r3, #20485	; 0x5005
 8002c18:	ea41 4105 	orr.w	r1, r1, r5, lsl #16
 8002c1c:	ea42 4204 	orr.w	r2, r2, r4, lsl #16
 8002c20:	6219      	str	r1, [r3, #32]
 8002c22:	625a      	str	r2, [r3, #36]	; 0x24
 8002c24:	bc30      	pop	{r4, r5}
 8002c26:	4770      	bx	lr

08002c28 <DCMI_CROPCmd>:
 8002c28:	2300      	movs	r3, #0
 8002c2a:	f2c5 0305 	movt	r3, #20485	; 0x5005
 8002c2e:	681a      	ldr	r2, [r3, #0]
 8002c30:	b918      	cbnz	r0, 8002c3a <DCMI_CROPCmd+0x12>
 8002c32:	f022 0204 	bic.w	r2, r2, #4
 8002c36:	601a      	str	r2, [r3, #0]
 8002c38:	4770      	bx	lr
 8002c3a:	f042 0204 	orr.w	r2, r2, #4
 8002c3e:	601a      	str	r2, [r3, #0]
 8002c40:	4770      	bx	lr
 8002c42:	bf00      	nop

08002c44 <DCMI_SetEmbeddedSynchroCodes>:
 8002c44:	7882      	ldrb	r2, [r0, #2]
 8002c46:	78c1      	ldrb	r1, [r0, #3]
 8002c48:	b430      	push	{r4, r5}
 8002c4a:	7845      	ldrb	r5, [r0, #1]
 8002c4c:	7804      	ldrb	r4, [r0, #0]
 8002c4e:	0412      	lsls	r2, r2, #16
 8002c50:	2300      	movs	r3, #0
 8002c52:	ea42 2205 	orr.w	r2, r2, r5, lsl #8
 8002c56:	4322      	orrs	r2, r4
 8002c58:	f2c5 0305 	movt	r3, #20485	; 0x5005
 8002c5c:	ea42 6201 	orr.w	r2, r2, r1, lsl #24
 8002c60:	619a      	str	r2, [r3, #24]
 8002c62:	bc30      	pop	{r4, r5}
 8002c64:	4770      	bx	lr
 8002c66:	bf00      	nop

08002c68 <DCMI_JPEGCmd>:
 8002c68:	2300      	movs	r3, #0
 8002c6a:	f2c5 0305 	movt	r3, #20485	; 0x5005
 8002c6e:	681a      	ldr	r2, [r3, #0]
 8002c70:	b918      	cbnz	r0, 8002c7a <DCMI_JPEGCmd+0x12>
 8002c72:	f022 0208 	bic.w	r2, r2, #8
 8002c76:	601a      	str	r2, [r3, #0]
 8002c78:	4770      	bx	lr
 8002c7a:	f042 0208 	orr.w	r2, r2, #8
 8002c7e:	601a      	str	r2, [r3, #0]
 8002c80:	4770      	bx	lr
 8002c82:	bf00      	nop

08002c84 <DCMI_Cmd>:
 8002c84:	2300      	movs	r3, #0
 8002c86:	f2c5 0305 	movt	r3, #20485	; 0x5005
 8002c8a:	681a      	ldr	r2, [r3, #0]
 8002c8c:	b918      	cbnz	r0, 8002c96 <DCMI_Cmd+0x12>
 8002c8e:	f422 4280 	bic.w	r2, r2, #16384	; 0x4000
 8002c92:	601a      	str	r2, [r3, #0]
 8002c94:	4770      	bx	lr
 8002c96:	f442 4280 	orr.w	r2, r2, #16384	; 0x4000
 8002c9a:	601a      	str	r2, [r3, #0]
 8002c9c:	4770      	bx	lr
 8002c9e:	bf00      	nop

08002ca0 <DCMI_CaptureCmd>:
 8002ca0:	2300      	movs	r3, #0
 8002ca2:	f2c5 0305 	movt	r3, #20485	; 0x5005
 8002ca6:	681a      	ldr	r2, [r3, #0]
 8002ca8:	b918      	cbnz	r0, 8002cb2 <DCMI_CaptureCmd+0x12>
 8002caa:	f022 0201 	bic.w	r2, r2, #1
 8002cae:	601a      	str	r2, [r3, #0]
 8002cb0:	4770      	bx	lr
 8002cb2:	f042 0201 	orr.w	r2, r2, #1
 8002cb6:	601a      	str	r2, [r3, #0]
 8002cb8:	4770      	bx	lr
 8002cba:	bf00      	nop

08002cbc <DCMI_ReadData>:
 8002cbc:	2300      	movs	r3, #0
 8002cbe:	f2c5 0305 	movt	r3, #20485	; 0x5005
 8002cc2:	6a98      	ldr	r0, [r3, #40]	; 0x28
 8002cc4:	4770      	bx	lr
 8002cc6:	bf00      	nop

08002cc8 <DCMI_ITConfig>:
 8002cc8:	2300      	movs	r3, #0
 8002cca:	f2c5 0305 	movt	r3, #20485	; 0x5005
 8002cce:	b929      	cbnz	r1, 8002cdc <DCMI_ITConfig+0x14>
 8002cd0:	68da      	ldr	r2, [r3, #12]
 8002cd2:	43c0      	mvns	r0, r0
 8002cd4:	b280      	uxth	r0, r0
 8002cd6:	4010      	ands	r0, r2
 8002cd8:	60d8      	str	r0, [r3, #12]
 8002cda:	4770      	bx	lr
 8002cdc:	68da      	ldr	r2, [r3, #12]
 8002cde:	4310      	orrs	r0, r2
 8002ce0:	60d8      	str	r0, [r3, #12]
 8002ce2:	4770      	bx	lr

08002ce4 <DCMI_GetFlagStatus>:
 8002ce4:	0b03      	lsrs	r3, r0, #12
 8002ce6:	2b01      	cmp	r3, #1
 8002ce8:	d00c      	beq.n	8002d04 <DCMI_GetFlagStatus+0x20>
 8002cea:	2b02      	cmp	r3, #2
 8002cec:	f04f 0300 	mov.w	r3, #0
 8002cf0:	f2c5 0305 	movt	r3, #20485	; 0x5005
 8002cf4:	bf0c      	ite	eq
 8002cf6:	685b      	ldreq	r3, [r3, #4]
 8002cf8:	691b      	ldrne	r3, [r3, #16]
 8002cfa:	4203      	tst	r3, r0
 8002cfc:	bf0c      	ite	eq
 8002cfe:	2000      	moveq	r0, #0
 8002d00:	2001      	movne	r0, #1
 8002d02:	4770      	bx	lr
 8002d04:	2300      	movs	r3, #0
 8002d06:	f2c5 0305 	movt	r3, #20485	; 0x5005
 8002d0a:	689b      	ldr	r3, [r3, #8]
 8002d0c:	e7f5      	b.n	8002cfa <DCMI_GetFlagStatus+0x16>
 8002d0e:	bf00      	nop

08002d10 <DCMI_ClearFlag>:
 8002d10:	2300      	movs	r3, #0
 8002d12:	f2c5 0305 	movt	r3, #20485	; 0x5005
 8002d16:	6158      	str	r0, [r3, #20]
 8002d18:	4770      	bx	lr
 8002d1a:	bf00      	nop

08002d1c <DCMI_GetITStatus>:
 8002d1c:	2300      	movs	r3, #0
 8002d1e:	f2c5 0305 	movt	r3, #20485	; 0x5005
 8002d22:	691b      	ldr	r3, [r3, #16]
 8002d24:	4218      	tst	r0, r3
 8002d26:	bf0c      	ite	eq
 8002d28:	2000      	moveq	r0, #0
 8002d2a:	2001      	movne	r0, #1
 8002d2c:	4770      	bx	lr
 8002d2e:	bf00      	nop

08002d30 <DCMI_ClearITPendingBit>:
 8002d30:	2300      	movs	r3, #0
 8002d32:	f2c5 0305 	movt	r3, #20485	; 0x5005
 8002d36:	6158      	str	r0, [r3, #20]
 8002d38:	4770      	bx	lr
 8002d3a:	bf00      	nop

08002d3c <DMA_DeInit>:
 8002d3c:	6801      	ldr	r1, [r0, #0]
 8002d3e:	f246 0210 	movw	r2, #24592	; 0x6010
 8002d42:	2300      	movs	r3, #0
 8002d44:	f021 0101 	bic.w	r1, r1, #1
 8002d48:	f2c4 0202 	movt	r2, #16386	; 0x4002
 8002d4c:	6001      	str	r1, [r0, #0]
 8002d4e:	6003      	str	r3, [r0, #0]
 8002d50:	6043      	str	r3, [r0, #4]
 8002d52:	6083      	str	r3, [r0, #8]
 8002d54:	60c3      	str	r3, [r0, #12]
 8002d56:	6103      	str	r3, [r0, #16]
 8002d58:	2321      	movs	r3, #33	; 0x21
 8002d5a:	4290      	cmp	r0, r2
 8002d5c:	6143      	str	r3, [r0, #20]
 8002d5e:	d06b      	beq.n	8002e38 <DMA_DeInit+0xfc>
 8002d60:	f246 0328 	movw	r3, #24616	; 0x6028
 8002d64:	f2c4 0302 	movt	r3, #16386	; 0x4002
 8002d68:	4298      	cmp	r0, r3
 8002d6a:	d06c      	beq.n	8002e46 <DMA_DeInit+0x10a>
 8002d6c:	f246 0340 	movw	r3, #24640	; 0x6040
 8002d70:	f2c4 0302 	movt	r3, #16386	; 0x4002
 8002d74:	4298      	cmp	r0, r3
 8002d76:	d06e      	beq.n	8002e56 <DMA_DeInit+0x11a>
 8002d78:	f246 0358 	movw	r3, #24664	; 0x6058
 8002d7c:	f2c4 0302 	movt	r3, #16386	; 0x4002
 8002d80:	4298      	cmp	r0, r3
 8002d82:	d070      	beq.n	8002e66 <DMA_DeInit+0x12a>
 8002d84:	f246 0370 	movw	r3, #24688	; 0x6070
 8002d88:	f2c4 0302 	movt	r3, #16386	; 0x4002
 8002d8c:	4298      	cmp	r0, r3
 8002d8e:	d072      	beq.n	8002e76 <DMA_DeInit+0x13a>
 8002d90:	f246 0388 	movw	r3, #24712	; 0x6088
 8002d94:	f2c4 0302 	movt	r3, #16386	; 0x4002
 8002d98:	4298      	cmp	r0, r3
 8002d9a:	d075      	beq.n	8002e88 <DMA_DeInit+0x14c>
 8002d9c:	f246 03a0 	movw	r3, #24736	; 0x60a0
 8002da0:	f2c4 0302 	movt	r3, #16386	; 0x4002
 8002da4:	4298      	cmp	r0, r3
 8002da6:	d03e      	beq.n	8002e26 <DMA_DeInit+0xea>
 8002da8:	f246 03b8 	movw	r3, #24760	; 0x60b8
 8002dac:	f2c4 0302 	movt	r3, #16386	; 0x4002
 8002db0:	4298      	cmp	r0, r3
 8002db2:	d073      	beq.n	8002e9c <DMA_DeInit+0x160>
 8002db4:	f246 4310 	movw	r3, #25616	; 0x6410
 8002db8:	f2c4 0302 	movt	r3, #16386	; 0x4002
 8002dbc:	4298      	cmp	r0, r3
 8002dbe:	d075      	beq.n	8002eac <DMA_DeInit+0x170>
 8002dc0:	f246 4328 	movw	r3, #25640	; 0x6428
 8002dc4:	f2c4 0302 	movt	r3, #16386	; 0x4002
 8002dc8:	4298      	cmp	r0, r3
 8002dca:	d076      	beq.n	8002eba <DMA_DeInit+0x17e>
 8002dcc:	f246 4340 	movw	r3, #25664	; 0x6440
 8002dd0:	f2c4 0302 	movt	r3, #16386	; 0x4002
 8002dd4:	4298      	cmp	r0, r3
 8002dd6:	d078      	beq.n	8002eca <DMA_DeInit+0x18e>
 8002dd8:	f246 4358 	movw	r3, #25688	; 0x6458
 8002ddc:	f2c4 0302 	movt	r3, #16386	; 0x4002
 8002de0:	4298      	cmp	r0, r3
 8002de2:	d07a      	beq.n	8002eda <DMA_DeInit+0x19e>
 8002de4:	f246 4370 	movw	r3, #25712	; 0x6470
 8002de8:	f2c4 0302 	movt	r3, #16386	; 0x4002
 8002dec:	4298      	cmp	r0, r3
 8002dee:	d07c      	beq.n	8002eea <DMA_DeInit+0x1ae>
 8002df0:	f246 4388 	movw	r3, #25736	; 0x6488
 8002df4:	f2c4 0302 	movt	r3, #16386	; 0x4002
 8002df8:	4298      	cmp	r0, r3
 8002dfa:	d07f      	beq.n	8002efc <DMA_DeInit+0x1c0>
 8002dfc:	f246 43a0 	movw	r3, #25760	; 0x64a0
 8002e00:	f2c4 0302 	movt	r3, #16386	; 0x4002
 8002e04:	4298      	cmp	r0, r3
 8002e06:	f000 8083 	beq.w	8002f10 <DMA_DeInit+0x1d4>
 8002e0a:	f246 43b8 	movw	r3, #25784	; 0x64b8
 8002e0e:	f2c4 0302 	movt	r3, #16386	; 0x4002
 8002e12:	4298      	cmp	r0, r3
 8002e14:	bf01      	itttt	eq
 8002e16:	f44f 43c8 	moveq.w	r3, #25600	; 0x6400
 8002e1a:	f2c4 0302 	movteq	r3, #16386	; 0x4002
 8002e1e:	f04f 523d 	moveq.w	r2, #792723456	; 0x2f400000
 8002e22:	60da      	streq	r2, [r3, #12]
 8002e24:	4770      	bx	lr
 8002e26:	f44f 43c0 	mov.w	r3, #24576	; 0x6000
 8002e2a:	f2c4 0302 	movt	r3, #16386	; 0x4002
 8002e2e:	2200      	movs	r2, #0
 8002e30:	f2c2 023d 	movt	r2, #8253	; 0x203d
 8002e34:	60da      	str	r2, [r3, #12]
 8002e36:	4770      	bx	lr
 8002e38:	f44f 43c0 	mov.w	r3, #24576	; 0x6000
 8002e3c:	f2c4 0302 	movt	r3, #16386	; 0x4002
 8002e40:	223d      	movs	r2, #61	; 0x3d
 8002e42:	609a      	str	r2, [r3, #8]
 8002e44:	4770      	bx	lr
 8002e46:	f44f 43c0 	mov.w	r3, #24576	; 0x6000
 8002e4a:	f2c4 0302 	movt	r3, #16386	; 0x4002
 8002e4e:	f44f 6274 	mov.w	r2, #3904	; 0xf40
 8002e52:	609a      	str	r2, [r3, #8]
 8002e54:	4770      	bx	lr
 8002e56:	f44f 43c0 	mov.w	r3, #24576	; 0x6000
 8002e5a:	f2c4 0302 	movt	r3, #16386	; 0x4002
 8002e5e:	f44f 1274 	mov.w	r2, #3997696	; 0x3d0000
 8002e62:	609a      	str	r2, [r3, #8]
 8002e64:	4770      	bx	lr
 8002e66:	f44f 43c0 	mov.w	r3, #24576	; 0x6000
 8002e6a:	f2c4 0302 	movt	r3, #16386	; 0x4002
 8002e6e:	f04f 6274 	mov.w	r2, #255852544	; 0xf400000
 8002e72:	609a      	str	r2, [r3, #8]
 8002e74:	4770      	bx	lr
 8002e76:	f44f 43c0 	mov.w	r3, #24576	; 0x6000
 8002e7a:	f2c4 0302 	movt	r3, #16386	; 0x4002
 8002e7e:	223d      	movs	r2, #61	; 0x3d
 8002e80:	f2c2 0200 	movt	r2, #8192	; 0x2000
 8002e84:	60da      	str	r2, [r3, #12]
 8002e86:	4770      	bx	lr
 8002e88:	f44f 43c0 	mov.w	r3, #24576	; 0x6000
 8002e8c:	f2c4 0302 	movt	r3, #16386	; 0x4002
 8002e90:	f44f 6274 	mov.w	r2, #3904	; 0xf40
 8002e94:	f2c2 0200 	movt	r2, #8192	; 0x2000
 8002e98:	60da      	str	r2, [r3, #12]
 8002e9a:	4770      	bx	lr
 8002e9c:	f44f 43c0 	mov.w	r3, #24576	; 0x6000
 8002ea0:	f2c4 0302 	movt	r3, #16386	; 0x4002
 8002ea4:	f04f 523d 	mov.w	r2, #792723456	; 0x2f400000
 8002ea8:	60da      	str	r2, [r3, #12]
 8002eaa:	4770      	bx	lr
 8002eac:	f44f 43c8 	mov.w	r3, #25600	; 0x6400
 8002eb0:	f2c4 0302 	movt	r3, #16386	; 0x4002
 8002eb4:	223d      	movs	r2, #61	; 0x3d
 8002eb6:	609a      	str	r2, [r3, #8]
 8002eb8:	4770      	bx	lr
 8002eba:	f44f 43c8 	mov.w	r3, #25600	; 0x6400
 8002ebe:	f2c4 0302 	movt	r3, #16386	; 0x4002
 8002ec2:	f44f 6274 	mov.w	r2, #3904	; 0xf40
 8002ec6:	609a      	str	r2, [r3, #8]
 8002ec8:	4770      	bx	lr
 8002eca:	f44f 43c8 	mov.w	r3, #25600	; 0x6400
 8002ece:	f2c4 0302 	movt	r3, #16386	; 0x4002
 8002ed2:	f44f 1274 	mov.w	r2, #3997696	; 0x3d0000
 8002ed6:	609a      	str	r2, [r3, #8]
 8002ed8:	4770      	bx	lr
 8002eda:	f44f 43c8 	mov.w	r3, #25600	; 0x6400
 8002ede:	f2c4 0302 	movt	r3, #16386	; 0x4002
 8002ee2:	f04f 6274 	mov.w	r2, #255852544	; 0xf400000
 8002ee6:	609a      	str	r2, [r3, #8]
 8002ee8:	4770      	bx	lr
 8002eea:	f44f 43c8 	mov.w	r3, #25600	; 0x6400
 8002eee:	f2c4 0302 	movt	r3, #16386	; 0x4002
 8002ef2:	223d      	movs	r2, #61	; 0x3d
 8002ef4:	f2c2 0200 	movt	r2, #8192	; 0x2000
 8002ef8:	60da      	str	r2, [r3, #12]
 8002efa:	4770      	bx	lr
 8002efc:	f44f 43c8 	mov.w	r3, #25600	; 0x6400
 8002f00:	f2c4 0302 	movt	r3, #16386	; 0x4002
 8002f04:	f44f 6274 	mov.w	r2, #3904	; 0xf40
 8002f08:	f2c2 0200 	movt	r2, #8192	; 0x2000
 8002f0c:	60da      	str	r2, [r3, #12]
 8002f0e:	4770      	bx	lr
 8002f10:	f44f 43c8 	mov.w	r3, #25600	; 0x6400
 8002f14:	f2c4 0302 	movt	r3, #16386	; 0x4002
 8002f18:	2200      	movs	r2, #0
 8002f1a:	f2c2 023d 	movt	r2, #8253	; 0x203d
 8002f1e:	60da      	str	r2, [r3, #12]
 8002f20:	4770      	bx	lr
 8002f22:	bf00      	nop

08002f24 <DMA_Init>:
 8002f24:	e92d 0ff0 	stmdb	sp!, {r4, r5, r6, r7, r8, r9, sl, fp}
 8002f28:	f8d1 a00c 	ldr.w	sl, [r1, #12]
 8002f2c:	f8d1 9000 	ldr.w	r9, [r1]
 8002f30:	f8d1 8014 	ldr.w	r8, [r1, #20]
 8002f34:	f8d1 c018 	ldr.w	ip, [r1, #24]
 8002f38:	69cf      	ldr	r7, [r1, #28]
 8002f3a:	6803      	ldr	r3, [r0, #0]
 8002f3c:	6a0e      	ldr	r6, [r1, #32]
 8002f3e:	6a4d      	ldr	r5, [r1, #36]	; 0x24
 8002f40:	6a8c      	ldr	r4, [r1, #40]	; 0x28
 8002f42:	6b4a      	ldr	r2, [r1, #52]	; 0x34
 8002f44:	f8d1 b038 	ldr.w	fp, [r1, #56]	; 0x38
 8002f48:	ea4a 0909 	orr.w	r9, sl, r9
 8002f4c:	ea49 0908 	orr.w	r9, r9, r8
 8002f50:	b086      	sub	sp, #24
 8002f52:	ea49 090c 	orr.w	r9, r9, ip
 8002f56:	ea49 0907 	orr.w	r9, r9, r7
 8002f5a:	9301      	str	r3, [sp, #4]
 8002f5c:	ea49 0906 	orr.w	r9, r9, r6
 8002f60:	6b0b      	ldr	r3, [r1, #48]	; 0x30
 8002f62:	ea49 0505 	orr.w	r5, r9, r5
 8002f66:	432c      	orrs	r4, r5
 8002f68:	9304      	str	r3, [sp, #16]
 8002f6a:	6acb      	ldr	r3, [r1, #44]	; 0x2c
 8002f6c:	9d04      	ldr	r5, [sp, #16]
 8002f6e:	9305      	str	r3, [sp, #20]
 8002f70:	4322      	orrs	r2, r4
 8002f72:	f248 083f 	movw	r8, #32831	; 0x803f
 8002f76:	9c01      	ldr	r4, [sp, #4]
 8002f78:	690b      	ldr	r3, [r1, #16]
 8002f7a:	f2cf 081c 	movt	r8, #61468	; 0xf01c
 8002f7e:	ea04 0808 	and.w	r8, r4, r8
 8002f82:	ea42 020b 	orr.w	r2, r2, fp
 8002f86:	9302      	str	r3, [sp, #8]
 8002f88:	ea42 0208 	orr.w	r2, r2, r8
 8002f8c:	684b      	ldr	r3, [r1, #4]
 8002f8e:	6889      	ldr	r1, [r1, #8]
 8002f90:	6002      	str	r2, [r0, #0]
 8002f92:	9303      	str	r3, [sp, #12]
 8002f94:	9c05      	ldr	r4, [sp, #20]
 8002f96:	6943      	ldr	r3, [r0, #20]
 8002f98:	ea45 0204 	orr.w	r2, r5, r4
 8002f9c:	f023 0307 	bic.w	r3, r3, #7
 8002fa0:	4313      	orrs	r3, r2
 8002fa2:	6143      	str	r3, [r0, #20]
 8002fa4:	9d02      	ldr	r5, [sp, #8]
 8002fa6:	9b03      	ldr	r3, [sp, #12]
 8002fa8:	6045      	str	r5, [r0, #4]
 8002faa:	6083      	str	r3, [r0, #8]
 8002fac:	60c1      	str	r1, [r0, #12]
 8002fae:	b006      	add	sp, #24
 8002fb0:	e8bd 0ff0 	ldmia.w	sp!, {r4, r5, r6, r7, r8, r9, sl, fp}
 8002fb4:	4770      	bx	lr
 8002fb6:	bf00      	nop

08002fb8 <DMA_StructInit>:
 8002fb8:	2300      	movs	r3, #0
 8002fba:	6003      	str	r3, [r0, #0]
 8002fbc:	6043      	str	r3, [r0, #4]
 8002fbe:	6083      	str	r3, [r0, #8]
 8002fc0:	60c3      	str	r3, [r0, #12]
 8002fc2:	6103      	str	r3, [r0, #16]
 8002fc4:	6143      	str	r3, [r0, #20]
 8002fc6:	6183      	str	r3, [r0, #24]
 8002fc8:	61c3      	str	r3, [r0, #28]
 8002fca:	6203      	str	r3, [r0, #32]
 8002fcc:	6243      	str	r3, [r0, #36]	; 0x24
 8002fce:	6283      	str	r3, [r0, #40]	; 0x28
 8002fd0:	62c3      	str	r3, [r0, #44]	; 0x2c
 8002fd2:	6303      	str	r3, [r0, #48]	; 0x30
 8002fd4:	6343      	str	r3, [r0, #52]	; 0x34
 8002fd6:	6383      	str	r3, [r0, #56]	; 0x38
 8002fd8:	4770      	bx	lr
 8002fda:	bf00      	nop

08002fdc <DMA_Cmd>:
 8002fdc:	6803      	ldr	r3, [r0, #0]
 8002fde:	b919      	cbnz	r1, 8002fe8 <DMA_Cmd+0xc>
 8002fe0:	f023 0301 	bic.w	r3, r3, #1
 8002fe4:	6003      	str	r3, [r0, #0]
 8002fe6:	4770      	bx	lr
 8002fe8:	f043 0301 	orr.w	r3, r3, #1
 8002fec:	6003      	str	r3, [r0, #0]
 8002fee:	4770      	bx	lr

08002ff0 <DMA_PeriphIncOffsetSizeConfig>:
 8002ff0:	6803      	ldr	r3, [r0, #0]
 8002ff2:	b919      	cbnz	r1, 8002ffc <DMA_PeriphIncOffsetSizeConfig+0xc>
 8002ff4:	f423 4300 	bic.w	r3, r3, #32768	; 0x8000
 8002ff8:	6003      	str	r3, [r0, #0]
 8002ffa:	4770      	bx	lr
 8002ffc:	f443 4300 	orr.w	r3, r3, #32768	; 0x8000
 8003000:	6003      	str	r3, [r0, #0]
 8003002:	4770      	bx	lr

08003004 <DMA_FlowControllerConfig>:
 8003004:	6803      	ldr	r3, [r0, #0]
 8003006:	b919      	cbnz	r1, 8003010 <DMA_FlowControllerConfig+0xc>
 8003008:	f023 0320 	bic.w	r3, r3, #32
 800300c:	6003      	str	r3, [r0, #0]
 800300e:	4770      	bx	lr
 8003010:	f043 0320 	orr.w	r3, r3, #32
 8003014:	6003      	str	r3, [r0, #0]
 8003016:	4770      	bx	lr

08003018 <DMA_SetCurrDataCounter>:
 8003018:	6041      	str	r1, [r0, #4]
 800301a:	4770      	bx	lr

0800301c <DMA_GetCurrDataCounter>:
 800301c:	6840      	ldr	r0, [r0, #4]
 800301e:	b280      	uxth	r0, r0
 8003020:	4770      	bx	lr
 8003022:	bf00      	nop

08003024 <DMA_DoubleBufferModeConfig>:
 8003024:	6803      	ldr	r3, [r0, #0]
 8003026:	b922      	cbnz	r2, 8003032 <DMA_DoubleBufferModeConfig+0xe>
 8003028:	f423 2300 	bic.w	r3, r3, #524288	; 0x80000
 800302c:	6003      	str	r3, [r0, #0]
 800302e:	6101      	str	r1, [r0, #16]
 8003030:	4770      	bx	lr
 8003032:	f443 2300 	orr.w	r3, r3, #524288	; 0x80000
 8003036:	6003      	str	r3, [r0, #0]
 8003038:	6101      	str	r1, [r0, #16]
 800303a:	4770      	bx	lr

0800303c <DMA_DoubleBufferModeCmd>:
 800303c:	6803      	ldr	r3, [r0, #0]
 800303e:	b919      	cbnz	r1, 8003048 <DMA_DoubleBufferModeCmd+0xc>
 8003040:	f423 2380 	bic.w	r3, r3, #262144	; 0x40000
 8003044:	6003      	str	r3, [r0, #0]
 8003046:	4770      	bx	lr
 8003048:	f443 2380 	orr.w	r3, r3, #262144	; 0x40000
 800304c:	6003      	str	r3, [r0, #0]
 800304e:	4770      	bx	lr

08003050 <DMA_MemoryTargetConfig>:
 8003050:	b90a      	cbnz	r2, 8003056 <DMA_MemoryTargetConfig+0x6>
 8003052:	60c1      	str	r1, [r0, #12]
 8003054:	4770      	bx	lr
 8003056:	6101      	str	r1, [r0, #16]
 8003058:	4770      	bx	lr
 800305a:	bf00      	nop

0800305c <DMA_GetCurrentMemoryTarget>:
 800305c:	6800      	ldr	r0, [r0, #0]
 800305e:	f3c0 40c0 	ubfx	r0, r0, #19, #1
 8003062:	4770      	bx	lr

08003064 <DMA_GetCmdStatus>:
 8003064:	6800      	ldr	r0, [r0, #0]
 8003066:	f000 0001 	and.w	r0, r0, #1
 800306a:	4770      	bx	lr

0800306c <DMA_GetFIFOStatus>:
 800306c:	6940      	ldr	r0, [r0, #20]
 800306e:	f000 0038 	and.w	r0, r0, #56	; 0x38
 8003072:	4770      	bx	lr

08003074 <DMA_GetFlagStatus>:
 8003074:	b410      	push	{r4}
 8003076:	f44f 42c8 	mov.w	r2, #25600	; 0x6400
 800307a:	f246 440f 	movw	r4, #25615	; 0x640f
 800307e:	f44f 43c0 	mov.w	r3, #24576	; 0x6000
 8003082:	f2c4 0202 	movt	r2, #16386	; 0x4002
 8003086:	f2c4 0402 	movt	r4, #16386	; 0x4002
 800308a:	f2c4 0302 	movt	r3, #16386	; 0x4002
 800308e:	42a0      	cmp	r0, r4
 8003090:	bf88      	it	hi
 8003092:	4613      	movhi	r3, r2
 8003094:	008a      	lsls	r2, r1, #2
 8003096:	bf4c      	ite	mi
 8003098:	685b      	ldrmi	r3, [r3, #4]
 800309a:	681b      	ldrpl	r3, [r3, #0]
 800309c:	f021 21f0 	bic.w	r1, r1, #4026593280	; 0xf000f000
 80030a0:	f021 1182 	bic.w	r1, r1, #8519810	; 0x820082
 80030a4:	4219      	tst	r1, r3
 80030a6:	bf0c      	ite	eq
 80030a8:	2000      	moveq	r0, #0
 80030aa:	2001      	movne	r0, #1
 80030ac:	bc10      	pop	{r4}
 80030ae:	4770      	bx	lr

080030b0 <DMA_ClearFlag>:
 80030b0:	b410      	push	{r4}
 80030b2:	f44f 42c8 	mov.w	r2, #25600	; 0x6400
 80030b6:	f246 440f 	movw	r4, #25615	; 0x640f
 80030ba:	f44f 43c0 	mov.w	r3, #24576	; 0x6000
 80030be:	f2c4 0402 	movt	r4, #16386	; 0x4002
 80030c2:	f2c4 0202 	movt	r2, #16386	; 0x4002
 80030c6:	f2c4 0302 	movt	r3, #16386	; 0x4002
 80030ca:	42a0      	cmp	r0, r4
 80030cc:	bf88      	it	hi
 80030ce:	4613      	movhi	r3, r2
 80030d0:	f011 5f00 	tst.w	r1, #536870912	; 0x20000000
 80030d4:	f021 21f0 	bic.w	r1, r1, #4026593280	; 0xf000f000
 80030d8:	f021 1182 	bic.w	r1, r1, #8519810	; 0x820082
 80030dc:	bf14      	ite	ne
 80030de:	60d9      	strne	r1, [r3, #12]
 80030e0:	6099      	streq	r1, [r3, #8]
 80030e2:	bc10      	pop	{r4}
 80030e4:	4770      	bx	lr
 80030e6:	bf00      	nop

080030e8 <DMA_ITConfig>:
 80030e8:	060b      	lsls	r3, r1, #24
 80030ea:	d504      	bpl.n	80030f6 <DMA_ITConfig+0xe>
 80030ec:	6943      	ldr	r3, [r0, #20]
 80030ee:	b17a      	cbz	r2, 8003110 <DMA_ITConfig+0x28>
 80030f0:	f043 0380 	orr.w	r3, r3, #128	; 0x80
 80030f4:	6143      	str	r3, [r0, #20]
 80030f6:	2980      	cmp	r1, #128	; 0x80
 80030f8:	d006      	beq.n	8003108 <DMA_ITConfig+0x20>
 80030fa:	6803      	ldr	r3, [r0, #0]
 80030fc:	f001 011e 	and.w	r1, r1, #30
 8003100:	b91a      	cbnz	r2, 800310a <DMA_ITConfig+0x22>
 8003102:	ea23 0101 	bic.w	r1, r3, r1
 8003106:	6001      	str	r1, [r0, #0]
 8003108:	4770      	bx	lr
 800310a:	4319      	orrs	r1, r3
 800310c:	6001      	str	r1, [r0, #0]
 800310e:	4770      	bx	lr
 8003110:	f023 0380 	bic.w	r3, r3, #128	; 0x80
 8003114:	6143      	str	r3, [r0, #20]
 8003116:	e7ee      	b.n	80030f6 <DMA_ITConfig+0xe>

08003118 <DMA_GetITStatus>:
 8003118:	b470      	push	{r4, r5, r6}
 800311a:	f44f 42c0 	mov.w	r2, #24576	; 0x6000
 800311e:	f246 450f 	movw	r5, #25615	; 0x640f
 8003122:	f44f 44c8 	mov.w	r4, #25600	; 0x6400
 8003126:	f021 23f0 	bic.w	r3, r1, #4026593280	; 0xf000f000
 800312a:	f2c4 0502 	movt	r5, #16386	; 0x4002
 800312e:	f2c4 0402 	movt	r4, #16386	; 0x4002
 8003132:	f2c4 0202 	movt	r2, #16386	; 0x4002
 8003136:	f023 16c3 	bic.w	r6, r3, #12779715	; 0xc300c3
 800313a:	42a8      	cmp	r0, r5
 800313c:	bf88      	it	hi
 800313e:	4622      	movhi	r2, r4
 8003140:	b1ae      	cbz	r6, 800316e <DMA_GetITStatus+0x56>
 8003142:	6800      	ldr	r0, [r0, #0]
 8003144:	f000 001e 	and.w	r0, r0, #30
 8003148:	ea00 20d1 	and.w	r0, r0, r1, lsr #11
 800314c:	0089      	lsls	r1, r1, #2
 800314e:	bf4c      	ite	mi
 8003150:	6852      	ldrmi	r2, [r2, #4]
 8003152:	6812      	ldrpl	r2, [r2, #0]
 8003154:	f023 1382 	bic.w	r3, r3, #8519810	; 0x820082
 8003158:	4213      	tst	r3, r2
 800315a:	bf0c      	ite	eq
 800315c:	2300      	moveq	r3, #0
 800315e:	2301      	movne	r3, #1
 8003160:	2800      	cmp	r0, #0
 8003162:	bf0c      	ite	eq
 8003164:	2000      	moveq	r0, #0
 8003166:	f003 0001 	andne.w	r0, r3, #1
 800316a:	bc70      	pop	{r4, r5, r6}
 800316c:	4770      	bx	lr
 800316e:	6940      	ldr	r0, [r0, #20]
 8003170:	f000 0080 	and.w	r0, r0, #128	; 0x80
 8003174:	e7ea      	b.n	800314c <DMA_GetITStatus+0x34>
 8003176:	bf00      	nop

08003178 <DMA_ClearITPendingBit>:
 8003178:	b410      	push	{r4}
 800317a:	f44f 42c8 	mov.w	r2, #25600	; 0x6400
 800317e:	f246 440f 	movw	r4, #25615	; 0x640f
 8003182:	f44f 43c0 	mov.w	r3, #24576	; 0x6000
 8003186:	f2c4 0402 	movt	r4, #16386	; 0x4002
 800318a:	f2c4 0202 	movt	r2, #16386	; 0x4002
 800318e:	f2c4 0302 	movt	r3, #16386	; 0x4002
 8003192:	42a0      	cmp	r0, r4
 8003194:	bf88      	it	hi
 8003196:	4613      	movhi	r3, r2
 8003198:	f011 5f00 	tst.w	r1, #536870912	; 0x20000000
 800319c:	f021 21f0 	bic.w	r1, r1, #4026593280	; 0xf000f000
 80031a0:	f021 1182 	bic.w	r1, r1, #8519810	; 0x820082
 80031a4:	bf14      	ite	ne
 80031a6:	60d9      	strne	r1, [r3, #12]
 80031a8:	6099      	streq	r1, [r3, #8]
 80031aa:	bc10      	pop	{r4}
 80031ac:	4770      	bx	lr
 80031ae:	bf00      	nop

080031b0 <EXTI_DeInit>:
 80031b0:	f44f 5370 	mov.w	r3, #15360	; 0x3c00
 80031b4:	f2c4 0301 	movt	r3, #16385	; 0x4001
 80031b8:	f64f 71ff 	movw	r1, #65535	; 0xffff
 80031bc:	2200      	movs	r2, #0
 80031be:	f2c0 017f 	movt	r1, #127	; 0x7f
 80031c2:	601a      	str	r2, [r3, #0]
 80031c4:	605a      	str	r2, [r3, #4]
 80031c6:	609a      	str	r2, [r3, #8]
 80031c8:	60da      	str	r2, [r3, #12]
 80031ca:	6159      	str	r1, [r3, #20]
 80031cc:	4770      	bx	lr
 80031ce:	bf00      	nop

080031d0 <EXTI_Init>:
 80031d0:	7983      	ldrb	r3, [r0, #6]
 80031d2:	b470      	push	{r4, r5, r6}
 80031d4:	b33b      	cbz	r3, 8003226 <EXTI_Init+0x56>
 80031d6:	f44f 5370 	mov.w	r3, #15360	; 0x3c00
 80031da:	f2c4 0301 	movt	r3, #16385	; 0x4001
 80031de:	6801      	ldr	r1, [r0, #0]
 80031e0:	681e      	ldr	r6, [r3, #0]
 80031e2:	7902      	ldrb	r2, [r0, #4]
 80031e4:	7945      	ldrb	r5, [r0, #5]
 80031e6:	43cc      	mvns	r4, r1
 80031e8:	4026      	ands	r6, r4
 80031ea:	601e      	str	r6, [r3, #0]
 80031ec:	685e      	ldr	r6, [r3, #4]
 80031ee:	f102 4280 	add.w	r2, r2, #1073741824	; 0x40000000
 80031f2:	f502 329e 	add.w	r2, r2, #80896	; 0x13c00
 80031f6:	4034      	ands	r4, r6
 80031f8:	605c      	str	r4, [r3, #4]
 80031fa:	6814      	ldr	r4, [r2, #0]
 80031fc:	4321      	orrs	r1, r4
 80031fe:	6011      	str	r1, [r2, #0]
 8003200:	6802      	ldr	r2, [r0, #0]
 8003202:	6898      	ldr	r0, [r3, #8]
 8003204:	43d1      	mvns	r1, r2
 8003206:	4008      	ands	r0, r1
 8003208:	6098      	str	r0, [r3, #8]
 800320a:	68d8      	ldr	r0, [r3, #12]
 800320c:	2d10      	cmp	r5, #16
 800320e:	ea01 0100 	and.w	r1, r1, r0
 8003212:	60d9      	str	r1, [r3, #12]
 8003214:	d013      	beq.n	800323e <EXTI_Init+0x6e>
 8003216:	f105 4580 	add.w	r5, r5, #1073741824	; 0x40000000
 800321a:	f505 359e 	add.w	r5, r5, #80896	; 0x13c00
 800321e:	682b      	ldr	r3, [r5, #0]
 8003220:	431a      	orrs	r2, r3
 8003222:	602a      	str	r2, [r5, #0]
 8003224:	e009      	b.n	800323a <EXTI_Init+0x6a>
 8003226:	7903      	ldrb	r3, [r0, #4]
 8003228:	6801      	ldr	r1, [r0, #0]
 800322a:	f103 4380 	add.w	r3, r3, #1073741824	; 0x40000000
 800322e:	f503 339e 	add.w	r3, r3, #80896	; 0x13c00
 8003232:	681a      	ldr	r2, [r3, #0]
 8003234:	ea22 0201 	bic.w	r2, r2, r1
 8003238:	601a      	str	r2, [r3, #0]
 800323a:	bc70      	pop	{r4, r5, r6}
 800323c:	4770      	bx	lr
 800323e:	6899      	ldr	r1, [r3, #8]
 8003240:	4311      	orrs	r1, r2
 8003242:	6099      	str	r1, [r3, #8]
 8003244:	68d9      	ldr	r1, [r3, #12]
 8003246:	430a      	orrs	r2, r1
 8003248:	60da      	str	r2, [r3, #12]
 800324a:	e7f6      	b.n	800323a <EXTI_Init+0x6a>

0800324c <EXTI_StructInit>:
 800324c:	2300      	movs	r3, #0
 800324e:	220c      	movs	r2, #12
 8003250:	6003      	str	r3, [r0, #0]
 8003252:	7103      	strb	r3, [r0, #4]
 8003254:	7142      	strb	r2, [r0, #5]
 8003256:	7183      	strb	r3, [r0, #6]
 8003258:	4770      	bx	lr
 800325a:	bf00      	nop

0800325c <EXTI_GenerateSWInterrupt>:
 800325c:	f44f 5370 	mov.w	r3, #15360	; 0x3c00
 8003260:	f2c4 0301 	movt	r3, #16385	; 0x4001
 8003264:	691a      	ldr	r2, [r3, #16]
 8003266:	4302      	orrs	r2, r0
 8003268:	611a      	str	r2, [r3, #16]
 800326a:	4770      	bx	lr

0800326c <EXTI_GetFlagStatus>:
 800326c:	f44f 5370 	mov.w	r3, #15360	; 0x3c00
 8003270:	f2c4 0301 	movt	r3, #16385	; 0x4001
 8003274:	695b      	ldr	r3, [r3, #20]
 8003276:	4218      	tst	r0, r3
 8003278:	bf0c      	ite	eq
 800327a:	2000      	moveq	r0, #0
 800327c:	2001      	movne	r0, #1
 800327e:	4770      	bx	lr

08003280 <EXTI_ClearFlag>:
 8003280:	f44f 5370 	mov.w	r3, #15360	; 0x3c00
 8003284:	f2c4 0301 	movt	r3, #16385	; 0x4001
 8003288:	6158      	str	r0, [r3, #20]
 800328a:	4770      	bx	lr

0800328c <EXTI_GetITStatus>:
 800328c:	f44f 5370 	mov.w	r3, #15360	; 0x3c00
 8003290:	f2c4 0301 	movt	r3, #16385	; 0x4001
 8003294:	681a      	ldr	r2, [r3, #0]
 8003296:	695b      	ldr	r3, [r3, #20]
 8003298:	4003      	ands	r3, r0
 800329a:	d004      	beq.n	80032a6 <EXTI_GetITStatus+0x1a>
 800329c:	4210      	tst	r0, r2
 800329e:	bf0c      	ite	eq
 80032a0:	2000      	moveq	r0, #0
 80032a2:	2001      	movne	r0, #1
 80032a4:	4770      	bx	lr
 80032a6:	4618      	mov	r0, r3
 80032a8:	4770      	bx	lr
 80032aa:	bf00      	nop

080032ac <EXTI_ClearITPendingBit>:
 80032ac:	f44f 5370 	mov.w	r3, #15360	; 0x3c00
 80032b0:	f2c4 0301 	movt	r3, #16385	; 0x4001
 80032b4:	6158      	str	r0, [r3, #20]
 80032b6:	4770      	bx	lr

080032b8 <FLASH_SetLatency>:
 80032b8:	f44f 5370 	mov.w	r3, #15360	; 0x3c00
 80032bc:	f2c4 0302 	movt	r3, #16386	; 0x4002
 80032c0:	b2c0      	uxtb	r0, r0
 80032c2:	7018      	strb	r0, [r3, #0]
 80032c4:	4770      	bx	lr
 80032c6:	bf00      	nop

080032c8 <FLASH_PrefetchBufferCmd>:
 80032c8:	f44f 5370 	mov.w	r3, #15360	; 0x3c00
 80032cc:	f2c4 0302 	movt	r3, #16386	; 0x4002
 80032d0:	681a      	ldr	r2, [r3, #0]
 80032d2:	b918      	cbnz	r0, 80032dc <FLASH_PrefetchBufferCmd+0x14>
 80032d4:	f422 7280 	bic.w	r2, r2, #256	; 0x100
 80032d8:	601a      	str	r2, [r3, #0]
 80032da:	4770      	bx	lr
 80032dc:	f442 7280 	orr.w	r2, r2, #256	; 0x100
 80032e0:	601a      	str	r2, [r3, #0]
 80032e2:	4770      	bx	lr

080032e4 <FLASH_InstructionCacheCmd>:
 80032e4:	f44f 5370 	mov.w	r3, #15360	; 0x3c00
 80032e8:	f2c4 0302 	movt	r3, #16386	; 0x4002
 80032ec:	681a      	ldr	r2, [r3, #0]
 80032ee:	b918      	cbnz	r0, 80032f8 <FLASH_InstructionCacheCmd+0x14>
 80032f0:	f422 7200 	bic.w	r2, r2, #512	; 0x200
 80032f4:	601a      	str	r2, [r3, #0]
 80032f6:	4770      	bx	lr
 80032f8:	f442 7200 	orr.w	r2, r2, #512	; 0x200
 80032fc:	601a      	str	r2, [r3, #0]
 80032fe:	4770      	bx	lr

08003300 <FLASH_DataCacheCmd>:
 8003300:	f44f 5370 	mov.w	r3, #15360	; 0x3c00
 8003304:	f2c4 0302 	movt	r3, #16386	; 0x4002
 8003308:	681a      	ldr	r2, [r3, #0]
 800330a:	b918      	cbnz	r0, 8003314 <FLASH_DataCacheCmd+0x14>
 800330c:	f422 6280 	bic.w	r2, r2, #1024	; 0x400
 8003310:	601a      	str	r2, [r3, #0]
 8003312:	4770      	bx	lr
 8003314:	f442 6280 	orr.w	r2, r2, #1024	; 0x400
 8003318:	601a      	str	r2, [r3, #0]
 800331a:	4770      	bx	lr

0800331c <FLASH_InstructionCacheReset>:
 800331c:	f44f 5370 	mov.w	r3, #15360	; 0x3c00
 8003320:	f2c4 0302 	movt	r3, #16386	; 0x4002
 8003324:	681a      	ldr	r2, [r3, #0]
 8003326:	f442 6200 	orr.w	r2, r2, #2048	; 0x800
 800332a:	601a      	str	r2, [r3, #0]
 800332c:	4770      	bx	lr
 800332e:	bf00      	nop

08003330 <FLASH_DataCacheReset>:
 8003330:	f44f 5370 	mov.w	r3, #15360	; 0x3c00
 8003334:	f2c4 0302 	movt	r3, #16386	; 0x4002
 8003338:	681a      	ldr	r2, [r3, #0]
 800333a:	f442 5280 	orr.w	r2, r2, #4096	; 0x1000
 800333e:	601a      	str	r2, [r3, #0]
 8003340:	4770      	bx	lr
 8003342:	bf00      	nop

08003344 <FLASH_Unlock>:
 8003344:	f44f 5370 	mov.w	r3, #15360	; 0x3c00
 8003348:	f2c4 0302 	movt	r3, #16386	; 0x4002
 800334c:	691a      	ldr	r2, [r3, #16]
 800334e:	2a00      	cmp	r2, #0
 8003350:	da09      	bge.n	8003366 <FLASH_Unlock+0x22>
 8003352:	f240 1123 	movw	r1, #291	; 0x123
 8003356:	f648 12ab 	movw	r2, #35243	; 0x89ab
 800335a:	f2c4 5167 	movt	r1, #17767	; 0x4567
 800335e:	f6cc 52ef 	movt	r2, #52719	; 0xcdef
 8003362:	6059      	str	r1, [r3, #4]
 8003364:	605a      	str	r2, [r3, #4]
 8003366:	4770      	bx	lr

08003368 <FLASH_Lock>:
 8003368:	f44f 5370 	mov.w	r3, #15360	; 0x3c00
 800336c:	f2c4 0302 	movt	r3, #16386	; 0x4002
 8003370:	691a      	ldr	r2, [r3, #16]
 8003372:	f042 4200 	orr.w	r2, r2, #2147483648	; 0x80000000
 8003376:	611a      	str	r2, [r3, #16]
 8003378:	4770      	bx	lr
 800337a:	bf00      	nop

0800337c <FLASH_OB_Unlock>:
 800337c:	f44f 5370 	mov.w	r3, #15360	; 0x3c00
 8003380:	f2c4 0302 	movt	r3, #16386	; 0x4002
 8003384:	695a      	ldr	r2, [r3, #20]
 8003386:	07d2      	lsls	r2, r2, #31
 8003388:	d509      	bpl.n	800339e <FLASH_OB_Unlock+0x22>
 800338a:	f642 213b 	movw	r1, #10811	; 0x2a3b
 800338e:	f646 627f 	movw	r2, #28287	; 0x6e7f
 8003392:	f6c0 0119 	movt	r1, #2073	; 0x819
 8003396:	f6c4 425d 	movt	r2, #19549	; 0x4c5d
 800339a:	6099      	str	r1, [r3, #8]
 800339c:	609a      	str	r2, [r3, #8]
 800339e:	4770      	bx	lr

080033a0 <FLASH_OB_Lock>:
 80033a0:	f44f 5370 	mov.w	r3, #15360	; 0x3c00
 80033a4:	f2c4 0302 	movt	r3, #16386	; 0x4002
 80033a8:	695a      	ldr	r2, [r3, #20]
 80033aa:	f042 0201 	orr.w	r2, r2, #1
 80033ae:	615a      	str	r2, [r3, #20]
 80033b0:	4770      	bx	lr
 80033b2:	bf00      	nop

080033b4 <FLASH_OB_BORConfig>:
 80033b4:	f643 4314 	movw	r3, #15380	; 0x3c14
 80033b8:	f2c4 0302 	movt	r3, #16386	; 0x4002
 80033bc:	781a      	ldrb	r2, [r3, #0]
 80033be:	f002 02f3 	and.w	r2, r2, #243	; 0xf3
 80033c2:	701a      	strb	r2, [r3, #0]
 80033c4:	781a      	ldrb	r2, [r3, #0]
 80033c6:	4302      	orrs	r2, r0
 80033c8:	701a      	strb	r2, [r3, #0]
 80033ca:	4770      	bx	lr

080033cc <FLASH_OB_GetUser>:
 80033cc:	f44f 5370 	mov.w	r3, #15360	; 0x3c00
 80033d0:	f2c4 0302 	movt	r3, #16386	; 0x4002
 80033d4:	6958      	ldr	r0, [r3, #20]
 80033d6:	f3c0 1047 	ubfx	r0, r0, #5, #8
 80033da:	4770      	bx	lr

080033dc <FLASH_OB_GetWRP>:
 80033dc:	f643 4316 	movw	r3, #15382	; 0x3c16
 80033e0:	f2c4 0302 	movt	r3, #16386	; 0x4002
 80033e4:	8818      	ldrh	r0, [r3, #0]
 80033e6:	b280      	uxth	r0, r0
 80033e8:	4770      	bx	lr
 80033ea:	bf00      	nop

080033ec <FLASH_OB_GetRDP>:
 80033ec:	f643 4315 	movw	r3, #15381	; 0x3c15
 80033f0:	f2c4 0302 	movt	r3, #16386	; 0x4002
 80033f4:	7818      	ldrb	r0, [r3, #0]
 80033f6:	38aa      	subs	r0, #170	; 0xaa
 80033f8:	bf18      	it	ne
 80033fa:	2001      	movne	r0, #1
 80033fc:	4770      	bx	lr
 80033fe:	bf00      	nop

08003400 <FLASH_OB_GetBOR>:
 8003400:	f643 4314 	movw	r3, #15380	; 0x3c14
 8003404:	f2c4 0302 	movt	r3, #16386	; 0x4002
 8003408:	7818      	ldrb	r0, [r3, #0]
 800340a:	f000 000c 	and.w	r0, r0, #12
 800340e:	4770      	bx	lr

08003410 <FLASH_ITConfig>:
 8003410:	f44f 5370 	mov.w	r3, #15360	; 0x3c00
 8003414:	f2c4 0302 	movt	r3, #16386	; 0x4002
 8003418:	691a      	ldr	r2, [r3, #16]
 800341a:	b919      	cbnz	r1, 8003424 <FLASH_ITConfig+0x14>
 800341c:	ea22 0000 	bic.w	r0, r2, r0
 8003420:	6118      	str	r0, [r3, #16]
 8003422:	4770      	bx	lr
 8003424:	4310      	orrs	r0, r2
 8003426:	6118      	str	r0, [r3, #16]
 8003428:	4770      	bx	lr
 800342a:	bf00      	nop

0800342c <FLASH_GetFlagStatus>:
 800342c:	f44f 5370 	mov.w	r3, #15360	; 0x3c00
 8003430:	f2c4 0302 	movt	r3, #16386	; 0x4002
 8003434:	68db      	ldr	r3, [r3, #12]
 8003436:	4218      	tst	r0, r3
 8003438:	bf0c      	ite	eq
 800343a:	2000      	moveq	r0, #0
 800343c:	2001      	movne	r0, #1
 800343e:	4770      	bx	lr

08003440 <FLASH_ClearFlag>:
 8003440:	f44f 5370 	mov.w	r3, #15360	; 0x3c00
 8003444:	f2c4 0302 	movt	r3, #16386	; 0x4002
 8003448:	60d8      	str	r0, [r3, #12]
 800344a:	4770      	bx	lr

0800344c <FLASH_GetStatus>:
 800344c:	f44f 5370 	mov.w	r3, #15360	; 0x3c00
 8003450:	f2c4 0302 	movt	r3, #16386	; 0x4002
 8003454:	68da      	ldr	r2, [r3, #12]
 8003456:	03d0      	lsls	r0, r2, #15
 8003458:	d40a      	bmi.n	8003470 <FLASH_GetStatus+0x24>
 800345a:	68da      	ldr	r2, [r3, #12]
 800345c:	06d1      	lsls	r1, r2, #27
 800345e:	d501      	bpl.n	8003464 <FLASH_GetStatus+0x18>
 8003460:	2005      	movs	r0, #5
 8003462:	4770      	bx	lr
 8003464:	68da      	ldr	r2, [r3, #12]
 8003466:	f012 0fef 	tst.w	r2, #239	; 0xef
 800346a:	d003      	beq.n	8003474 <FLASH_GetStatus+0x28>
 800346c:	2006      	movs	r0, #6
 800346e:	4770      	bx	lr
 8003470:	2001      	movs	r0, #1
 8003472:	4770      	bx	lr
 8003474:	68db      	ldr	r3, [r3, #12]
 8003476:	f013 0f02 	tst.w	r3, #2
 800347a:	bf0c      	ite	eq
 800347c:	2008      	moveq	r0, #8
 800347e:	2007      	movne	r0, #7
 8003480:	4770      	bx	lr
 8003482:	bf00      	nop

08003484 <FLASH_WaitForLastOperation>:
 8003484:	b082      	sub	sp, #8
 8003486:	f44f 5370 	mov.w	r3, #15360	; 0x3c00
 800348a:	2208      	movs	r2, #8
 800348c:	f2c4 0302 	movt	r3, #16386	; 0x4002
 8003490:	f88d 2007 	strb.w	r2, [sp, #7]
 8003494:	68da      	ldr	r2, [r3, #12]
 8003496:	03d2      	lsls	r2, r2, #15
 8003498:	d439      	bmi.n	800350e <FLASH_WaitForLastOperation+0x8a>
 800349a:	68da      	ldr	r2, [r3, #12]
 800349c:	06d0      	lsls	r0, r2, #27
 800349e:	d523      	bpl.n	80034e8 <FLASH_WaitForLastOperation+0x64>
 80034a0:	2305      	movs	r3, #5
 80034a2:	f88d 3007 	strb.w	r3, [sp, #7]
 80034a6:	f89d 3007 	ldrb.w	r3, [sp, #7]
 80034aa:	2b01      	cmp	r3, #1
 80034ac:	d118      	bne.n	80034e0 <FLASH_WaitForLastOperation+0x5c>
 80034ae:	f44f 5370 	mov.w	r3, #15360	; 0x3c00
 80034b2:	f2c4 0302 	movt	r3, #16386	; 0x4002
 80034b6:	e009      	b.n	80034cc <FLASH_WaitForLastOperation+0x48>
 80034b8:	68da      	ldr	r2, [r3, #12]
 80034ba:	06d2      	lsls	r2, r2, #27
 80034bc:	d51a      	bpl.n	80034f4 <FLASH_WaitForLastOperation+0x70>
 80034be:	2205      	movs	r2, #5
 80034c0:	f88d 2007 	strb.w	r2, [sp, #7]
 80034c4:	f89d 2007 	ldrb.w	r2, [sp, #7]
 80034c8:	2a01      	cmp	r2, #1
 80034ca:	d109      	bne.n	80034e0 <FLASH_WaitForLastOperation+0x5c>
 80034cc:	68da      	ldr	r2, [r3, #12]
 80034ce:	03d1      	lsls	r1, r2, #15
 80034d0:	d5f2      	bpl.n	80034b8 <FLASH_WaitForLastOperation+0x34>
 80034d2:	2201      	movs	r2, #1
 80034d4:	f88d 2007 	strb.w	r2, [sp, #7]
 80034d8:	f89d 2007 	ldrb.w	r2, [sp, #7]
 80034dc:	2a01      	cmp	r2, #1
 80034de:	d0f5      	beq.n	80034cc <FLASH_WaitForLastOperation+0x48>
 80034e0:	f89d 0007 	ldrb.w	r0, [sp, #7]
 80034e4:	b002      	add	sp, #8
 80034e6:	4770      	bx	lr
 80034e8:	68da      	ldr	r2, [r3, #12]
 80034ea:	f012 0fef 	tst.w	r2, #239	; 0xef
 80034ee:	d010      	beq.n	8003512 <FLASH_WaitForLastOperation+0x8e>
 80034f0:	2306      	movs	r3, #6
 80034f2:	e7d6      	b.n	80034a2 <FLASH_WaitForLastOperation+0x1e>
 80034f4:	68da      	ldr	r2, [r3, #12]
 80034f6:	f012 0fef 	tst.w	r2, #239	; 0xef
 80034fa:	d001      	beq.n	8003500 <FLASH_WaitForLastOperation+0x7c>
 80034fc:	2206      	movs	r2, #6
 80034fe:	e7df      	b.n	80034c0 <FLASH_WaitForLastOperation+0x3c>
 8003500:	68da      	ldr	r2, [r3, #12]
 8003502:	f012 0f02 	tst.w	r2, #2
 8003506:	bf0c      	ite	eq
 8003508:	2208      	moveq	r2, #8
 800350a:	2207      	movne	r2, #7
 800350c:	e7d8      	b.n	80034c0 <FLASH_WaitForLastOperation+0x3c>
 800350e:	2301      	movs	r3, #1
 8003510:	e7c7      	b.n	80034a2 <FLASH_WaitForLastOperation+0x1e>
 8003512:	68db      	ldr	r3, [r3, #12]
 8003514:	f013 0f02 	tst.w	r3, #2
 8003518:	bf0c      	ite	eq
 800351a:	2308      	moveq	r3, #8
 800351c:	2307      	movne	r3, #7
 800351e:	e7c0      	b.n	80034a2 <FLASH_WaitForLastOperation+0x1e>

08003520 <FLASH_OB_Launch>:
 8003520:	f643 4314 	movw	r3, #15380	; 0x3c14
 8003524:	f2c4 0302 	movt	r3, #16386	; 0x4002
 8003528:	781a      	ldrb	r2, [r3, #0]
 800352a:	f042 0202 	orr.w	r2, r2, #2
 800352e:	701a      	strb	r2, [r3, #0]
 8003530:	e7a8      	b.n	8003484 <FLASH_WaitForLastOperation>
 8003532:	bf00      	nop

08003534 <FLASH_OB_UserConfig>:
 8003534:	b570      	push	{r4, r5, r6, lr}
 8003536:	4604      	mov	r4, r0
 8003538:	460d      	mov	r5, r1
 800353a:	4616      	mov	r6, r2
 800353c:	f7ff ffa2 	bl	8003484 <FLASH_WaitForLastOperation>
 8003540:	2808      	cmp	r0, #8
 8003542:	d10a      	bne.n	800355a <FLASH_OB_UserConfig+0x26>
 8003544:	f643 4314 	movw	r3, #15380	; 0x3c14
 8003548:	f2c4 0302 	movt	r3, #16386	; 0x4002
 800354c:	781a      	ldrb	r2, [r3, #0]
 800354e:	f002 020f 	and.w	r2, r2, #15
 8003552:	4314      	orrs	r4, r2
 8003554:	4325      	orrs	r5, r4
 8003556:	432e      	orrs	r6, r5
 8003558:	701e      	strb	r6, [r3, #0]
 800355a:	bd70      	pop	{r4, r5, r6, pc}

0800355c <FLASH_OB_RDPConfig>:
 800355c:	b510      	push	{r4, lr}
 800355e:	4604      	mov	r4, r0
 8003560:	f7ff ff90 	bl	8003484 <FLASH_WaitForLastOperation>
 8003564:	2808      	cmp	r0, #8
 8003566:	bf02      	ittt	eq
 8003568:	f643 4315 	movweq	r3, #15381	; 0x3c15
 800356c:	f2c4 0302 	movteq	r3, #16386	; 0x4002
 8003570:	701c      	strbeq	r4, [r3, #0]
 8003572:	bd10      	pop	{r4, pc}

08003574 <FLASH_OB_WRPConfig>:
 8003574:	b538      	push	{r3, r4, r5, lr}
 8003576:	4604      	mov	r4, r0
 8003578:	460d      	mov	r5, r1
 800357a:	f7ff ff83 	bl	8003484 <FLASH_WaitForLastOperation>
 800357e:	2808      	cmp	r0, #8
 8003580:	d000      	beq.n	8003584 <FLASH_OB_WRPConfig+0x10>
 8003582:	bd38      	pop	{r3, r4, r5, pc}
 8003584:	f643 4316 	movw	r3, #15382	; 0x3c16
 8003588:	f2c4 0302 	movt	r3, #16386	; 0x4002
 800358c:	881a      	ldrh	r2, [r3, #0]
 800358e:	b91d      	cbnz	r5, 8003598 <FLASH_OB_WRPConfig+0x24>
 8003590:	4314      	orrs	r4, r2
 8003592:	b2a4      	uxth	r4, r4
 8003594:	801c      	strh	r4, [r3, #0]
 8003596:	bd38      	pop	{r3, r4, r5, pc}
 8003598:	b292      	uxth	r2, r2
 800359a:	ea22 0404 	bic.w	r4, r2, r4
 800359e:	801c      	strh	r4, [r3, #0]
 80035a0:	bd38      	pop	{r3, r4, r5, pc}
 80035a2:	bf00      	nop

080035a4 <FLASH_ProgramByte>:
 80035a4:	b570      	push	{r4, r5, r6, lr}
 80035a6:	4604      	mov	r4, r0
 80035a8:	460e      	mov	r6, r1
 80035aa:	f7ff ff6b 	bl	8003484 <FLASH_WaitForLastOperation>
 80035ae:	2808      	cmp	r0, #8
 80035b0:	d000      	beq.n	80035b4 <FLASH_ProgramByte+0x10>
 80035b2:	bd70      	pop	{r4, r5, r6, pc}
 80035b4:	f44f 5570 	mov.w	r5, #15360	; 0x3c00
 80035b8:	f2c4 0502 	movt	r5, #16386	; 0x4002
 80035bc:	692b      	ldr	r3, [r5, #16]
 80035be:	f423 7340 	bic.w	r3, r3, #768	; 0x300
 80035c2:	612b      	str	r3, [r5, #16]
 80035c4:	692b      	ldr	r3, [r5, #16]
 80035c6:	612b      	str	r3, [r5, #16]
 80035c8:	692b      	ldr	r3, [r5, #16]
 80035ca:	f043 0301 	orr.w	r3, r3, #1
 80035ce:	612b      	str	r3, [r5, #16]
 80035d0:	7026      	strb	r6, [r4, #0]
 80035d2:	f7ff ff57 	bl	8003484 <FLASH_WaitForLastOperation>
 80035d6:	692b      	ldr	r3, [r5, #16]
 80035d8:	f023 0301 	bic.w	r3, r3, #1
 80035dc:	612b      	str	r3, [r5, #16]
 80035de:	bd70      	pop	{r4, r5, r6, pc}

080035e0 <FLASH_ProgramHalfWord>:
 80035e0:	b570      	push	{r4, r5, r6, lr}
 80035e2:	4604      	mov	r4, r0
 80035e4:	460e      	mov	r6, r1
 80035e6:	f7ff ff4d 	bl	8003484 <FLASH_WaitForLastOperation>
 80035ea:	2808      	cmp	r0, #8
 80035ec:	d000      	beq.n	80035f0 <FLASH_ProgramHalfWord+0x10>
 80035ee:	bd70      	pop	{r4, r5, r6, pc}
 80035f0:	f44f 5570 	mov.w	r5, #15360	; 0x3c00
 80035f4:	f2c4 0502 	movt	r5, #16386	; 0x4002
 80035f8:	692b      	ldr	r3, [r5, #16]
 80035fa:	f423 7340 	bic.w	r3, r3, #768	; 0x300
 80035fe:	612b      	str	r3, [r5, #16]
 8003600:	692b      	ldr	r3, [r5, #16]
 8003602:	f443 7380 	orr.w	r3, r3, #256	; 0x100
 8003606:	612b      	str	r3, [r5, #16]
 8003608:	692b      	ldr	r3, [r5, #16]
 800360a:	f043 0301 	orr.w	r3, r3, #1
 800360e:	612b      	str	r3, [r5, #16]
 8003610:	8026      	strh	r6, [r4, #0]
 8003612:	f7ff ff37 	bl	8003484 <FLASH_WaitForLastOperation>
 8003616:	692b      	ldr	r3, [r5, #16]
 8003618:	f023 0301 	bic.w	r3, r3, #1
 800361c:	612b      	str	r3, [r5, #16]
 800361e:	bd70      	pop	{r4, r5, r6, pc}

08003620 <FLASH_ProgramWord>:
 8003620:	b570      	push	{r4, r5, r6, lr}
 8003622:	4604      	mov	r4, r0
 8003624:	460e      	mov	r6, r1
 8003626:	f7ff ff2d 	bl	8003484 <FLASH_WaitForLastOperation>
 800362a:	2808      	cmp	r0, #8
 800362c:	d000      	beq.n	8003630 <FLASH_ProgramWord+0x10>
 800362e:	bd70      	pop	{r4, r5, r6, pc}
 8003630:	f44f 5570 	mov.w	r5, #15360	; 0x3c00
 8003634:	f2c4 0502 	movt	r5, #16386	; 0x4002
 8003638:	692b      	ldr	r3, [r5, #16]
 800363a:	f423 7340 	bic.w	r3, r3, #768	; 0x300
 800363e:	612b      	str	r3, [r5, #16]
 8003640:	692b      	ldr	r3, [r5, #16]
 8003642:	f443 7300 	orr.w	r3, r3, #512	; 0x200
 8003646:	612b      	str	r3, [r5, #16]
 8003648:	692b      	ldr	r3, [r5, #16]
 800364a:	f043 0301 	orr.w	r3, r3, #1
 800364e:	612b      	str	r3, [r5, #16]
 8003650:	6026      	str	r6, [r4, #0]
 8003652:	f7ff ff17 	bl	8003484 <FLASH_WaitForLastOperation>
 8003656:	692b      	ldr	r3, [r5, #16]
 8003658:	f023 0301 	bic.w	r3, r3, #1
 800365c:	612b      	str	r3, [r5, #16]
 800365e:	bd70      	pop	{r4, r5, r6, pc}

08003660 <FLASH_ProgramDoubleWord>:
 8003660:	b5f8      	push	{r3, r4, r5, r6, r7, lr}
 8003662:	4606      	mov	r6, r0
 8003664:	4614      	mov	r4, r2
 8003666:	461d      	mov	r5, r3
 8003668:	f7ff ff0c 	bl	8003484 <FLASH_WaitForLastOperation>
 800366c:	2808      	cmp	r0, #8
 800366e:	d000      	beq.n	8003672 <FLASH_ProgramDoubleWord+0x12>
 8003670:	bdf8      	pop	{r3, r4, r5, r6, r7, pc}
 8003672:	f44f 5770 	mov.w	r7, #15360	; 0x3c00
 8003676:	f2c4 0702 	movt	r7, #16386	; 0x4002
 800367a:	693b      	ldr	r3, [r7, #16]
 800367c:	f423 7340 	bic.w	r3, r3, #768	; 0x300
 8003680:	613b      	str	r3, [r7, #16]
 8003682:	693b      	ldr	r3, [r7, #16]
 8003684:	f443 7340 	orr.w	r3, r3, #768	; 0x300
 8003688:	613b      	str	r3, [r7, #16]
 800368a:	693b      	ldr	r3, [r7, #16]
 800368c:	f043 0301 	orr.w	r3, r3, #1
 8003690:	613b      	str	r3, [r7, #16]
 8003692:	e9c6 4500 	strd	r4, r5, [r6]
 8003696:	f7ff fef5 	bl	8003484 <FLASH_WaitForLastOperation>
 800369a:	693b      	ldr	r3, [r7, #16]
 800369c:	f023 0301 	bic.w	r3, r3, #1
 80036a0:	613b      	str	r3, [r7, #16]
 80036a2:	bdf8      	pop	{r3, r4, r5, r6, r7, pc}

080036a4 <FLASH_EraseAllSectors>:
 80036a4:	b538      	push	{r3, r4, r5, lr}
 80036a6:	4604      	mov	r4, r0
 80036a8:	f7ff feec 	bl	8003484 <FLASH_WaitForLastOperation>
 80036ac:	b154      	cbz	r4, 80036c4 <FLASH_EraseAllSectors+0x20>
 80036ae:	2c01      	cmp	r4, #1
 80036b0:	bf08      	it	eq
 80036b2:	f44f 7480 	moveq.w	r4, #256	; 0x100
 80036b6:	d005      	beq.n	80036c4 <FLASH_EraseAllSectors+0x20>
 80036b8:	2c02      	cmp	r4, #2
 80036ba:	bf14      	ite	ne
 80036bc:	f44f 7440 	movne.w	r4, #768	; 0x300
 80036c0:	f44f 7400 	moveq.w	r4, #512	; 0x200
 80036c4:	2808      	cmp	r0, #8
 80036c6:	d000      	beq.n	80036ca <FLASH_EraseAllSectors+0x26>
 80036c8:	bd38      	pop	{r3, r4, r5, pc}
 80036ca:	f44f 5570 	mov.w	r5, #15360	; 0x3c00
 80036ce:	f2c4 0502 	movt	r5, #16386	; 0x4002
 80036d2:	692b      	ldr	r3, [r5, #16]
 80036d4:	f423 7340 	bic.w	r3, r3, #768	; 0x300
 80036d8:	612b      	str	r3, [r5, #16]
 80036da:	692b      	ldr	r3, [r5, #16]
 80036dc:	431c      	orrs	r4, r3
 80036de:	612c      	str	r4, [r5, #16]
 80036e0:	692b      	ldr	r3, [r5, #16]
 80036e2:	f043 0304 	orr.w	r3, r3, #4
 80036e6:	612b      	str	r3, [r5, #16]
 80036e8:	692b      	ldr	r3, [r5, #16]
 80036ea:	f443 3380 	orr.w	r3, r3, #65536	; 0x10000
 80036ee:	612b      	str	r3, [r5, #16]
 80036f0:	f7ff fec8 	bl	8003484 <FLASH_WaitForLastOperation>
 80036f4:	692b      	ldr	r3, [r5, #16]
 80036f6:	f023 0304 	bic.w	r3, r3, #4
 80036fa:	612b      	str	r3, [r5, #16]
 80036fc:	bd38      	pop	{r3, r4, r5, pc}
 80036fe:	bf00      	nop

08003700 <FLASH_EraseSector>:
 8003700:	b570      	push	{r4, r5, r6, lr}
 8003702:	4605      	mov	r5, r0
 8003704:	460e      	mov	r6, r1
 8003706:	b149      	cbz	r1, 800371c <FLASH_EraseSector+0x1c>
 8003708:	2902      	cmp	r1, #2
 800370a:	bf14      	ite	ne
 800370c:	f44f 7640 	movne.w	r6, #768	; 0x300
 8003710:	f44f 7600 	moveq.w	r6, #512	; 0x200
 8003714:	2901      	cmp	r1, #1
 8003716:	bf08      	it	eq
 8003718:	f44f 7680 	moveq.w	r6, #256	; 0x100
 800371c:	f7ff feb2 	bl	8003484 <FLASH_WaitForLastOperation>
 8003720:	2808      	cmp	r0, #8
 8003722:	d000      	beq.n	8003726 <FLASH_EraseSector+0x26>
 8003724:	bd70      	pop	{r4, r5, r6, pc}
 8003726:	f44f 5470 	mov.w	r4, #15360	; 0x3c00
 800372a:	f2c4 0402 	movt	r4, #16386	; 0x4002
 800372e:	6923      	ldr	r3, [r4, #16]
 8003730:	f423 7340 	bic.w	r3, r3, #768	; 0x300
 8003734:	6123      	str	r3, [r4, #16]
 8003736:	6923      	ldr	r3, [r4, #16]
 8003738:	431e      	orrs	r6, r3
 800373a:	6126      	str	r6, [r4, #16]
 800373c:	6923      	ldr	r3, [r4, #16]
 800373e:	f023 03f8 	bic.w	r3, r3, #248	; 0xf8
 8003742:	6123      	str	r3, [r4, #16]
 8003744:	6923      	ldr	r3, [r4, #16]
 8003746:	f043 0302 	orr.w	r3, r3, #2
 800374a:	431d      	orrs	r5, r3
 800374c:	6125      	str	r5, [r4, #16]
 800374e:	6923      	ldr	r3, [r4, #16]
 8003750:	f443 3380 	orr.w	r3, r3, #65536	; 0x10000
 8003754:	6123      	str	r3, [r4, #16]
 8003756:	f7ff fe95 	bl	8003484 <FLASH_WaitForLastOperation>
 800375a:	6923      	ldr	r3, [r4, #16]
 800375c:	f023 0302 	bic.w	r3, r3, #2
 8003760:	6123      	str	r3, [r4, #16]
 8003762:	6923      	ldr	r3, [r4, #16]
 8003764:	f023 03f8 	bic.w	r3, r3, #248	; 0xf8
 8003768:	6123      	str	r3, [r4, #16]
 800376a:	bd70      	pop	{r4, r5, r6, pc}

0800376c <FSMC_NORSRAMDeInit>:
 800376c:	b410      	push	{r4}
 800376e:	b1a0      	cbz	r0, 800379a <FSMC_NORSRAMDeInit+0x2e>
 8003770:	f04f 4320 	mov.w	r3, #2684354560	; 0xa0000000
 8003774:	f243 02d2 	movw	r2, #12498	; 0x30d2
 8003778:	f843 2020 	str.w	r2, [r3, r0, lsl #2]
 800377c:	f44f 7382 	mov.w	r3, #260	; 0x104
 8003780:	1c44      	adds	r4, r0, #1
 8003782:	f2ca 0300 	movt	r3, #40960	; 0xa000
 8003786:	f04f 4120 	mov.w	r1, #2684354560	; 0xa0000000
 800378a:	f06f 4270 	mvn.w	r2, #4026531840	; 0xf0000000
 800378e:	f841 2024 	str.w	r2, [r1, r4, lsl #2]
 8003792:	f843 2020 	str.w	r2, [r3, r0, lsl #2]
 8003796:	bc10      	pop	{r4}
 8003798:	4770      	bx	lr
 800379a:	f04f 4320 	mov.w	r3, #2684354560	; 0xa0000000
 800379e:	f243 02db 	movw	r2, #12507	; 0x30db
 80037a2:	601a      	str	r2, [r3, #0]
 80037a4:	e7ea      	b.n	800377c <FSMC_NORSRAMDeInit+0x10>
 80037a6:	bf00      	nop

080037a8 <FSMC_NORSRAMInit>:
 80037a8:	e92d 0ff0 	stmdb	sp!, {r4, r5, r6, r7, r8, r9, sl, fp}
 80037ac:	6881      	ldr	r1, [r0, #8]
 80037ae:	f8d0 a004 	ldr.w	sl, [r0, #4]
 80037b2:	f8d0 900c 	ldr.w	r9, [r0, #12]
 80037b6:	f8d0 8010 	ldr.w	r8, [r0, #16]
 80037ba:	f8d0 c014 	ldr.w	ip, [r0, #20]
 80037be:	6987      	ldr	r7, [r0, #24]
 80037c0:	69c6      	ldr	r6, [r0, #28]
 80037c2:	6a05      	ldr	r5, [r0, #32]
 80037c4:	f8d0 b024 	ldr.w	fp, [r0, #36]	; 0x24
 80037c8:	6ac2      	ldr	r2, [r0, #44]	; 0x2c
 80037ca:	6803      	ldr	r3, [r0, #0]
 80037cc:	ea41 0a0a 	orr.w	sl, r1, sl
 80037d0:	ea4a 0909 	orr.w	r9, sl, r9
 80037d4:	ea49 0908 	orr.w	r9, r9, r8
 80037d8:	ea49 090c 	orr.w	r9, r9, ip
 80037dc:	ea49 0707 	orr.w	r7, r9, r7
 80037e0:	433e      	orrs	r6, r7
 80037e2:	4335      	orrs	r5, r6
 80037e4:	6a86      	ldr	r6, [r0, #40]	; 0x28
 80037e6:	ea45 050b 	orr.w	r5, r5, fp
 80037ea:	4335      	orrs	r5, r6
 80037ec:	6b06      	ldr	r6, [r0, #48]	; 0x30
 80037ee:	f04f 4420 	mov.w	r4, #2684354560	; 0xa0000000
 80037f2:	4315      	orrs	r5, r2
 80037f4:	4335      	orrs	r5, r6
 80037f6:	f844 5023 	str.w	r5, [r4, r3, lsl #2]
 80037fa:	2908      	cmp	r1, #8
 80037fc:	bf02      	ittt	eq
 80037fe:	f854 1023 	ldreq.w	r1, [r4, r3, lsl #2]
 8003802:	f041 0140 	orreq.w	r1, r1, #64	; 0x40
 8003806:	f844 1023 	streq.w	r1, [r4, r3, lsl #2]
 800380a:	6b41      	ldr	r1, [r0, #52]	; 0x34
 800380c:	e891 1020 	ldmia.w	r1, {r5, ip}
 8003810:	f8d1 8018 	ldr.w	r8, [r1, #24]
 8003814:	688f      	ldr	r7, [r1, #8]
 8003816:	68cc      	ldr	r4, [r1, #12]
 8003818:	690e      	ldr	r6, [r1, #16]
 800381a:	6949      	ldr	r1, [r1, #20]
 800381c:	ea48 0505 	orr.w	r5, r8, r5
 8003820:	ea45 150c 	orr.w	r5, r5, ip, lsl #4
 8003824:	ea45 2507 	orr.w	r5, r5, r7, lsl #8
 8003828:	ea45 4504 	orr.w	r5, r5, r4, lsl #16
 800382c:	ea45 5506 	orr.w	r5, r5, r6, lsl #20
 8003830:	1c5c      	adds	r4, r3, #1
 8003832:	ea45 6501 	orr.w	r5, r5, r1, lsl #24
 8003836:	f04f 4120 	mov.w	r1, #2684354560	; 0xa0000000
 800383a:	f5b2 4f80 	cmp.w	r2, #16384	; 0x4000
 800383e:	f841 5024 	str.w	r5, [r1, r4, lsl #2]
 8003842:	d00a      	beq.n	800385a <FSMC_NORSRAMInit+0xb2>
 8003844:	f44f 7282 	mov.w	r2, #260	; 0x104
 8003848:	f2ca 0200 	movt	r2, #40960	; 0xa000
 800384c:	f06f 4170 	mvn.w	r1, #4026531840	; 0xf0000000
 8003850:	f842 1023 	str.w	r1, [r2, r3, lsl #2]
 8003854:	e8bd 0ff0 	ldmia.w	sp!, {r4, r5, r6, r7, r8, r9, sl, fp}
 8003858:	4770      	bx	lr
 800385a:	6b82      	ldr	r2, [r0, #56]	; 0x38
 800385c:	e892 0042 	ldmia.w	r2, {r1, r6}
 8003860:	6997      	ldr	r7, [r2, #24]
 8003862:	6895      	ldr	r5, [r2, #8]
 8003864:	6914      	ldr	r4, [r2, #16]
 8003866:	6950      	ldr	r0, [r2, #20]
 8003868:	4339      	orrs	r1, r7
 800386a:	ea41 1106 	orr.w	r1, r1, r6, lsl #4
 800386e:	ea41 2105 	orr.w	r1, r1, r5, lsl #8
 8003872:	f44f 7282 	mov.w	r2, #260	; 0x104
 8003876:	ea41 5104 	orr.w	r1, r1, r4, lsl #20
 800387a:	f2ca 0200 	movt	r2, #40960	; 0xa000
 800387e:	ea41 6100 	orr.w	r1, r1, r0, lsl #24
 8003882:	f842 1023 	str.w	r1, [r2, r3, lsl #2]
 8003886:	e7e5      	b.n	8003854 <FSMC_NORSRAMInit+0xac>

08003888 <FSMC_NORSRAMStructInit>:
 8003888:	b470      	push	{r4, r5, r6}
 800388a:	2602      	movs	r6, #2
 800388c:	6046      	str	r6, [r0, #4]
 800388e:	6b44      	ldr	r4, [r0, #52]	; 0x34
 8003890:	6b81      	ldr	r1, [r0, #56]	; 0x38
 8003892:	f44f 5680 	mov.w	r6, #4096	; 0x1000
 8003896:	6246      	str	r6, [r0, #36]	; 0x24
 8003898:	2300      	movs	r3, #0
 800389a:	220f      	movs	r2, #15
 800389c:	25ff      	movs	r5, #255	; 0xff
 800389e:	f44f 5600 	mov.w	r6, #8192	; 0x2000
 80038a2:	6003      	str	r3, [r0, #0]
 80038a4:	6083      	str	r3, [r0, #8]
 80038a6:	60c3      	str	r3, [r0, #12]
 80038a8:	6103      	str	r3, [r0, #16]
 80038aa:	6143      	str	r3, [r0, #20]
 80038ac:	6183      	str	r3, [r0, #24]
 80038ae:	61c3      	str	r3, [r0, #28]
 80038b0:	6203      	str	r3, [r0, #32]
 80038b2:	6286      	str	r6, [r0, #40]	; 0x28
 80038b4:	62c3      	str	r3, [r0, #44]	; 0x2c
 80038b6:	6303      	str	r3, [r0, #48]	; 0x30
 80038b8:	6022      	str	r2, [r4, #0]
 80038ba:	6062      	str	r2, [r4, #4]
 80038bc:	60a5      	str	r5, [r4, #8]
 80038be:	60e2      	str	r2, [r4, #12]
 80038c0:	6122      	str	r2, [r4, #16]
 80038c2:	6162      	str	r2, [r4, #20]
 80038c4:	61a3      	str	r3, [r4, #24]
 80038c6:	600a      	str	r2, [r1, #0]
 80038c8:	604a      	str	r2, [r1, #4]
 80038ca:	608d      	str	r5, [r1, #8]
 80038cc:	60ca      	str	r2, [r1, #12]
 80038ce:	610a      	str	r2, [r1, #16]
 80038d0:	614a      	str	r2, [r1, #20]
 80038d2:	618b      	str	r3, [r1, #24]
 80038d4:	bc70      	pop	{r4, r5, r6}
 80038d6:	4770      	bx	lr

080038d8 <FSMC_NORSRAMCmd>:
 80038d8:	b959      	cbnz	r1, 80038f2 <FSMC_NORSRAMCmd+0x1a>
 80038da:	f04f 4220 	mov.w	r2, #2684354560	; 0xa0000000
 80038de:	f64f 73fe 	movw	r3, #65534	; 0xfffe
 80038e2:	f852 1020 	ldr.w	r1, [r2, r0, lsl #2]
 80038e6:	f2c0 030f 	movt	r3, #15
 80038ea:	400b      	ands	r3, r1
 80038ec:	f842 3020 	str.w	r3, [r2, r0, lsl #2]
 80038f0:	4770      	bx	lr
 80038f2:	f04f 4320 	mov.w	r3, #2684354560	; 0xa0000000
 80038f6:	f853 2020 	ldr.w	r2, [r3, r0, lsl #2]
 80038fa:	f042 0201 	orr.w	r2, r2, #1
 80038fe:	f843 2020 	str.w	r2, [r3, r0, lsl #2]
 8003902:	4770      	bx	lr

08003904 <FSMC_NANDDeInit>:
 8003904:	2360      	movs	r3, #96	; 0x60
 8003906:	2810      	cmp	r0, #16
 8003908:	bf18      	it	ne
 800390a:	2380      	movne	r3, #128	; 0x80
 800390c:	f2ca 0300 	movt	r3, #40960	; 0xa000
 8003910:	2118      	movs	r1, #24
 8003912:	6019      	str	r1, [r3, #0]
 8003914:	f04f 32fc 	mov.w	r2, #4244438268	; 0xfcfcfcfc
 8003918:	2140      	movs	r1, #64	; 0x40
 800391a:	6059      	str	r1, [r3, #4]
 800391c:	609a      	str	r2, [r3, #8]
 800391e:	60da      	str	r2, [r3, #12]
 8003920:	4770      	bx	lr
 8003922:	bf00      	nop

08003924 <FSMC_NANDInit>:
 8003924:	e92d 0ff0 	stmdb	sp!, {r4, r5, r6, r7, r8, r9, sl, fp}
 8003928:	6a03      	ldr	r3, [r0, #32]
 800392a:	6941      	ldr	r1, [r0, #20]
 800392c:	f8d0 a004 	ldr.w	sl, [r0, #4]
 8003930:	f8d0 9008 	ldr.w	r9, [r0, #8]
 8003934:	689f      	ldr	r7, [r3, #8]
 8003936:	685c      	ldr	r4, [r3, #4]
 8003938:	f8d0 800c 	ldr.w	r8, [r0, #12]
 800393c:	69c2      	ldr	r2, [r0, #28]
 800393e:	6906      	ldr	r6, [r0, #16]
 8003940:	f8d2 c008 	ldr.w	ip, [r2, #8]
 8003944:	6855      	ldr	r5, [r2, #4]
 8003946:	f8d2 b000 	ldr.w	fp, [r2]
 800394a:	68d2      	ldr	r2, [r2, #12]
 800394c:	b084      	sub	sp, #16
 800394e:	ea4a 0909 	orr.w	r9, sl, r9
 8003952:	9101      	str	r1, [sp, #4]
 8003954:	6819      	ldr	r1, [r3, #0]
 8003956:	68db      	ldr	r3, [r3, #12]
 8003958:	9103      	str	r1, [sp, #12]
 800395a:	043f      	lsls	r7, r7, #16
 800395c:	f049 0908 	orr.w	r9, r9, #8
 8003960:	6981      	ldr	r1, [r0, #24]
 8003962:	6800      	ldr	r0, [r0, #0]
 8003964:	9102      	str	r1, [sp, #8]
 8003966:	ea47 2704 	orr.w	r7, r7, r4, lsl #8
 800396a:	ea49 0808 	orr.w	r8, r9, r8
 800396e:	9c01      	ldr	r4, [sp, #4]
 8003970:	ea48 0806 	orr.w	r8, r8, r6
 8003974:	ea48 2144 	orr.w	r1, r8, r4, lsl #9
 8003978:	9c03      	ldr	r4, [sp, #12]
 800397a:	ea4f 4c0c 	mov.w	ip, ip, lsl #16
 800397e:	4327      	orrs	r7, r4
 8003980:	ea4c 2c05 	orr.w	ip, ip, r5, lsl #8
 8003984:	9c02      	ldr	r4, [sp, #8]
 8003986:	ea4c 0b0b 	orr.w	fp, ip, fp
 800398a:	2810      	cmp	r0, #16
 800398c:	ea41 3144 	orr.w	r1, r1, r4, lsl #13
 8003990:	ea4b 6202 	orr.w	r2, fp, r2, lsl #24
 8003994:	ea47 6703 	orr.w	r7, r7, r3, lsl #24
 8003998:	d009      	beq.n	80039ae <FSMC_NANDInit+0x8a>
 800399a:	2080      	movs	r0, #128	; 0x80
 800399c:	f2ca 0000 	movt	r0, #40960	; 0xa000
 80039a0:	6001      	str	r1, [r0, #0]
 80039a2:	6082      	str	r2, [r0, #8]
 80039a4:	60c7      	str	r7, [r0, #12]
 80039a6:	b004      	add	sp, #16
 80039a8:	e8bd 0ff0 	ldmia.w	sp!, {r4, r5, r6, r7, r8, r9, sl, fp}
 80039ac:	4770      	bx	lr
 80039ae:	2360      	movs	r3, #96	; 0x60
 80039b0:	f2ca 0300 	movt	r3, #40960	; 0xa000
 80039b4:	6019      	str	r1, [r3, #0]
 80039b6:	609a      	str	r2, [r3, #8]
 80039b8:	60df      	str	r7, [r3, #12]
 80039ba:	e7f4      	b.n	80039a6 <FSMC_NANDInit+0x82>

080039bc <FSMC_NANDStructInit>:
 80039bc:	b430      	push	{r4, r5}
 80039be:	6a01      	ldr	r1, [r0, #32]
 80039c0:	69c4      	ldr	r4, [r0, #28]
 80039c2:	23fc      	movs	r3, #252	; 0xfc
 80039c4:	2200      	movs	r2, #0
 80039c6:	2510      	movs	r5, #16
 80039c8:	6005      	str	r5, [r0, #0]
 80039ca:	6042      	str	r2, [r0, #4]
 80039cc:	6082      	str	r2, [r0, #8]
 80039ce:	60c2      	str	r2, [r0, #12]
 80039d0:	6102      	str	r2, [r0, #16]
 80039d2:	6142      	str	r2, [r0, #20]
 80039d4:	6182      	str	r2, [r0, #24]
 80039d6:	6023      	str	r3, [r4, #0]
 80039d8:	6063      	str	r3, [r4, #4]
 80039da:	60a3      	str	r3, [r4, #8]
 80039dc:	60e3      	str	r3, [r4, #12]
 80039de:	600b      	str	r3, [r1, #0]
 80039e0:	604b      	str	r3, [r1, #4]
 80039e2:	608b      	str	r3, [r1, #8]
 80039e4:	60cb      	str	r3, [r1, #12]
 80039e6:	bc30      	pop	{r4, r5}
 80039e8:	4770      	bx	lr
 80039ea:	bf00      	nop

080039ec <FSMC_NANDCmd>:
 80039ec:	b149      	cbz	r1, 8003a02 <FSMC_NANDCmd+0x16>
 80039ee:	2810      	cmp	r0, #16
 80039f0:	d015      	beq.n	8003a1e <FSMC_NANDCmd+0x32>
 80039f2:	2380      	movs	r3, #128	; 0x80
 80039f4:	f2ca 0300 	movt	r3, #40960	; 0xa000
 80039f8:	681a      	ldr	r2, [r3, #0]
 80039fa:	f042 0204 	orr.w	r2, r2, #4
 80039fe:	601a      	str	r2, [r3, #0]
 8003a00:	4770      	bx	lr
 8003a02:	2260      	movs	r2, #96	; 0x60
 8003a04:	2810      	cmp	r0, #16
 8003a06:	bf18      	it	ne
 8003a08:	2280      	movne	r2, #128	; 0x80
 8003a0a:	f2ca 0200 	movt	r2, #40960	; 0xa000
 8003a0e:	f64f 73fb 	movw	r3, #65531	; 0xfffb
 8003a12:	6811      	ldr	r1, [r2, #0]
 8003a14:	f2c0 030f 	movt	r3, #15
 8003a18:	400b      	ands	r3, r1
 8003a1a:	6013      	str	r3, [r2, #0]
 8003a1c:	4770      	bx	lr
 8003a1e:	2360      	movs	r3, #96	; 0x60
 8003a20:	f2ca 0300 	movt	r3, #40960	; 0xa000
 8003a24:	681a      	ldr	r2, [r3, #0]
 8003a26:	f042 0204 	orr.w	r2, r2, #4
 8003a2a:	601a      	str	r2, [r3, #0]
 8003a2c:	4770      	bx	lr
 8003a2e:	bf00      	nop

08003a30 <FSMC_NANDECCCmd>:
 8003a30:	b149      	cbz	r1, 8003a46 <FSMC_NANDECCCmd+0x16>
 8003a32:	2810      	cmp	r0, #16
 8003a34:	d015      	beq.n	8003a62 <FSMC_NANDECCCmd+0x32>
 8003a36:	2380      	movs	r3, #128	; 0x80
 8003a38:	f2ca 0300 	movt	r3, #40960	; 0xa000
 8003a3c:	681a      	ldr	r2, [r3, #0]
 8003a3e:	f042 0240 	orr.w	r2, r2, #64	; 0x40
 8003a42:	601a      	str	r2, [r3, #0]
 8003a44:	4770      	bx	lr
 8003a46:	2260      	movs	r2, #96	; 0x60
 8003a48:	2810      	cmp	r0, #16
 8003a4a:	bf18      	it	ne
 8003a4c:	2280      	movne	r2, #128	; 0x80
 8003a4e:	f2ca 0200 	movt	r2, #40960	; 0xa000
 8003a52:	f64f 73bf 	movw	r3, #65471	; 0xffbf
 8003a56:	6811      	ldr	r1, [r2, #0]
 8003a58:	f2c0 030f 	movt	r3, #15
 8003a5c:	400b      	ands	r3, r1
 8003a5e:	6013      	str	r3, [r2, #0]
 8003a60:	4770      	bx	lr
 8003a62:	2360      	movs	r3, #96	; 0x60
 8003a64:	f2ca 0300 	movt	r3, #40960	; 0xa000
 8003a68:	681a      	ldr	r2, [r3, #0]
 8003a6a:	f042 0240 	orr.w	r2, r2, #64	; 0x40
 8003a6e:	601a      	str	r2, [r3, #0]
 8003a70:	4770      	bx	lr
 8003a72:	bf00      	nop

08003a74 <FSMC_GetECC>:
 8003a74:	2810      	cmp	r0, #16
 8003a76:	d004      	beq.n	8003a82 <FSMC_GetECC+0xe>
 8003a78:	2380      	movs	r3, #128	; 0x80
 8003a7a:	f2ca 0300 	movt	r3, #40960	; 0xa000
 8003a7e:	6958      	ldr	r0, [r3, #20]
 8003a80:	4770      	bx	lr
 8003a82:	2360      	movs	r3, #96	; 0x60
 8003a84:	f2ca 0300 	movt	r3, #40960	; 0xa000
 8003a88:	6958      	ldr	r0, [r3, #20]
 8003a8a:	4770      	bx	lr

08003a8c <FSMC_PCCARDDeInit>:
 8003a8c:	23a0      	movs	r3, #160	; 0xa0
 8003a8e:	f2ca 0300 	movt	r3, #40960	; 0xa000
 8003a92:	2118      	movs	r1, #24
 8003a94:	6019      	str	r1, [r3, #0]
 8003a96:	f04f 32fc 	mov.w	r2, #4244438268	; 0xfcfcfcfc
 8003a9a:	2100      	movs	r1, #0
 8003a9c:	6059      	str	r1, [r3, #4]
 8003a9e:	609a      	str	r2, [r3, #8]
 8003aa0:	60da      	str	r2, [r3, #12]
 8003aa2:	611a      	str	r2, [r3, #16]
 8003aa4:	4770      	bx	lr
 8003aa6:	bf00      	nop

08003aa8 <FSMC_PCCARDInit>:
 8003aa8:	b4f0      	push	{r4, r5, r6, r7}
 8003aaa:	6807      	ldr	r7, [r0, #0]
 8003aac:	6846      	ldr	r6, [r0, #4]
 8003aae:	68c4      	ldr	r4, [r0, #12]
 8003ab0:	6901      	ldr	r1, [r0, #16]
 8003ab2:	6942      	ldr	r2, [r0, #20]
 8003ab4:	6885      	ldr	r5, [r0, #8]
 8003ab6:	23a0      	movs	r3, #160	; 0xa0
 8003ab8:	f047 0010 	orr.w	r0, r7, #16
 8003abc:	f2ca 0300 	movt	r3, #40960	; 0xa000
 8003ac0:	ea40 2046 	orr.w	r0, r0, r6, lsl #9
 8003ac4:	ea40 3045 	orr.w	r0, r0, r5, lsl #13
 8003ac8:	6018      	str	r0, [r3, #0]
 8003aca:	e894 0060 	ldmia.w	r4, {r5, r6}
 8003ace:	68a0      	ldr	r0, [r4, #8]
 8003ad0:	68e4      	ldr	r4, [r4, #12]
 8003ad2:	0400      	lsls	r0, r0, #16
 8003ad4:	ea40 2006 	orr.w	r0, r0, r6, lsl #8
 8003ad8:	4328      	orrs	r0, r5
 8003ada:	ea40 6004 	orr.w	r0, r0, r4, lsl #24
 8003ade:	6098      	str	r0, [r3, #8]
 8003ae0:	e891 0070 	ldmia.w	r1, {r4, r5, r6}
 8003ae4:	68c8      	ldr	r0, [r1, #12]
 8003ae6:	0431      	lsls	r1, r6, #16
 8003ae8:	ea41 2105 	orr.w	r1, r1, r5, lsl #8
 8003aec:	4321      	orrs	r1, r4
 8003aee:	ea41 6100 	orr.w	r1, r1, r0, lsl #24
 8003af2:	60d9      	str	r1, [r3, #12]
 8003af4:	e892 0031 	ldmia.w	r2, {r0, r4, r5}
 8003af8:	68d1      	ldr	r1, [r2, #12]
 8003afa:	042a      	lsls	r2, r5, #16
 8003afc:	ea42 2204 	orr.w	r2, r2, r4, lsl #8
 8003b00:	4302      	orrs	r2, r0
 8003b02:	ea42 6201 	orr.w	r2, r2, r1, lsl #24
 8003b06:	611a      	str	r2, [r3, #16]
 8003b08:	bcf0      	pop	{r4, r5, r6, r7}
 8003b0a:	4770      	bx	lr

08003b0c <FSMC_PCCARDStructInit>:
 8003b0c:	b430      	push	{r4, r5}
 8003b0e:	6901      	ldr	r1, [r0, #16]
 8003b10:	68c4      	ldr	r4, [r0, #12]
 8003b12:	6942      	ldr	r2, [r0, #20]
 8003b14:	23fc      	movs	r3, #252	; 0xfc
 8003b16:	2500      	movs	r5, #0
 8003b18:	6005      	str	r5, [r0, #0]
 8003b1a:	6045      	str	r5, [r0, #4]
 8003b1c:	6085      	str	r5, [r0, #8]
 8003b1e:	6023      	str	r3, [r4, #0]
 8003b20:	6063      	str	r3, [r4, #4]
 8003b22:	60a3      	str	r3, [r4, #8]
 8003b24:	60e3      	str	r3, [r4, #12]
 8003b26:	600b      	str	r3, [r1, #0]
 8003b28:	604b      	str	r3, [r1, #4]
 8003b2a:	608b      	str	r3, [r1, #8]
 8003b2c:	60cb      	str	r3, [r1, #12]
 8003b2e:	6013      	str	r3, [r2, #0]
 8003b30:	6053      	str	r3, [r2, #4]
 8003b32:	6093      	str	r3, [r2, #8]
 8003b34:	60d3      	str	r3, [r2, #12]
 8003b36:	bc30      	pop	{r4, r5}
 8003b38:	4770      	bx	lr
 8003b3a:	bf00      	nop

08003b3c <FSMC_PCCARDCmd>:
 8003b3c:	b950      	cbnz	r0, 8003b54 <FSMC_PCCARDCmd+0x18>
 8003b3e:	22a0      	movs	r2, #160	; 0xa0
 8003b40:	f2ca 0200 	movt	r2, #40960	; 0xa000
 8003b44:	f64f 73fb 	movw	r3, #65531	; 0xfffb
 8003b48:	6811      	ldr	r1, [r2, #0]
 8003b4a:	f2c0 030f 	movt	r3, #15
 8003b4e:	400b      	ands	r3, r1
 8003b50:	6013      	str	r3, [r2, #0]
 8003b52:	4770      	bx	lr
 8003b54:	23a0      	movs	r3, #160	; 0xa0
 8003b56:	f2ca 0300 	movt	r3, #40960	; 0xa000
 8003b5a:	681a      	ldr	r2, [r3, #0]
 8003b5c:	f042 0204 	orr.w	r2, r2, #4
 8003b60:	601a      	str	r2, [r3, #0]
 8003b62:	4770      	bx	lr

08003b64 <FSMC_ITConfig>:
 8003b64:	b15a      	cbz	r2, 8003b7e <FSMC_ITConfig+0x1a>
 8003b66:	2810      	cmp	r0, #16
 8003b68:	d01e      	beq.n	8003ba8 <FSMC_ITConfig+0x44>
 8003b6a:	f5b0 7f80 	cmp.w	r0, #256	; 0x100
 8003b6e:	d022      	beq.n	8003bb6 <FSMC_ITConfig+0x52>
 8003b70:	23a0      	movs	r3, #160	; 0xa0
 8003b72:	f2ca 0300 	movt	r3, #40960	; 0xa000
 8003b76:	685a      	ldr	r2, [r3, #4]
 8003b78:	4311      	orrs	r1, r2
 8003b7a:	6059      	str	r1, [r3, #4]
 8003b7c:	4770      	bx	lr
 8003b7e:	2810      	cmp	r0, #16
 8003b80:	d00a      	beq.n	8003b98 <FSMC_ITConfig+0x34>
 8003b82:	f5b0 7f80 	cmp.w	r0, #256	; 0x100
 8003b86:	d01d      	beq.n	8003bc4 <FSMC_ITConfig+0x60>
 8003b88:	23a0      	movs	r3, #160	; 0xa0
 8003b8a:	f2ca 0300 	movt	r3, #40960	; 0xa000
 8003b8e:	685a      	ldr	r2, [r3, #4]
 8003b90:	ea22 0101 	bic.w	r1, r2, r1
 8003b94:	6059      	str	r1, [r3, #4]
 8003b96:	4770      	bx	lr
 8003b98:	2360      	movs	r3, #96	; 0x60
 8003b9a:	f2ca 0300 	movt	r3, #40960	; 0xa000
 8003b9e:	685a      	ldr	r2, [r3, #4]
 8003ba0:	ea22 0101 	bic.w	r1, r2, r1
 8003ba4:	6059      	str	r1, [r3, #4]
 8003ba6:	4770      	bx	lr
 8003ba8:	2360      	movs	r3, #96	; 0x60
 8003baa:	f2ca 0300 	movt	r3, #40960	; 0xa000
 8003bae:	685a      	ldr	r2, [r3, #4]
 8003bb0:	4311      	orrs	r1, r2
 8003bb2:	6059      	str	r1, [r3, #4]
 8003bb4:	4770      	bx	lr
 8003bb6:	2380      	movs	r3, #128	; 0x80
 8003bb8:	f2ca 0300 	movt	r3, #40960	; 0xa000
 8003bbc:	685a      	ldr	r2, [r3, #4]
 8003bbe:	4311      	orrs	r1, r2
 8003bc0:	6059      	str	r1, [r3, #4]
 8003bc2:	4770      	bx	lr
 8003bc4:	2380      	movs	r3, #128	; 0x80
 8003bc6:	f2ca 0300 	movt	r3, #40960	; 0xa000
 8003bca:	685a      	ldr	r2, [r3, #4]
 8003bcc:	ea22 0101 	bic.w	r1, r2, r1
 8003bd0:	6059      	str	r1, [r3, #4]
 8003bd2:	4770      	bx	lr

08003bd4 <FSMC_GetFlagStatus>:
 8003bd4:	2810      	cmp	r0, #16
 8003bd6:	d00b      	beq.n	8003bf0 <FSMC_GetFlagStatus+0x1c>
 8003bd8:	f5b0 7f80 	cmp.w	r0, #256	; 0x100
 8003bdc:	d00d      	beq.n	8003bfa <FSMC_GetFlagStatus+0x26>
 8003bde:	23a0      	movs	r3, #160	; 0xa0
 8003be0:	f2ca 0300 	movt	r3, #40960	; 0xa000
 8003be4:	685b      	ldr	r3, [r3, #4]
 8003be6:	420b      	tst	r3, r1
 8003be8:	bf0c      	ite	eq
 8003bea:	2000      	moveq	r0, #0
 8003bec:	2001      	movne	r0, #1
 8003bee:	4770      	bx	lr
 8003bf0:	2360      	movs	r3, #96	; 0x60
 8003bf2:	f2ca 0300 	movt	r3, #40960	; 0xa000
 8003bf6:	685b      	ldr	r3, [r3, #4]
 8003bf8:	e7f5      	b.n	8003be6 <FSMC_GetFlagStatus+0x12>
 8003bfa:	2380      	movs	r3, #128	; 0x80
 8003bfc:	f2ca 0300 	movt	r3, #40960	; 0xa000
 8003c00:	685b      	ldr	r3, [r3, #4]
 8003c02:	e7f0      	b.n	8003be6 <FSMC_GetFlagStatus+0x12>

08003c04 <FSMC_ClearFlag>:
 8003c04:	2810      	cmp	r0, #16
 8003c06:	d00a      	beq.n	8003c1e <FSMC_ClearFlag+0x1a>
 8003c08:	f5b0 7f80 	cmp.w	r0, #256	; 0x100
 8003c0c:	d00f      	beq.n	8003c2e <FSMC_ClearFlag+0x2a>
 8003c0e:	23a0      	movs	r3, #160	; 0xa0
 8003c10:	f2ca 0300 	movt	r3, #40960	; 0xa000
 8003c14:	685a      	ldr	r2, [r3, #4]
 8003c16:	ea22 0101 	bic.w	r1, r2, r1
 8003c1a:	6059      	str	r1, [r3, #4]
 8003c1c:	4770      	bx	lr
 8003c1e:	2360      	movs	r3, #96	; 0x60
 8003c20:	f2ca 0300 	movt	r3, #40960	; 0xa000
 8003c24:	685a      	ldr	r2, [r3, #4]
 8003c26:	ea22 0101 	bic.w	r1, r2, r1
 8003c2a:	6059      	str	r1, [r3, #4]
 8003c2c:	4770      	bx	lr
 8003c2e:	2380      	movs	r3, #128	; 0x80
 8003c30:	f2ca 0300 	movt	r3, #40960	; 0xa000
 8003c34:	685a      	ldr	r2, [r3, #4]
 8003c36:	ea22 0101 	bic.w	r1, r2, r1
 8003c3a:	6059      	str	r1, [r3, #4]
 8003c3c:	4770      	bx	lr
 8003c3e:	bf00      	nop

08003c40 <FSMC_GetITStatus>:
 8003c40:	2810      	cmp	r0, #16
 8003c42:	d011      	beq.n	8003c68 <FSMC_GetITStatus+0x28>
 8003c44:	f5b0 7f80 	cmp.w	r0, #256	; 0x100
 8003c48:	d013      	beq.n	8003c72 <FSMC_GetITStatus+0x32>
 8003c4a:	23a0      	movs	r3, #160	; 0xa0
 8003c4c:	f2ca 0300 	movt	r3, #40960	; 0xa000
 8003c50:	685b      	ldr	r3, [r3, #4]
 8003c52:	ea13 02d1 	ands.w	r2, r3, r1, lsr #3
 8003c56:	bf0c      	ite	eq
 8003c58:	2000      	moveq	r0, #0
 8003c5a:	2001      	movne	r0, #1
 8003c5c:	420b      	tst	r3, r1
 8003c5e:	bf0c      	ite	eq
 8003c60:	2000      	moveq	r0, #0
 8003c62:	f000 0001 	andne.w	r0, r0, #1
 8003c66:	4770      	bx	lr
 8003c68:	2360      	movs	r3, #96	; 0x60
 8003c6a:	f2ca 0300 	movt	r3, #40960	; 0xa000
 8003c6e:	685b      	ldr	r3, [r3, #4]
 8003c70:	e7ef      	b.n	8003c52 <FSMC_GetITStatus+0x12>
 8003c72:	2380      	movs	r3, #128	; 0x80
 8003c74:	f2ca 0300 	movt	r3, #40960	; 0xa000
 8003c78:	685b      	ldr	r3, [r3, #4]
 8003c7a:	e7ea      	b.n	8003c52 <FSMC_GetITStatus+0x12>

08003c7c <FSMC_ClearITPendingBit>:
 8003c7c:	2810      	cmp	r0, #16
 8003c7e:	d00a      	beq.n	8003c96 <FSMC_ClearITPendingBit+0x1a>
 8003c80:	f5b0 7f80 	cmp.w	r0, #256	; 0x100
 8003c84:	d00f      	beq.n	8003ca6 <FSMC_ClearITPendingBit+0x2a>
 8003c86:	23a0      	movs	r3, #160	; 0xa0
 8003c88:	f2ca 0300 	movt	r3, #40960	; 0xa000
 8003c8c:	685a      	ldr	r2, [r3, #4]
 8003c8e:	ea22 01d1 	bic.w	r1, r2, r1, lsr #3
 8003c92:	6059      	str	r1, [r3, #4]
 8003c94:	4770      	bx	lr
 8003c96:	2360      	movs	r3, #96	; 0x60
 8003c98:	f2ca 0300 	movt	r3, #40960	; 0xa000
 8003c9c:	685a      	ldr	r2, [r3, #4]
 8003c9e:	ea22 01d1 	bic.w	r1, r2, r1, lsr #3
 8003ca2:	6059      	str	r1, [r3, #4]
 8003ca4:	4770      	bx	lr
 8003ca6:	2380      	movs	r3, #128	; 0x80
 8003ca8:	f2ca 0300 	movt	r3, #40960	; 0xa000
 8003cac:	685a      	ldr	r2, [r3, #4]
 8003cae:	ea22 01d1 	bic.w	r1, r2, r1, lsr #3
 8003cb2:	6059      	str	r1, [r3, #4]
 8003cb4:	4770      	bx	lr
 8003cb6:	bf00      	nop

08003cb8 <GPIO_DeInit>:
 8003cb8:	b508      	push	{r3, lr}
 8003cba:	2300      	movs	r3, #0
 8003cbc:	f2c4 0302 	movt	r3, #16386	; 0x4002
 8003cc0:	4298      	cmp	r0, r3
 8003cc2:	d03c      	beq.n	8003d3e <GPIO_DeInit+0x86>
 8003cc4:	f44f 6380 	mov.w	r3, #1024	; 0x400
 8003cc8:	f2c4 0302 	movt	r3, #16386	; 0x4002
 8003ccc:	4298      	cmp	r0, r3
 8003cce:	d040      	beq.n	8003d52 <GPIO_DeInit+0x9a>
 8003cd0:	f44f 6300 	mov.w	r3, #2048	; 0x800
 8003cd4:	f2c4 0302 	movt	r3, #16386	; 0x4002
 8003cd8:	4298      	cmp	r0, r3
 8003cda:	d044      	beq.n	8003d66 <GPIO_DeInit+0xae>
 8003cdc:	f44f 6340 	mov.w	r3, #3072	; 0xc00
 8003ce0:	f2c4 0302 	movt	r3, #16386	; 0x4002
 8003ce4:	4298      	cmp	r0, r3
 8003ce6:	d048      	beq.n	8003d7a <GPIO_DeInit+0xc2>
 8003ce8:	f44f 5380 	mov.w	r3, #4096	; 0x1000
 8003cec:	f2c4 0302 	movt	r3, #16386	; 0x4002
 8003cf0:	4298      	cmp	r0, r3
 8003cf2:	d04c      	beq.n	8003d8e <GPIO_DeInit+0xd6>
 8003cf4:	f44f 53a0 	mov.w	r3, #5120	; 0x1400
 8003cf8:	f2c4 0302 	movt	r3, #16386	; 0x4002
 8003cfc:	4298      	cmp	r0, r3
 8003cfe:	d050      	beq.n	8003da2 <GPIO_DeInit+0xea>
 8003d00:	f44f 53c0 	mov.w	r3, #6144	; 0x1800
 8003d04:	f2c4 0302 	movt	r3, #16386	; 0x4002
 8003d08:	4298      	cmp	r0, r3
 8003d0a:	d054      	beq.n	8003db6 <GPIO_DeInit+0xfe>
 8003d0c:	f44f 53e0 	mov.w	r3, #7168	; 0x1c00
 8003d10:	f2c4 0302 	movt	r3, #16386	; 0x4002
 8003d14:	4298      	cmp	r0, r3
 8003d16:	d058      	beq.n	8003dca <GPIO_DeInit+0x112>
 8003d18:	f44f 5300 	mov.w	r3, #8192	; 0x2000
 8003d1c:	f2c4 0302 	movt	r3, #16386	; 0x4002
 8003d20:	4298      	cmp	r0, r3
 8003d22:	d000      	beq.n	8003d26 <GPIO_DeInit+0x6e>
 8003d24:	bd08      	pop	{r3, pc}
 8003d26:	2101      	movs	r1, #1
 8003d28:	f44f 7080 	mov.w	r0, #256	; 0x100
 8003d2c:	f001 f862 	bl	8004df4 <RCC_AHB1PeriphResetCmd>
 8003d30:	f44f 7080 	mov.w	r0, #256	; 0x100
 8003d34:	2100      	movs	r1, #0
 8003d36:	e8bd 4008 	ldmia.w	sp!, {r3, lr}
 8003d3a:	f001 b85b 	b.w	8004df4 <RCC_AHB1PeriphResetCmd>
 8003d3e:	2001      	movs	r0, #1
 8003d40:	4601      	mov	r1, r0
 8003d42:	f001 f857 	bl	8004df4 <RCC_AHB1PeriphResetCmd>
 8003d46:	2001      	movs	r0, #1
 8003d48:	2100      	movs	r1, #0
 8003d4a:	e8bd 4008 	ldmia.w	sp!, {r3, lr}
 8003d4e:	f001 b851 	b.w	8004df4 <RCC_AHB1PeriphResetCmd>
 8003d52:	2002      	movs	r0, #2
 8003d54:	2101      	movs	r1, #1
 8003d56:	f001 f84d 	bl	8004df4 <RCC_AHB1PeriphResetCmd>
 8003d5a:	2002      	movs	r0, #2
 8003d5c:	2100      	movs	r1, #0
 8003d5e:	e8bd 4008 	ldmia.w	sp!, {r3, lr}
 8003d62:	f001 b847 	b.w	8004df4 <RCC_AHB1PeriphResetCmd>
 8003d66:	2004      	movs	r0, #4
 8003d68:	2101      	movs	r1, #1
 8003d6a:	f001 f843 	bl	8004df4 <RCC_AHB1PeriphResetCmd>
 8003d6e:	2004      	movs	r0, #4
 8003d70:	2100      	movs	r1, #0
 8003d72:	e8bd 4008 	ldmia.w	sp!, {r3, lr}
 8003d76:	f001 b83d 	b.w	8004df4 <RCC_AHB1PeriphResetCmd>
 8003d7a:	2008      	movs	r0, #8
 8003d7c:	2101      	movs	r1, #1
 8003d7e:	f001 f839 	bl	8004df4 <RCC_AHB1PeriphResetCmd>
 8003d82:	2008      	movs	r0, #8
 8003d84:	2100      	movs	r1, #0
 8003d86:	e8bd 4008 	ldmia.w	sp!, {r3, lr}
 8003d8a:	f001 b833 	b.w	8004df4 <RCC_AHB1PeriphResetCmd>
 8003d8e:	2010      	movs	r0, #16
 8003d90:	2101      	movs	r1, #1
 8003d92:	f001 f82f 	bl	8004df4 <RCC_AHB1PeriphResetCmd>
 8003d96:	2010      	movs	r0, #16
 8003d98:	2100      	movs	r1, #0
 8003d9a:	e8bd 4008 	ldmia.w	sp!, {r3, lr}
 8003d9e:	f001 b829 	b.w	8004df4 <RCC_AHB1PeriphResetCmd>
 8003da2:	2020      	movs	r0, #32
 8003da4:	2101      	movs	r1, #1
 8003da6:	f001 f825 	bl	8004df4 <RCC_AHB1PeriphResetCmd>
 8003daa:	2020      	movs	r0, #32
 8003dac:	2100      	movs	r1, #0
 8003dae:	e8bd 4008 	ldmia.w	sp!, {r3, lr}
 8003db2:	f001 b81f 	b.w	8004df4 <RCC_AHB1PeriphResetCmd>
 8003db6:	2040      	movs	r0, #64	; 0x40
 8003db8:	2101      	movs	r1, #1
 8003dba:	f001 f81b 	bl	8004df4 <RCC_AHB1PeriphResetCmd>
 8003dbe:	2040      	movs	r0, #64	; 0x40
 8003dc0:	2100      	movs	r1, #0
 8003dc2:	e8bd 4008 	ldmia.w	sp!, {r3, lr}
 8003dc6:	f001 b815 	b.w	8004df4 <RCC_AHB1PeriphResetCmd>
 8003dca:	2080      	movs	r0, #128	; 0x80
 8003dcc:	2101      	movs	r1, #1
 8003dce:	f001 f811 	bl	8004df4 <RCC_AHB1PeriphResetCmd>
 8003dd2:	2080      	movs	r0, #128	; 0x80
 8003dd4:	2100      	movs	r1, #0
 8003dd6:	e8bd 4008 	ldmia.w	sp!, {r3, lr}
 8003dda:	f001 b80b 	b.w	8004df4 <RCC_AHB1PeriphResetCmd>
 8003dde:	bf00      	nop

08003de0 <GPIO_Init>:
 8003de0:	2300      	movs	r3, #0
 8003de2:	e92d 07f0 	stmdb	sp!, {r4, r5, r6, r7, r8, r9, sl}
 8003de6:	680a      	ldr	r2, [r1, #0]
 8003de8:	461c      	mov	r4, r3
 8003dea:	2701      	movs	r7, #1
 8003dec:	f04f 0803 	mov.w	r8, #3
 8003df0:	e003      	b.n	8003dfa <GPIO_Init+0x1a>
 8003df2:	3401      	adds	r4, #1
 8003df4:	3302      	adds	r3, #2
 8003df6:	2c10      	cmp	r4, #16
 8003df8:	d02b      	beq.n	8003e52 <GPIO_Init+0x72>
 8003dfa:	fa17 f504 	lsls.w	r5, r7, r4
 8003dfe:	ea05 0602 	and.w	r6, r5, r2
 8003e02:	42ae      	cmp	r6, r5
 8003e04:	d1f5      	bne.n	8003df2 <GPIO_Init+0x12>
 8003e06:	f8d0 9000 	ldr.w	r9, [r0]
 8003e0a:	f891 c004 	ldrb.w	ip, [r1, #4]
 8003e0e:	fa08 f503 	lsl.w	r5, r8, r3
 8003e12:	43ed      	mvns	r5, r5
 8003e14:	ea05 0909 	and.w	r9, r5, r9
 8003e18:	f8c0 9000 	str.w	r9, [r0]
 8003e1c:	f8d0 9000 	ldr.w	r9, [r0]
 8003e20:	fa0c fa03 	lsl.w	sl, ip, r3
 8003e24:	f10c 3cff 	add.w	ip, ip, #4294967295	; 0xffffffff
 8003e28:	ea4a 0909 	orr.w	r9, sl, r9
 8003e2c:	f1bc 0f01 	cmp.w	ip, #1
 8003e30:	f8c0 9000 	str.w	r9, [r0]
 8003e34:	d910      	bls.n	8003e58 <GPIO_Init+0x78>
 8003e36:	68c6      	ldr	r6, [r0, #12]
 8003e38:	f891 c007 	ldrb.w	ip, [r1, #7]
 8003e3c:	4035      	ands	r5, r6
 8003e3e:	60c5      	str	r5, [r0, #12]
 8003e40:	68c6      	ldr	r6, [r0, #12]
 8003e42:	fa0c f503 	lsl.w	r5, ip, r3
 8003e46:	3401      	adds	r4, #1
 8003e48:	4335      	orrs	r5, r6
 8003e4a:	3302      	adds	r3, #2
 8003e4c:	2c10      	cmp	r4, #16
 8003e4e:	60c5      	str	r5, [r0, #12]
 8003e50:	d1d3      	bne.n	8003dfa <GPIO_Init+0x1a>
 8003e52:	e8bd 07f0 	ldmia.w	sp!, {r4, r5, r6, r7, r8, r9, sl}
 8003e56:	4770      	bx	lr
 8003e58:	f8d0 a008 	ldr.w	sl, [r0, #8]
 8003e5c:	f891 9005 	ldrb.w	r9, [r1, #5]
 8003e60:	f891 c006 	ldrb.w	ip, [r1, #6]
 8003e64:	ea05 0a0a 	and.w	sl, r5, sl
 8003e68:	f8c0 a008 	str.w	sl, [r0, #8]
 8003e6c:	f8d0 a008 	ldr.w	sl, [r0, #8]
 8003e70:	fa09 f903 	lsl.w	r9, r9, r3
 8003e74:	ea49 090a 	orr.w	r9, r9, sl
 8003e78:	f8c0 9008 	str.w	r9, [r0, #8]
 8003e7c:	f8d0 9004 	ldr.w	r9, [r0, #4]
 8003e80:	ea29 0606 	bic.w	r6, r9, r6
 8003e84:	6046      	str	r6, [r0, #4]
 8003e86:	6846      	ldr	r6, [r0, #4]
 8003e88:	fa0c fc04 	lsl.w	ip, ip, r4
 8003e8c:	fa1f fc8c 	uxth.w	ip, ip
 8003e90:	ea4c 0606 	orr.w	r6, ip, r6
 8003e94:	6046      	str	r6, [r0, #4]
 8003e96:	e7ce      	b.n	8003e36 <GPIO_Init+0x56>

08003e98 <GPIO_StructInit>:
 8003e98:	f64f 72ff 	movw	r2, #65535	; 0xffff
 8003e9c:	2300      	movs	r3, #0
 8003e9e:	e880 000c 	stmia.w	r0, {r2, r3}
 8003ea2:	4770      	bx	lr

08003ea4 <GPIO_PinLockConfig>:
 8003ea4:	b082      	sub	sp, #8
 8003ea6:	f44f 3380 	mov.w	r3, #65536	; 0x10000
 8003eaa:	9301      	str	r3, [sp, #4]
 8003eac:	9b01      	ldr	r3, [sp, #4]
 8003eae:	430b      	orrs	r3, r1
 8003eb0:	9301      	str	r3, [sp, #4]
 8003eb2:	9b01      	ldr	r3, [sp, #4]
 8003eb4:	61c3      	str	r3, [r0, #28]
 8003eb6:	61c1      	str	r1, [r0, #28]
 8003eb8:	9b01      	ldr	r3, [sp, #4]
 8003eba:	61c3      	str	r3, [r0, #28]
 8003ebc:	69c3      	ldr	r3, [r0, #28]
 8003ebe:	9301      	str	r3, [sp, #4]
 8003ec0:	69c3      	ldr	r3, [r0, #28]
 8003ec2:	9301      	str	r3, [sp, #4]
 8003ec4:	b002      	add	sp, #8
 8003ec6:	4770      	bx	lr

08003ec8 <GPIO_ReadInputDataBit>:
 8003ec8:	6903      	ldr	r3, [r0, #16]
 8003eca:	4219      	tst	r1, r3
 8003ecc:	bf0c      	ite	eq
 8003ece:	2000      	moveq	r0, #0
 8003ed0:	2001      	movne	r0, #1
 8003ed2:	4770      	bx	lr

08003ed4 <GPIO_ReadInputData>:
 8003ed4:	6900      	ldr	r0, [r0, #16]
 8003ed6:	b280      	uxth	r0, r0
 8003ed8:	4770      	bx	lr
 8003eda:	bf00      	nop

08003edc <GPIO_ReadOutputDataBit>:
 8003edc:	6943      	ldr	r3, [r0, #20]
 8003ede:	4219      	tst	r1, r3
 8003ee0:	bf0c      	ite	eq
 8003ee2:	2000      	moveq	r0, #0
 8003ee4:	2001      	movne	r0, #1
 8003ee6:	4770      	bx	lr

08003ee8 <GPIO_ReadOutputData>:
 8003ee8:	6940      	ldr	r0, [r0, #20]
 8003eea:	b280      	uxth	r0, r0
 8003eec:	4770      	bx	lr
 8003eee:	bf00      	nop

08003ef0 <GPIO_SetBits>:
 8003ef0:	8301      	strh	r1, [r0, #24]
 8003ef2:	4770      	bx	lr

08003ef4 <GPIO_ResetBits>:
 8003ef4:	8341      	strh	r1, [r0, #26]
 8003ef6:	4770      	bx	lr

08003ef8 <GPIO_WriteBit>:
 8003ef8:	b90a      	cbnz	r2, 8003efe <GPIO_WriteBit+0x6>
 8003efa:	8341      	strh	r1, [r0, #26]
 8003efc:	4770      	bx	lr
 8003efe:	8301      	strh	r1, [r0, #24]
 8003f00:	4770      	bx	lr
 8003f02:	bf00      	nop

08003f04 <GPIO_Write>:
 8003f04:	6141      	str	r1, [r0, #20]
 8003f06:	4770      	bx	lr

08003f08 <GPIO_ToggleBits>:
 8003f08:	6943      	ldr	r3, [r0, #20]
 8003f0a:	404b      	eors	r3, r1
 8003f0c:	6143      	str	r3, [r0, #20]
 8003f0e:	4770      	bx	lr

08003f10 <GPIO_PinAFConfig>:
 8003f10:	08cb      	lsrs	r3, r1, #3
 8003f12:	3308      	adds	r3, #8
 8003f14:	f001 0107 	and.w	r1, r1, #7
 8003f18:	b430      	push	{r4, r5}
 8003f1a:	0089      	lsls	r1, r1, #2
 8003f1c:	f850 5023 	ldr.w	r5, [r0, r3, lsl #2]
 8003f20:	240f      	movs	r4, #15
 8003f22:	408c      	lsls	r4, r1
 8003f24:	ea25 0404 	bic.w	r4, r5, r4
 8003f28:	f840 4023 	str.w	r4, [r0, r3, lsl #2]
 8003f2c:	f850 4023 	ldr.w	r4, [r0, r3, lsl #2]
 8003f30:	fa12 f101 	lsls.w	r1, r2, r1
 8003f34:	430c      	orrs	r4, r1
 8003f36:	f840 4023 	str.w	r4, [r0, r3, lsl #2]
 8003f3a:	bc30      	pop	{r4, r5}
 8003f3c:	4770      	bx	lr
 8003f3e:	bf00      	nop

08003f40 <HASH_DeInit>:
 8003f40:	b508      	push	{r3, lr}
 8003f42:	2020      	movs	r0, #32
 8003f44:	2101      	movs	r1, #1
 8003f46:	f000 ff63 	bl	8004e10 <RCC_AHB2PeriphResetCmd>
 8003f4a:	2020      	movs	r0, #32
 8003f4c:	2100      	movs	r1, #0
 8003f4e:	e8bd 4008 	ldmia.w	sp!, {r3, lr}
 8003f52:	f000 bf5d 	b.w	8004e10 <RCC_AHB2PeriphResetCmd>
 8003f56:	bf00      	nop

08003f58 <HASH_Init>:
 8003f58:	f44f 6380 	mov.w	r3, #1024	; 0x400
 8003f5c:	f2c5 0306 	movt	r3, #20486	; 0x5006
 8003f60:	b430      	push	{r4, r5}
 8003f62:	681a      	ldr	r2, [r3, #0]
 8003f64:	f022 02f0 	bic.w	r2, r2, #240	; 0xf0
 8003f68:	601a      	str	r2, [r3, #0]
 8003f6a:	e890 0016 	ldmia.w	r0, {r1, r2, r4}
 8003f6e:	681d      	ldr	r5, [r3, #0]
 8003f70:	4329      	orrs	r1, r5
 8003f72:	4321      	orrs	r1, r4
 8003f74:	4311      	orrs	r1, r2
 8003f76:	2a40      	cmp	r2, #64	; 0x40
 8003f78:	6019      	str	r1, [r3, #0]
 8003f7a:	d107      	bne.n	8003f8c <HASH_Init+0x34>
 8003f7c:	681a      	ldr	r2, [r3, #0]
 8003f7e:	f422 3280 	bic.w	r2, r2, #65536	; 0x10000
 8003f82:	601a      	str	r2, [r3, #0]
 8003f84:	6819      	ldr	r1, [r3, #0]
 8003f86:	68c2      	ldr	r2, [r0, #12]
 8003f88:	430a      	orrs	r2, r1
 8003f8a:	601a      	str	r2, [r3, #0]
 8003f8c:	f44f 6380 	mov.w	r3, #1024	; 0x400
 8003f90:	f2c5 0306 	movt	r3, #20486	; 0x5006
 8003f94:	681a      	ldr	r2, [r3, #0]
 8003f96:	f042 0204 	orr.w	r2, r2, #4
 8003f9a:	601a      	str	r2, [r3, #0]
 8003f9c:	bc30      	pop	{r4, r5}
 8003f9e:	4770      	bx	lr

08003fa0 <HASH_StructInit>:
 8003fa0:	2300      	movs	r3, #0
 8003fa2:	6003      	str	r3, [r0, #0]
 8003fa4:	6043      	str	r3, [r0, #4]
 8003fa6:	6083      	str	r3, [r0, #8]
 8003fa8:	60c3      	str	r3, [r0, #12]
 8003faa:	4770      	bx	lr

08003fac <HASH_Reset>:
 8003fac:	f44f 6380 	mov.w	r3, #1024	; 0x400
 8003fb0:	f2c5 0306 	movt	r3, #20486	; 0x5006
 8003fb4:	681a      	ldr	r2, [r3, #0]
 8003fb6:	f042 0204 	orr.w	r2, r2, #4
 8003fba:	601a      	str	r2, [r3, #0]
 8003fbc:	4770      	bx	lr
 8003fbe:	bf00      	nop

08003fc0 <HASH_SetLastWordValidBitsNbr>:
 8003fc0:	f44f 6380 	mov.w	r3, #1024	; 0x400
 8003fc4:	f2c5 0306 	movt	r3, #20486	; 0x5006
 8003fc8:	689a      	ldr	r2, [r3, #8]
 8003fca:	f022 021f 	bic.w	r2, r2, #31
 8003fce:	609a      	str	r2, [r3, #8]
 8003fd0:	689a      	ldr	r2, [r3, #8]
 8003fd2:	4302      	orrs	r2, r0
 8003fd4:	609a      	str	r2, [r3, #8]
 8003fd6:	4770      	bx	lr

08003fd8 <HASH_DataIn>:
 8003fd8:	f44f 6380 	mov.w	r3, #1024	; 0x400
 8003fdc:	f2c5 0306 	movt	r3, #20486	; 0x5006
 8003fe0:	6058      	str	r0, [r3, #4]
 8003fe2:	4770      	bx	lr

08003fe4 <HASH_GetInFIFOWordsNbr>:
 8003fe4:	f44f 6380 	mov.w	r3, #1024	; 0x400
 8003fe8:	f2c5 0306 	movt	r3, #20486	; 0x5006
 8003fec:	6818      	ldr	r0, [r3, #0]
 8003fee:	f3c0 2003 	ubfx	r0, r0, #8, #4
 8003ff2:	4770      	bx	lr

08003ff4 <HASH_GetDigest>:
 8003ff4:	f44f 6380 	mov.w	r3, #1024	; 0x400
 8003ff8:	f2c5 0306 	movt	r3, #20486	; 0x5006
 8003ffc:	68da      	ldr	r2, [r3, #12]
 8003ffe:	6002      	str	r2, [r0, #0]
 8004000:	691a      	ldr	r2, [r3, #16]
 8004002:	6042      	str	r2, [r0, #4]
 8004004:	695a      	ldr	r2, [r3, #20]
 8004006:	6082      	str	r2, [r0, #8]
 8004008:	699a      	ldr	r2, [r3, #24]
 800400a:	60c2      	str	r2, [r0, #12]
 800400c:	69db      	ldr	r3, [r3, #28]
 800400e:	6103      	str	r3, [r0, #16]
 8004010:	4770      	bx	lr
 8004012:	bf00      	nop

08004014 <HASH_StartDigest>:
 8004014:	f44f 6380 	mov.w	r3, #1024	; 0x400
 8004018:	f2c5 0306 	movt	r3, #20486	; 0x5006
 800401c:	689a      	ldr	r2, [r3, #8]
 800401e:	f442 7280 	orr.w	r2, r2, #256	; 0x100
 8004022:	609a      	str	r2, [r3, #8]
 8004024:	4770      	bx	lr
 8004026:	bf00      	nop

08004028 <HASH_SaveContext>:
 8004028:	f44f 6380 	mov.w	r3, #1024	; 0x400
 800402c:	f2c5 0306 	movt	r3, #20486	; 0x5006
 8004030:	6a1a      	ldr	r2, [r3, #32]
 8004032:	6002      	str	r2, [r0, #0]
 8004034:	689a      	ldr	r2, [r3, #8]
 8004036:	6042      	str	r2, [r0, #4]
 8004038:	6819      	ldr	r1, [r3, #0]
 800403a:	f840 1f08 	str.w	r1, [r0, #8]!
 800403e:	2200      	movs	r2, #0
 8004040:	f102 013e 	add.w	r1, r2, #62	; 0x3e
 8004044:	3201      	adds	r2, #1
 8004046:	f853 1021 	ldr.w	r1, [r3, r1, lsl #2]
 800404a:	2a33      	cmp	r2, #51	; 0x33
 800404c:	f840 1f04 	str.w	r1, [r0, #4]!
 8004050:	d1f6      	bne.n	8004040 <HASH_SaveContext+0x18>
 8004052:	4770      	bx	lr

08004054 <HASH_RestoreContext>:
 8004054:	b410      	push	{r4}
 8004056:	f44f 6480 	mov.w	r4, #1024	; 0x400
 800405a:	6803      	ldr	r3, [r0, #0]
 800405c:	f2c5 0406 	movt	r4, #20486	; 0x5006
 8004060:	6223      	str	r3, [r4, #32]
 8004062:	6843      	ldr	r3, [r0, #4]
 8004064:	60a3      	str	r3, [r4, #8]
 8004066:	f850 3f08 	ldr.w	r3, [r0, #8]!
 800406a:	6023      	str	r3, [r4, #0]
 800406c:	6823      	ldr	r3, [r4, #0]
 800406e:	f043 0304 	orr.w	r3, r3, #4
 8004072:	6023      	str	r3, [r4, #0]
 8004074:	2300      	movs	r3, #0
 8004076:	f103 023e 	add.w	r2, r3, #62	; 0x3e
 800407a:	f850 1f04 	ldr.w	r1, [r0, #4]!
 800407e:	3301      	adds	r3, #1
 8004080:	2b33      	cmp	r3, #51	; 0x33
 8004082:	f844 1022 	str.w	r1, [r4, r2, lsl #2]
 8004086:	d1f6      	bne.n	8004076 <HASH_RestoreContext+0x22>
 8004088:	bc10      	pop	{r4}
 800408a:	4770      	bx	lr

0800408c <HASH_DMACmd>:
 800408c:	f44f 6380 	mov.w	r3, #1024	; 0x400
 8004090:	f2c5 0306 	movt	r3, #20486	; 0x5006
 8004094:	681a      	ldr	r2, [r3, #0]
 8004096:	b918      	cbnz	r0, 80040a0 <HASH_DMACmd+0x14>
 8004098:	f022 0208 	bic.w	r2, r2, #8
 800409c:	601a      	str	r2, [r3, #0]
 800409e:	4770      	bx	lr
 80040a0:	f042 0208 	orr.w	r2, r2, #8
 80040a4:	601a      	str	r2, [r3, #0]
 80040a6:	4770      	bx	lr

080040a8 <HASH_ITConfig>:
 80040a8:	f44f 6380 	mov.w	r3, #1024	; 0x400
 80040ac:	f2c5 0306 	movt	r3, #20486	; 0x5006
 80040b0:	6a1a      	ldr	r2, [r3, #32]
 80040b2:	b929      	cbnz	r1, 80040c0 <HASH_ITConfig+0x18>
 80040b4:	ea22 0000 	bic.w	r0, r2, r0
 80040b8:	f000 00ff 	and.w	r0, r0, #255	; 0xff
 80040bc:	6218      	str	r0, [r3, #32]
 80040be:	4770      	bx	lr
 80040c0:	4310      	orrs	r0, r2
 80040c2:	6218      	str	r0, [r3, #32]
 80040c4:	4770      	bx	lr
 80040c6:	bf00      	nop

080040c8 <HASH_GetFlagStatus>:
 80040c8:	f44f 6380 	mov.w	r3, #1024	; 0x400
 80040cc:	f2c5 0306 	movt	r3, #20486	; 0x5006
 80040d0:	04c2      	lsls	r2, r0, #19
 80040d2:	bf4c      	ite	mi
 80040d4:	681b      	ldrmi	r3, [r3, #0]
 80040d6:	6a5b      	ldrpl	r3, [r3, #36]	; 0x24
 80040d8:	4203      	tst	r3, r0
 80040da:	bf0c      	ite	eq
 80040dc:	2000      	moveq	r0, #0
 80040de:	2001      	movne	r0, #1
 80040e0:	4770      	bx	lr
 80040e2:	bf00      	nop

080040e4 <HASH_ClearFlag>:
 80040e4:	f44f 6380 	mov.w	r3, #1024	; 0x400
 80040e8:	f2c5 0306 	movt	r3, #20486	; 0x5006
 80040ec:	43c0      	mvns	r0, r0
 80040ee:	6258      	str	r0, [r3, #36]	; 0x24
 80040f0:	4770      	bx	lr
 80040f2:	bf00      	nop

080040f4 <HASH_GetITStatus>:
 80040f4:	f44f 6380 	mov.w	r3, #1024	; 0x400
 80040f8:	f2c5 0306 	movt	r3, #20486	; 0x5006
 80040fc:	6a5a      	ldr	r2, [r3, #36]	; 0x24
 80040fe:	6a1b      	ldr	r3, [r3, #32]
 8004100:	4013      	ands	r3, r2
 8004102:	4203      	tst	r3, r0
 8004104:	bf0c      	ite	eq
 8004106:	2000      	moveq	r0, #0
 8004108:	2001      	movne	r0, #1
 800410a:	4770      	bx	lr

0800410c <HASH_ClearITPendingBit>:
 800410c:	f44f 6380 	mov.w	r3, #1024	; 0x400
 8004110:	43c0      	mvns	r0, r0
 8004112:	f2c5 0306 	movt	r3, #20486	; 0x5006
 8004116:	b2c0      	uxtb	r0, r0
 8004118:	6258      	str	r0, [r3, #36]	; 0x24
 800411a:	4770      	bx	lr

0800411c <HASH_MD5>:
 800411c:	b5f0      	push	{r4, r5, r6, r7, lr}
 800411e:	f001 0303 	and.w	r3, r1, #3
 8004122:	b08d      	sub	sp, #52	; 0x34
 8004124:	2600      	movs	r6, #0
 8004126:	00db      	lsls	r3, r3, #3
 8004128:	460c      	mov	r4, r1
 800412a:	f8ad 602e 	strh.w	r6, [sp, #46]	; 0x2e
 800412e:	4605      	mov	r5, r0
 8004130:	4617      	mov	r7, r2
 8004132:	960a      	str	r6, [sp, #40]	; 0x28
 8004134:	f8ad 302e 	strh.w	r3, [sp, #46]	; 0x2e
 8004138:	f7ff ff02 	bl	8003f40 <HASH_DeInit>
 800413c:	2380      	movs	r3, #128	; 0x80
 800413e:	a806      	add	r0, sp, #24
 8004140:	9306      	str	r3, [sp, #24]
 8004142:	2320      	movs	r3, #32
 8004144:	9607      	str	r6, [sp, #28]
 8004146:	9308      	str	r3, [sp, #32]
 8004148:	f7ff ff06 	bl	8003f58 <HASH_Init>
 800414c:	f8bd 002e 	ldrh.w	r0, [sp, #46]	; 0x2e
 8004150:	b280      	uxth	r0, r0
 8004152:	f7ff ff35 	bl	8003fc0 <HASH_SetLastWordValidBitsNbr>
 8004156:	b12c      	cbz	r4, 8004164 <HASH_MD5+0x48>
 8004158:	59a8      	ldr	r0, [r5, r6]
 800415a:	3604      	adds	r6, #4
 800415c:	f7ff ff3c 	bl	8003fd8 <HASH_DataIn>
 8004160:	42b4      	cmp	r4, r6
 8004162:	d8f9      	bhi.n	8004158 <HASH_MD5+0x3c>
 8004164:	f7ff ff56 	bl	8004014 <HASH_StartDigest>
 8004168:	e000      	b.n	800416c <HASH_MD5+0x50>
 800416a:	b168      	cbz	r0, 8004188 <HASH_MD5+0x6c>
 800416c:	2008      	movs	r0, #8
 800416e:	f7ff ffab 	bl	80040c8 <HASH_GetFlagStatus>
 8004172:	9b0a      	ldr	r3, [sp, #40]	; 0x28
 8004174:	3301      	adds	r3, #1
 8004176:	930a      	str	r3, [sp, #40]	; 0x28
 8004178:	9b0a      	ldr	r3, [sp, #40]	; 0x28
 800417a:	f5b3 3f80 	cmp.w	r3, #65536	; 0x10000
 800417e:	d1f4      	bne.n	800416a <HASH_MD5+0x4e>
 8004180:	b110      	cbz	r0, 8004188 <HASH_MD5+0x6c>
 8004182:	2000      	movs	r0, #0
 8004184:	b00d      	add	sp, #52	; 0x34
 8004186:	bdf0      	pop	{r4, r5, r6, r7, pc}
 8004188:	a801      	add	r0, sp, #4
 800418a:	f7ff ff33 	bl	8003ff4 <HASH_GetDigest>
 800418e:	9b01      	ldr	r3, [sp, #4]
 8004190:	ba1b      	rev	r3, r3
 8004192:	603b      	str	r3, [r7, #0]
 8004194:	9b02      	ldr	r3, [sp, #8]
 8004196:	ba1b      	rev	r3, r3
 8004198:	607b      	str	r3, [r7, #4]
 800419a:	9b03      	ldr	r3, [sp, #12]
 800419c:	ba1b      	rev	r3, r3
 800419e:	60bb      	str	r3, [r7, #8]
 80041a0:	9b04      	ldr	r3, [sp, #16]
 80041a2:	ba1b      	rev	r3, r3
 80041a4:	2001      	movs	r0, #1
 80041a6:	60fb      	str	r3, [r7, #12]
 80041a8:	e7ec      	b.n	8004184 <HASH_MD5+0x68>
 80041aa:	bf00      	nop

080041ac <HMAC_MD5>:
 80041ac:	e92d 43f0 	stmdb	sp!, {r4, r5, r6, r7, r8, r9, lr}
 80041b0:	460c      	mov	r4, r1
 80041b2:	b08d      	sub	sp, #52	; 0x34
 80041b4:	f003 0103 	and.w	r1, r3, #3
 80041b8:	461e      	mov	r6, r3
 80041ba:	f004 0303 	and.w	r3, r4, #3
 80041be:	2700      	movs	r7, #0
 80041c0:	00db      	lsls	r3, r3, #3
 80041c2:	00c9      	lsls	r1, r1, #3
 80041c4:	f8ad 702c 	strh.w	r7, [sp, #44]	; 0x2c
 80041c8:	4605      	mov	r5, r0
 80041ca:	f8ad 702e 	strh.w	r7, [sp, #46]	; 0x2e
 80041ce:	4690      	mov	r8, r2
 80041d0:	970a      	str	r7, [sp, #40]	; 0x28
 80041d2:	f8dd 9050 	ldr.w	r9, [sp, #80]	; 0x50
 80041d6:	f8ad 102c 	strh.w	r1, [sp, #44]	; 0x2c
 80041da:	f8ad 302e 	strh.w	r3, [sp, #46]	; 0x2e
 80041de:	f7ff feaf 	bl	8003f40 <HASH_DeInit>
 80041e2:	2380      	movs	r3, #128	; 0x80
 80041e4:	9306      	str	r3, [sp, #24]
 80041e6:	2340      	movs	r3, #64	; 0x40
 80041e8:	9307      	str	r3, [sp, #28]
 80041ea:	2320      	movs	r3, #32
 80041ec:	2c40      	cmp	r4, #64	; 0x40
 80041ee:	9308      	str	r3, [sp, #32]
 80041f0:	a806      	add	r0, sp, #24
 80041f2:	d822      	bhi.n	800423a <HMAC_MD5+0x8e>
 80041f4:	9709      	str	r7, [sp, #36]	; 0x24
 80041f6:	f7ff feaf 	bl	8003f58 <HASH_Init>
 80041fa:	f8bd 002e 	ldrh.w	r0, [sp, #46]	; 0x2e
 80041fe:	b280      	uxth	r0, r0
 8004200:	f7ff fede 	bl	8003fc0 <HASH_SetLastWordValidBitsNbr>
 8004204:	b134      	cbz	r4, 8004214 <HMAC_MD5+0x68>
 8004206:	2700      	movs	r7, #0
 8004208:	59e8      	ldr	r0, [r5, r7]
 800420a:	3704      	adds	r7, #4
 800420c:	f7ff fee4 	bl	8003fd8 <HASH_DataIn>
 8004210:	42bc      	cmp	r4, r7
 8004212:	d8f9      	bhi.n	8004208 <HMAC_MD5+0x5c>
 8004214:	f7ff fefe 	bl	8004014 <HASH_StartDigest>
 8004218:	e000      	b.n	800421c <HMAC_MD5+0x70>
 800421a:	b1c8      	cbz	r0, 8004250 <HMAC_MD5+0xa4>
 800421c:	2008      	movs	r0, #8
 800421e:	f7ff ff53 	bl	80040c8 <HASH_GetFlagStatus>
 8004222:	9b0a      	ldr	r3, [sp, #40]	; 0x28
 8004224:	3301      	adds	r3, #1
 8004226:	930a      	str	r3, [sp, #40]	; 0x28
 8004228:	9b0a      	ldr	r3, [sp, #40]	; 0x28
 800422a:	f5b3 3f80 	cmp.w	r3, #65536	; 0x10000
 800422e:	d1f4      	bne.n	800421a <HMAC_MD5+0x6e>
 8004230:	b170      	cbz	r0, 8004250 <HMAC_MD5+0xa4>
 8004232:	2000      	movs	r0, #0
 8004234:	b00d      	add	sp, #52	; 0x34
 8004236:	e8bd 83f0 	ldmia.w	sp!, {r4, r5, r6, r7, r8, r9, pc}
 800423a:	f44f 3380 	mov.w	r3, #65536	; 0x10000
 800423e:	9309      	str	r3, [sp, #36]	; 0x24
 8004240:	f7ff fe8a 	bl	8003f58 <HASH_Init>
 8004244:	f8bd 002e 	ldrh.w	r0, [sp, #46]	; 0x2e
 8004248:	b280      	uxth	r0, r0
 800424a:	f7ff feb9 	bl	8003fc0 <HASH_SetLastWordValidBitsNbr>
 800424e:	e7da      	b.n	8004206 <HMAC_MD5+0x5a>
 8004250:	f8bd 002c 	ldrh.w	r0, [sp, #44]	; 0x2c
 8004254:	b280      	uxth	r0, r0
 8004256:	f7ff feb3 	bl	8003fc0 <HASH_SetLastWordValidBitsNbr>
 800425a:	b13e      	cbz	r6, 800426c <HMAC_MD5+0xc0>
 800425c:	2700      	movs	r7, #0
 800425e:	f858 0007 	ldr.w	r0, [r8, r7]
 8004262:	3704      	adds	r7, #4
 8004264:	f7ff feb8 	bl	8003fd8 <HASH_DataIn>
 8004268:	42be      	cmp	r6, r7
 800426a:	d8f8      	bhi.n	800425e <HMAC_MD5+0xb2>
 800426c:	f7ff fed2 	bl	8004014 <HASH_StartDigest>
 8004270:	2300      	movs	r3, #0
 8004272:	930a      	str	r3, [sp, #40]	; 0x28
 8004274:	e000      	b.n	8004278 <HMAC_MD5+0xcc>
 8004276:	b158      	cbz	r0, 8004290 <HMAC_MD5+0xe4>
 8004278:	2008      	movs	r0, #8
 800427a:	f7ff ff25 	bl	80040c8 <HASH_GetFlagStatus>
 800427e:	9b0a      	ldr	r3, [sp, #40]	; 0x28
 8004280:	3301      	adds	r3, #1
 8004282:	930a      	str	r3, [sp, #40]	; 0x28
 8004284:	9b0a      	ldr	r3, [sp, #40]	; 0x28
 8004286:	f5b3 3f80 	cmp.w	r3, #65536	; 0x10000
 800428a:	d1f4      	bne.n	8004276 <HMAC_MD5+0xca>
 800428c:	2800      	cmp	r0, #0
 800428e:	d1d0      	bne.n	8004232 <HMAC_MD5+0x86>
 8004290:	f8bd 002e 	ldrh.w	r0, [sp, #46]	; 0x2e
 8004294:	b280      	uxth	r0, r0
 8004296:	f7ff fe93 	bl	8003fc0 <HASH_SetLastWordValidBitsNbr>
 800429a:	b134      	cbz	r4, 80042aa <HMAC_MD5+0xfe>
 800429c:	2600      	movs	r6, #0
 800429e:	59a8      	ldr	r0, [r5, r6]
 80042a0:	3604      	adds	r6, #4
 80042a2:	f7ff fe99 	bl	8003fd8 <HASH_DataIn>
 80042a6:	42b4      	cmp	r4, r6
 80042a8:	d8f9      	bhi.n	800429e <HMAC_MD5+0xf2>
 80042aa:	f7ff feb3 	bl	8004014 <HASH_StartDigest>
 80042ae:	2300      	movs	r3, #0
 80042b0:	930a      	str	r3, [sp, #40]	; 0x28
 80042b2:	e000      	b.n	80042b6 <HMAC_MD5+0x10a>
 80042b4:	b158      	cbz	r0, 80042ce <HMAC_MD5+0x122>
 80042b6:	2008      	movs	r0, #8
 80042b8:	f7ff ff06 	bl	80040c8 <HASH_GetFlagStatus>
 80042bc:	9b0a      	ldr	r3, [sp, #40]	; 0x28
 80042be:	3301      	adds	r3, #1
 80042c0:	930a      	str	r3, [sp, #40]	; 0x28
 80042c2:	9b0a      	ldr	r3, [sp, #40]	; 0x28
 80042c4:	f5b3 3f80 	cmp.w	r3, #65536	; 0x10000
 80042c8:	d1f4      	bne.n	80042b4 <HMAC_MD5+0x108>
 80042ca:	2800      	cmp	r0, #0
 80042cc:	d1b1      	bne.n	8004232 <HMAC_MD5+0x86>
 80042ce:	a801      	add	r0, sp, #4
 80042d0:	f7ff fe90 	bl	8003ff4 <HASH_GetDigest>
 80042d4:	9b01      	ldr	r3, [sp, #4]
 80042d6:	ba1b      	rev	r3, r3
 80042d8:	f8c9 3000 	str.w	r3, [r9]
 80042dc:	9b02      	ldr	r3, [sp, #8]
 80042de:	ba1b      	rev	r3, r3
 80042e0:	f8c9 3004 	str.w	r3, [r9, #4]
 80042e4:	9b03      	ldr	r3, [sp, #12]
 80042e6:	ba1b      	rev	r3, r3
 80042e8:	f8c9 3008 	str.w	r3, [r9, #8]
 80042ec:	9b04      	ldr	r3, [sp, #16]
 80042ee:	ba1b      	rev	r3, r3
 80042f0:	2001      	movs	r0, #1
 80042f2:	f8c9 300c 	str.w	r3, [r9, #12]
 80042f6:	e79d      	b.n	8004234 <HMAC_MD5+0x88>

080042f8 <HASH_SHA1>:
 80042f8:	b5f0      	push	{r4, r5, r6, r7, lr}
 80042fa:	f001 0303 	and.w	r3, r1, #3
 80042fe:	b08d      	sub	sp, #52	; 0x34
 8004300:	2600      	movs	r6, #0
 8004302:	00db      	lsls	r3, r3, #3
 8004304:	460c      	mov	r4, r1
 8004306:	f8ad 602e 	strh.w	r6, [sp, #46]	; 0x2e
 800430a:	4605      	mov	r5, r0
 800430c:	4617      	mov	r7, r2
 800430e:	960a      	str	r6, [sp, #40]	; 0x28
 8004310:	f8ad 302e 	strh.w	r3, [sp, #46]	; 0x2e
 8004314:	f7ff fe14 	bl	8003f40 <HASH_DeInit>
 8004318:	a806      	add	r0, sp, #24
 800431a:	2320      	movs	r3, #32
 800431c:	9606      	str	r6, [sp, #24]
 800431e:	9607      	str	r6, [sp, #28]
 8004320:	9308      	str	r3, [sp, #32]
 8004322:	f7ff fe19 	bl	8003f58 <HASH_Init>
 8004326:	f8bd 002e 	ldrh.w	r0, [sp, #46]	; 0x2e
 800432a:	b280      	uxth	r0, r0
 800432c:	f7ff fe48 	bl	8003fc0 <HASH_SetLastWordValidBitsNbr>
 8004330:	b12c      	cbz	r4, 800433e <HASH_SHA1+0x46>
 8004332:	59a8      	ldr	r0, [r5, r6]
 8004334:	3604      	adds	r6, #4
 8004336:	f7ff fe4f 	bl	8003fd8 <HASH_DataIn>
 800433a:	42b4      	cmp	r4, r6
 800433c:	d8f9      	bhi.n	8004332 <HASH_SHA1+0x3a>
 800433e:	f7ff fe69 	bl	8004014 <HASH_StartDigest>
 8004342:	e000      	b.n	8004346 <HASH_SHA1+0x4e>
 8004344:	b168      	cbz	r0, 8004362 <HASH_SHA1+0x6a>
 8004346:	2008      	movs	r0, #8
 8004348:	f7ff febe 	bl	80040c8 <HASH_GetFlagStatus>
 800434c:	9b0a      	ldr	r3, [sp, #40]	; 0x28
 800434e:	3301      	adds	r3, #1
 8004350:	930a      	str	r3, [sp, #40]	; 0x28
 8004352:	9b0a      	ldr	r3, [sp, #40]	; 0x28
 8004354:	f5b3 3f80 	cmp.w	r3, #65536	; 0x10000
 8004358:	d1f4      	bne.n	8004344 <HASH_SHA1+0x4c>
 800435a:	b110      	cbz	r0, 8004362 <HASH_SHA1+0x6a>
 800435c:	2000      	movs	r0, #0
 800435e:	b00d      	add	sp, #52	; 0x34
 8004360:	bdf0      	pop	{r4, r5, r6, r7, pc}
 8004362:	a801      	add	r0, sp, #4
 8004364:	f7ff fe46 	bl	8003ff4 <HASH_GetDigest>
 8004368:	9b01      	ldr	r3, [sp, #4]
 800436a:	ba1b      	rev	r3, r3
 800436c:	603b      	str	r3, [r7, #0]
 800436e:	9b02      	ldr	r3, [sp, #8]
 8004370:	ba1b      	rev	r3, r3
 8004372:	607b      	str	r3, [r7, #4]
 8004374:	9b03      	ldr	r3, [sp, #12]
 8004376:	ba1b      	rev	r3, r3
 8004378:	60bb      	str	r3, [r7, #8]
 800437a:	9b04      	ldr	r3, [sp, #16]
 800437c:	ba1b      	rev	r3, r3
 800437e:	60fb      	str	r3, [r7, #12]
 8004380:	9b05      	ldr	r3, [sp, #20]
 8004382:	ba1b      	rev	r3, r3
 8004384:	2001      	movs	r0, #1
 8004386:	613b      	str	r3, [r7, #16]
 8004388:	e7e9      	b.n	800435e <HASH_SHA1+0x66>
 800438a:	bf00      	nop

0800438c <HMAC_SHA1>:
 800438c:	e92d 43f0 	stmdb	sp!, {r4, r5, r6, r7, r8, r9, lr}
 8004390:	460c      	mov	r4, r1
 8004392:	b08d      	sub	sp, #52	; 0x34
 8004394:	f003 0103 	and.w	r1, r3, #3
 8004398:	461e      	mov	r6, r3
 800439a:	f004 0303 	and.w	r3, r4, #3
 800439e:	2700      	movs	r7, #0
 80043a0:	00db      	lsls	r3, r3, #3
 80043a2:	00c9      	lsls	r1, r1, #3
 80043a4:	f8ad 702c 	strh.w	r7, [sp, #44]	; 0x2c
 80043a8:	4605      	mov	r5, r0
 80043aa:	f8ad 702e 	strh.w	r7, [sp, #46]	; 0x2e
 80043ae:	4690      	mov	r8, r2
 80043b0:	970a      	str	r7, [sp, #40]	; 0x28
 80043b2:	f8dd 9050 	ldr.w	r9, [sp, #80]	; 0x50
 80043b6:	f8ad 102c 	strh.w	r1, [sp, #44]	; 0x2c
 80043ba:	f8ad 302e 	strh.w	r3, [sp, #46]	; 0x2e
 80043be:	f7ff fdbf 	bl	8003f40 <HASH_DeInit>
 80043c2:	2340      	movs	r3, #64	; 0x40
 80043c4:	9307      	str	r3, [sp, #28]
 80043c6:	2320      	movs	r3, #32
 80043c8:	2c40      	cmp	r4, #64	; 0x40
 80043ca:	9706      	str	r7, [sp, #24]
 80043cc:	9308      	str	r3, [sp, #32]
 80043ce:	a806      	add	r0, sp, #24
 80043d0:	d822      	bhi.n	8004418 <HMAC_SHA1+0x8c>
 80043d2:	9709      	str	r7, [sp, #36]	; 0x24
 80043d4:	f7ff fdc0 	bl	8003f58 <HASH_Init>
 80043d8:	f8bd 002e 	ldrh.w	r0, [sp, #46]	; 0x2e
 80043dc:	b280      	uxth	r0, r0
 80043de:	f7ff fdef 	bl	8003fc0 <HASH_SetLastWordValidBitsNbr>
 80043e2:	b134      	cbz	r4, 80043f2 <HMAC_SHA1+0x66>
 80043e4:	2700      	movs	r7, #0
 80043e6:	59e8      	ldr	r0, [r5, r7]
 80043e8:	3704      	adds	r7, #4
 80043ea:	f7ff fdf5 	bl	8003fd8 <HASH_DataIn>
 80043ee:	42bc      	cmp	r4, r7
 80043f0:	d8f9      	bhi.n	80043e6 <HMAC_SHA1+0x5a>
 80043f2:	f7ff fe0f 	bl	8004014 <HASH_StartDigest>
 80043f6:	e000      	b.n	80043fa <HMAC_SHA1+0x6e>
 80043f8:	b1c8      	cbz	r0, 800442e <HMAC_SHA1+0xa2>
 80043fa:	2008      	movs	r0, #8
 80043fc:	f7ff fe64 	bl	80040c8 <HASH_GetFlagStatus>
 8004400:	9b0a      	ldr	r3, [sp, #40]	; 0x28
 8004402:	3301      	adds	r3, #1
 8004404:	930a      	str	r3, [sp, #40]	; 0x28
 8004406:	9b0a      	ldr	r3, [sp, #40]	; 0x28
 8004408:	f5b3 3f80 	cmp.w	r3, #65536	; 0x10000
 800440c:	d1f4      	bne.n	80043f8 <HMAC_SHA1+0x6c>
 800440e:	b170      	cbz	r0, 800442e <HMAC_SHA1+0xa2>
 8004410:	2000      	movs	r0, #0
 8004412:	b00d      	add	sp, #52	; 0x34
 8004414:	e8bd 83f0 	ldmia.w	sp!, {r4, r5, r6, r7, r8, r9, pc}
 8004418:	f44f 3380 	mov.w	r3, #65536	; 0x10000
 800441c:	9309      	str	r3, [sp, #36]	; 0x24
 800441e:	f7ff fd9b 	bl	8003f58 <HASH_Init>
 8004422:	f8bd 002e 	ldrh.w	r0, [sp, #46]	; 0x2e
 8004426:	b280      	uxth	r0, r0
 8004428:	f7ff fdca 	bl	8003fc0 <HASH_SetLastWordValidBitsNbr>
 800442c:	e7da      	b.n	80043e4 <HMAC_SHA1+0x58>
 800442e:	f8bd 002c 	ldrh.w	r0, [sp, #44]	; 0x2c
 8004432:	b280      	uxth	r0, r0
 8004434:	f7ff fdc4 	bl	8003fc0 <HASH_SetLastWordValidBitsNbr>
 8004438:	b13e      	cbz	r6, 800444a <HMAC_SHA1+0xbe>
 800443a:	2700      	movs	r7, #0
 800443c:	f858 0007 	ldr.w	r0, [r8, r7]
 8004440:	3704      	adds	r7, #4
 8004442:	f7ff fdc9 	bl	8003fd8 <HASH_DataIn>
 8004446:	42be      	cmp	r6, r7
 8004448:	d8f8      	bhi.n	800443c <HMAC_SHA1+0xb0>
 800444a:	f7ff fde3 	bl	8004014 <HASH_StartDigest>
 800444e:	2300      	movs	r3, #0
 8004450:	930a      	str	r3, [sp, #40]	; 0x28
 8004452:	e000      	b.n	8004456 <HMAC_SHA1+0xca>
 8004454:	b158      	cbz	r0, 800446e <HMAC_SHA1+0xe2>
 8004456:	2008      	movs	r0, #8
 8004458:	f7ff fe36 	bl	80040c8 <HASH_GetFlagStatus>
 800445c:	9b0a      	ldr	r3, [sp, #40]	; 0x28
 800445e:	3301      	adds	r3, #1
 8004460:	930a      	str	r3, [sp, #40]	; 0x28
 8004462:	9b0a      	ldr	r3, [sp, #40]	; 0x28
 8004464:	f5b3 3f80 	cmp.w	r3, #65536	; 0x10000
 8004468:	d1f4      	bne.n	8004454 <HMAC_SHA1+0xc8>
 800446a:	2800      	cmp	r0, #0
 800446c:	d1d0      	bne.n	8004410 <HMAC_SHA1+0x84>
 800446e:	f8bd 002e 	ldrh.w	r0, [sp, #46]	; 0x2e
 8004472:	b280      	uxth	r0, r0
 8004474:	f7ff fda4 	bl	8003fc0 <HASH_SetLastWordValidBitsNbr>
 8004478:	b134      	cbz	r4, 8004488 <HMAC_SHA1+0xfc>
 800447a:	2600      	movs	r6, #0
 800447c:	59a8      	ldr	r0, [r5, r6]
 800447e:	3604      	adds	r6, #4
 8004480:	f7ff fdaa 	bl	8003fd8 <HASH_DataIn>
 8004484:	42b4      	cmp	r4, r6
 8004486:	d8f9      	bhi.n	800447c <HMAC_SHA1+0xf0>
 8004488:	f7ff fdc4 	bl	8004014 <HASH_StartDigest>
 800448c:	2300      	movs	r3, #0
 800448e:	930a      	str	r3, [sp, #40]	; 0x28
 8004490:	e000      	b.n	8004494 <HMAC_SHA1+0x108>
 8004492:	b158      	cbz	r0, 80044ac <HMAC_SHA1+0x120>
 8004494:	2008      	movs	r0, #8
 8004496:	f7ff fe17 	bl	80040c8 <HASH_GetFlagStatus>
 800449a:	9b0a      	ldr	r3, [sp, #40]	; 0x28
 800449c:	3301      	adds	r3, #1
 800449e:	930a      	str	r3, [sp, #40]	; 0x28
 80044a0:	9b0a      	ldr	r3, [sp, #40]	; 0x28
 80044a2:	f5b3 3f80 	cmp.w	r3, #65536	; 0x10000
 80044a6:	d1f4      	bne.n	8004492 <HMAC_SHA1+0x106>
 80044a8:	2800      	cmp	r0, #0
 80044aa:	d1b1      	bne.n	8004410 <HMAC_SHA1+0x84>
 80044ac:	a801      	add	r0, sp, #4
 80044ae:	f7ff fda1 	bl	8003ff4 <HASH_GetDigest>
 80044b2:	9b01      	ldr	r3, [sp, #4]
 80044b4:	ba1b      	rev	r3, r3
 80044b6:	f8c9 3000 	str.w	r3, [r9]
 80044ba:	9b02      	ldr	r3, [sp, #8]
 80044bc:	ba1b      	rev	r3, r3
 80044be:	f8c9 3004 	str.w	r3, [r9, #4]
 80044c2:	9b03      	ldr	r3, [sp, #12]
 80044c4:	ba1b      	rev	r3, r3
 80044c6:	f8c9 3008 	str.w	r3, [r9, #8]
 80044ca:	9b04      	ldr	r3, [sp, #16]
 80044cc:	ba1b      	rev	r3, r3
 80044ce:	f8c9 300c 	str.w	r3, [r9, #12]
 80044d2:	9b05      	ldr	r3, [sp, #20]
 80044d4:	ba1b      	rev	r3, r3
 80044d6:	2001      	movs	r0, #1
 80044d8:	f8c9 3010 	str.w	r3, [r9, #16]
 80044dc:	e799      	b.n	8004412 <HMAC_SHA1+0x86>
 80044de:	bf00      	nop

080044e0 <I2C_DeInit>:
 80044e0:	b508      	push	{r3, lr}
 80044e2:	f44f 43a8 	mov.w	r3, #21504	; 0x5400
 80044e6:	f2c4 0300 	movt	r3, #16384	; 0x4000
 80044ea:	4298      	cmp	r0, r3
 80044ec:	d018      	beq.n	8004520 <I2C_DeInit+0x40>
 80044ee:	f44f 43b0 	mov.w	r3, #22528	; 0x5800
 80044f2:	f2c4 0300 	movt	r3, #16384	; 0x4000
 80044f6:	4298      	cmp	r0, r3
 80044f8:	d01e      	beq.n	8004538 <I2C_DeInit+0x58>
 80044fa:	f44f 43b8 	mov.w	r3, #23552	; 0x5c00
 80044fe:	f2c4 0300 	movt	r3, #16384	; 0x4000
 8004502:	4298      	cmp	r0, r3
 8004504:	d000      	beq.n	8004508 <I2C_DeInit+0x28>
 8004506:	bd08      	pop	{r3, pc}
 8004508:	2101      	movs	r1, #1
 800450a:	f44f 0000 	mov.w	r0, #8388608	; 0x800000
 800450e:	f000 fc9b 	bl	8004e48 <RCC_APB1PeriphResetCmd>
 8004512:	f44f 0000 	mov.w	r0, #8388608	; 0x800000
 8004516:	2100      	movs	r1, #0
 8004518:	e8bd 4008 	ldmia.w	sp!, {r3, lr}
 800451c:	f000 bc94 	b.w	8004e48 <RCC_APB1PeriphResetCmd>
 8004520:	2101      	movs	r1, #1
 8004522:	f44f 1000 	mov.w	r0, #2097152	; 0x200000
 8004526:	f000 fc8f 	bl	8004e48 <RCC_APB1PeriphResetCmd>
 800452a:	f44f 1000 	mov.w	r0, #2097152	; 0x200000
 800452e:	2100      	movs	r1, #0
 8004530:	e8bd 4008 	ldmia.w	sp!, {r3, lr}
 8004534:	f000 bc88 	b.w	8004e48 <RCC_APB1PeriphResetCmd>
 8004538:	2101      	movs	r1, #1
 800453a:	f44f 0080 	mov.w	r0, #4194304	; 0x400000
 800453e:	f000 fc83 	bl	8004e48 <RCC_APB1PeriphResetCmd>
 8004542:	f44f 0080 	mov.w	r0, #4194304	; 0x400000
 8004546:	2100      	movs	r1, #0
 8004548:	e8bd 4008 	ldmia.w	sp!, {r3, lr}
 800454c:	f000 bc7c 	b.w	8004e48 <RCC_APB1PeriphResetCmd>

08004550 <I2C_Init>:
 8004550:	b570      	push	{r4, r5, r6, lr}
 8004552:	4604      	mov	r4, r0
 8004554:	b084      	sub	sp, #16
 8004556:	4668      	mov	r0, sp
 8004558:	88a6      	ldrh	r6, [r4, #4]
 800455a:	460d      	mov	r5, r1
 800455c:	f000 fb80 	bl	8004c60 <RCC_GetClocksFreq>
 8004560:	9802      	ldr	r0, [sp, #8]
 8004562:	682a      	ldr	r2, [r5, #0]
 8004564:	f64d 6183 	movw	r1, #56963	; 0xde83
 8004568:	f026 063f 	bic.w	r6, r6, #63	; 0x3f
 800456c:	f2c4 311b 	movt	r1, #17179	; 0x431b
 8004570:	0436      	lsls	r6, r6, #16
 8004572:	fba1 3100 	umull	r3, r1, r1, r0
 8004576:	0c36      	lsrs	r6, r6, #16
 8004578:	0c89      	lsrs	r1, r1, #18
 800457a:	430e      	orrs	r6, r1
 800457c:	80a6      	strh	r6, [r4, #4]
 800457e:	8823      	ldrh	r3, [r4, #0]
 8004580:	f248 66a0 	movw	r6, #34464	; 0x86a0
 8004584:	f023 0301 	bic.w	r3, r3, #1
 8004588:	041b      	lsls	r3, r3, #16
 800458a:	f2c0 0601 	movt	r6, #1
 800458e:	0c1b      	lsrs	r3, r3, #16
 8004590:	42b2      	cmp	r2, r6
 8004592:	8023      	strh	r3, [r4, #0]
 8004594:	d822      	bhi.n	80045dc <I2C_Init+0x8c>
 8004596:	0052      	lsls	r2, r2, #1
 8004598:	fbb0 f0f2 	udiv	r0, r0, r2
 800459c:	b280      	uxth	r0, r0
 800459e:	3101      	adds	r1, #1
 80045a0:	8421      	strh	r1, [r4, #32]
 80045a2:	2803      	cmp	r0, #3
 80045a4:	bf98      	it	ls
 80045a6:	2004      	movls	r0, #4
 80045a8:	83a0      	strh	r0, [r4, #28]
 80045aa:	8823      	ldrh	r3, [r4, #0]
 80045ac:	896e      	ldrh	r6, [r5, #10]
 80045ae:	88a8      	ldrh	r0, [r5, #4]
 80045b0:	8929      	ldrh	r1, [r5, #8]
 80045b2:	89aa      	ldrh	r2, [r5, #12]
 80045b4:	b29b      	uxth	r3, r3
 80045b6:	f043 0301 	orr.w	r3, r3, #1
 80045ba:	8023      	strh	r3, [r4, #0]
 80045bc:	8823      	ldrh	r3, [r4, #0]
 80045be:	f423 6381 	bic.w	r3, r3, #1032	; 0x408
 80045c2:	f023 0302 	bic.w	r3, r3, #2
 80045c6:	041b      	lsls	r3, r3, #16
 80045c8:	0c1b      	lsrs	r3, r3, #16
 80045ca:	4330      	orrs	r0, r6
 80045cc:	4303      	orrs	r3, r0
 80045ce:	430a      	orrs	r2, r1
 80045d0:	b29b      	uxth	r3, r3
 80045d2:	b292      	uxth	r2, r2
 80045d4:	8023      	strh	r3, [r4, #0]
 80045d6:	8122      	strh	r2, [r4, #8]
 80045d8:	b004      	add	sp, #16
 80045da:	bd70      	pop	{r4, r5, r6, pc}
 80045dc:	88ee      	ldrh	r6, [r5, #6]
 80045de:	f64b 73ff 	movw	r3, #49151	; 0xbfff
 80045e2:	429e      	cmp	r6, r3
 80045e4:	bf1d      	ittte	ne
 80045e6:	eb02 0282 	addne.w	r2, r2, r2, lsl #2
 80045ea:	eb02 0282 	addne.w	r2, r2, r2, lsl #2
 80045ee:	fbb0 f0f2 	udivne	r0, r0, r2
 80045f2:	eb02 0242 	addeq.w	r2, r2, r2, lsl #1
 80045f6:	bf0b      	itete	eq
 80045f8:	fbb0 f0f2 	udiveq	r0, r0, r2
 80045fc:	b280      	uxthne	r0, r0
 80045fe:	b280      	uxtheq	r0, r0
 8004600:	f440 4080 	orrne.w	r0, r0, #16384	; 0x4000
 8004604:	0503      	lsls	r3, r0, #20
 8004606:	0d1b      	lsrs	r3, r3, #20
 8004608:	b90b      	cbnz	r3, 800460e <I2C_Init+0xbe>
 800460a:	f040 0001 	orr.w	r0, r0, #1
 800460e:	f44f 7296 	mov.w	r2, #300	; 0x12c
 8004612:	f644 53d3 	movw	r3, #19923	; 0x4dd3
 8004616:	fb02 f101 	mul.w	r1, r2, r1
 800461a:	f2c1 0362 	movt	r3, #4194	; 0x1062
 800461e:	fb83 2301 	smull	r2, r3, r3, r1
 8004622:	099b      	lsrs	r3, r3, #6
 8004624:	3301      	adds	r3, #1
 8004626:	f440 4000 	orr.w	r0, r0, #32768	; 0x8000
 800462a:	8423      	strh	r3, [r4, #32]
 800462c:	e7bc      	b.n	80045a8 <I2C_Init+0x58>
 800462e:	bf00      	nop

08004630 <I2C_StructInit>:
 8004630:	2300      	movs	r3, #0
 8004632:	f241 3288 	movw	r2, #5000	; 0x1388
 8004636:	6002      	str	r2, [r0, #0]
 8004638:	8083      	strh	r3, [r0, #4]
 800463a:	f64b 72ff 	movw	r2, #49151	; 0xbfff
 800463e:	8103      	strh	r3, [r0, #8]
 8004640:	8143      	strh	r3, [r0, #10]
 8004642:	f44f 4380 	mov.w	r3, #16384	; 0x4000
 8004646:	80c2      	strh	r2, [r0, #6]
 8004648:	8183      	strh	r3, [r0, #12]
 800464a:	4770      	bx	lr

0800464c <I2C_Cmd>:
 800464c:	8803      	ldrh	r3, [r0, #0]
 800464e:	b929      	cbnz	r1, 800465c <I2C_Cmd+0x10>
 8004650:	f023 0301 	bic.w	r3, r3, #1
 8004654:	041b      	lsls	r3, r3, #16
 8004656:	0c1b      	lsrs	r3, r3, #16
 8004658:	8003      	strh	r3, [r0, #0]
 800465a:	4770      	bx	lr
 800465c:	b29b      	uxth	r3, r3
 800465e:	f043 0301 	orr.w	r3, r3, #1
 8004662:	8003      	strh	r3, [r0, #0]
 8004664:	4770      	bx	lr
 8004666:	bf00      	nop

08004668 <I2C_GenerateSTART>:
 8004668:	8803      	ldrh	r3, [r0, #0]
 800466a:	b929      	cbnz	r1, 8004678 <I2C_GenerateSTART+0x10>
 800466c:	f423 7380 	bic.w	r3, r3, #256	; 0x100
 8004670:	041b      	lsls	r3, r3, #16
 8004672:	0c1b      	lsrs	r3, r3, #16
 8004674:	8003      	strh	r3, [r0, #0]
 8004676:	4770      	bx	lr
 8004678:	b29b      	uxth	r3, r3
 800467a:	f443 7380 	orr.w	r3, r3, #256	; 0x100
 800467e:	8003      	strh	r3, [r0, #0]
 8004680:	4770      	bx	lr
 8004682:	bf00      	nop

08004684 <I2C_GenerateSTOP>:
 8004684:	8803      	ldrh	r3, [r0, #0]
 8004686:	b929      	cbnz	r1, 8004694 <I2C_GenerateSTOP+0x10>
 8004688:	f423 7300 	bic.w	r3, r3, #512	; 0x200
 800468c:	041b      	lsls	r3, r3, #16
 800468e:	0c1b      	lsrs	r3, r3, #16
 8004690:	8003      	strh	r3, [r0, #0]
 8004692:	4770      	bx	lr
 8004694:	b29b      	uxth	r3, r3
 8004696:	f443 7300 	orr.w	r3, r3, #512	; 0x200
 800469a:	8003      	strh	r3, [r0, #0]
 800469c:	4770      	bx	lr
 800469e:	bf00      	nop

080046a0 <I2C_Send7bitAddress>:
 80046a0:	b91a      	cbnz	r2, 80046aa <I2C_Send7bitAddress+0xa>
 80046a2:	f001 01fe 	and.w	r1, r1, #254	; 0xfe
 80046a6:	8201      	strh	r1, [r0, #16]
 80046a8:	4770      	bx	lr
 80046aa:	f041 0101 	orr.w	r1, r1, #1
 80046ae:	8201      	strh	r1, [r0, #16]
 80046b0:	4770      	bx	lr
 80046b2:	bf00      	nop

080046b4 <I2C_AcknowledgeConfig>:
 80046b4:	8803      	ldrh	r3, [r0, #0]
 80046b6:	b929      	cbnz	r1, 80046c4 <I2C_AcknowledgeConfig+0x10>
 80046b8:	f423 6380 	bic.w	r3, r3, #1024	; 0x400
 80046bc:	041b      	lsls	r3, r3, #16
 80046be:	0c1b      	lsrs	r3, r3, #16
 80046c0:	8003      	strh	r3, [r0, #0]
 80046c2:	4770      	bx	lr
 80046c4:	b29b      	uxth	r3, r3
 80046c6:	f443 6380 	orr.w	r3, r3, #1024	; 0x400
 80046ca:	8003      	strh	r3, [r0, #0]
 80046cc:	4770      	bx	lr
 80046ce:	bf00      	nop

080046d0 <I2C_OwnAddress2Config>:
 80046d0:	8983      	ldrh	r3, [r0, #12]
 80046d2:	f023 03fe 	bic.w	r3, r3, #254	; 0xfe
 80046d6:	041b      	lsls	r3, r3, #16
 80046d8:	f001 01fe 	and.w	r1, r1, #254	; 0xfe
 80046dc:	0c1b      	lsrs	r3, r3, #16
 80046de:	430b      	orrs	r3, r1
 80046e0:	8183      	strh	r3, [r0, #12]
 80046e2:	4770      	bx	lr

080046e4 <I2C_DualAddressCmd>:
 80046e4:	8983      	ldrh	r3, [r0, #12]
 80046e6:	b929      	cbnz	r1, 80046f4 <I2C_DualAddressCmd+0x10>
 80046e8:	f023 0301 	bic.w	r3, r3, #1
 80046ec:	041b      	lsls	r3, r3, #16
 80046ee:	0c1b      	lsrs	r3, r3, #16
 80046f0:	8183      	strh	r3, [r0, #12]
 80046f2:	4770      	bx	lr
 80046f4:	b29b      	uxth	r3, r3
 80046f6:	f043 0301 	orr.w	r3, r3, #1
 80046fa:	8183      	strh	r3, [r0, #12]
 80046fc:	4770      	bx	lr
 80046fe:	bf00      	nop

08004700 <I2C_GeneralCallCmd>:
 8004700:	8803      	ldrh	r3, [r0, #0]
 8004702:	b929      	cbnz	r1, 8004710 <I2C_GeneralCallCmd+0x10>
 8004704:	f023 0340 	bic.w	r3, r3, #64	; 0x40
 8004708:	041b      	lsls	r3, r3, #16
 800470a:	0c1b      	lsrs	r3, r3, #16
 800470c:	8003      	strh	r3, [r0, #0]
 800470e:	4770      	bx	lr
 8004710:	b29b      	uxth	r3, r3
 8004712:	f043 0340 	orr.w	r3, r3, #64	; 0x40
 8004716:	8003      	strh	r3, [r0, #0]
 8004718:	4770      	bx	lr
 800471a:	bf00      	nop

0800471c <I2C_SoftwareResetCmd>:
 800471c:	8803      	ldrh	r3, [r0, #0]
 800471e:	b919      	cbnz	r1, 8004728 <I2C_SoftwareResetCmd+0xc>
 8004720:	045b      	lsls	r3, r3, #17
 8004722:	0c5b      	lsrs	r3, r3, #17
 8004724:	8003      	strh	r3, [r0, #0]
 8004726:	4770      	bx	lr
 8004728:	ea6f 4343 	mvn.w	r3, r3, lsl #17
 800472c:	ea6f 4353 	mvn.w	r3, r3, lsr #17
 8004730:	b29b      	uxth	r3, r3
 8004732:	8003      	strh	r3, [r0, #0]
 8004734:	4770      	bx	lr
 8004736:	bf00      	nop

08004738 <I2C_StretchClockCmd>:
 8004738:	8803      	ldrh	r3, [r0, #0]
 800473a:	b129      	cbz	r1, 8004748 <I2C_StretchClockCmd+0x10>
 800473c:	f023 0380 	bic.w	r3, r3, #128	; 0x80
 8004740:	041b      	lsls	r3, r3, #16
 8004742:	0c1b      	lsrs	r3, r3, #16
 8004744:	8003      	strh	r3, [r0, #0]
 8004746:	4770      	bx	lr
 8004748:	b29b      	uxth	r3, r3
 800474a:	f043 0380 	orr.w	r3, r3, #128	; 0x80
 800474e:	8003      	strh	r3, [r0, #0]
 8004750:	4770      	bx	lr
 8004752:	bf00      	nop

08004754 <I2C_FastModeDutyCycleConfig>:
 8004754:	f5b1 4f80 	cmp.w	r1, #16384	; 0x4000
 8004758:	8b83      	ldrh	r3, [r0, #28]
 800475a:	d005      	beq.n	8004768 <I2C_FastModeDutyCycleConfig+0x14>
 800475c:	f423 4380 	bic.w	r3, r3, #16384	; 0x4000
 8004760:	041b      	lsls	r3, r3, #16
 8004762:	0c1b      	lsrs	r3, r3, #16
 8004764:	8383      	strh	r3, [r0, #28]
 8004766:	4770      	bx	lr
 8004768:	b29b      	uxth	r3, r3
 800476a:	f443 4380 	orr.w	r3, r3, #16384	; 0x4000
 800476e:	8383      	strh	r3, [r0, #28]
 8004770:	4770      	bx	lr
 8004772:	bf00      	nop

08004774 <I2C_NACKPositionConfig>:
 8004774:	f5b1 6f00 	cmp.w	r1, #2048	; 0x800
 8004778:	8803      	ldrh	r3, [r0, #0]
 800477a:	d005      	beq.n	8004788 <I2C_NACKPositionConfig+0x14>
 800477c:	f423 6300 	bic.w	r3, r3, #2048	; 0x800
 8004780:	041b      	lsls	r3, r3, #16
 8004782:	0c1b      	lsrs	r3, r3, #16
 8004784:	8003      	strh	r3, [r0, #0]
 8004786:	4770      	bx	lr
 8004788:	b29b      	uxth	r3, r3
 800478a:	f443 6300 	orr.w	r3, r3, #2048	; 0x800
 800478e:	8003      	strh	r3, [r0, #0]
 8004790:	4770      	bx	lr
 8004792:	bf00      	nop

08004794 <I2C_SMBusAlertConfig>:
 8004794:	f5b1 5f00 	cmp.w	r1, #8192	; 0x2000
 8004798:	8803      	ldrh	r3, [r0, #0]
 800479a:	d005      	beq.n	80047a8 <I2C_SMBusAlertConfig+0x14>
 800479c:	f423 5300 	bic.w	r3, r3, #8192	; 0x2000
 80047a0:	041b      	lsls	r3, r3, #16
 80047a2:	0c1b      	lsrs	r3, r3, #16
 80047a4:	8003      	strh	r3, [r0, #0]
 80047a6:	4770      	bx	lr
 80047a8:	b29b      	uxth	r3, r3
 80047aa:	f443 5300 	orr.w	r3, r3, #8192	; 0x2000
 80047ae:	8003      	strh	r3, [r0, #0]
 80047b0:	4770      	bx	lr
 80047b2:	bf00      	nop

080047b4 <I2C_ARPCmd>:
 80047b4:	8803      	ldrh	r3, [r0, #0]
 80047b6:	b929      	cbnz	r1, 80047c4 <I2C_ARPCmd+0x10>
 80047b8:	f023 0310 	bic.w	r3, r3, #16
 80047bc:	041b      	lsls	r3, r3, #16
 80047be:	0c1b      	lsrs	r3, r3, #16
 80047c0:	8003      	strh	r3, [r0, #0]
 80047c2:	4770      	bx	lr
 80047c4:	b29b      	uxth	r3, r3
 80047c6:	f043 0310 	orr.w	r3, r3, #16
 80047ca:	8003      	strh	r3, [r0, #0]
 80047cc:	4770      	bx	lr
 80047ce:	bf00      	nop

080047d0 <I2C_SendData>:
 80047d0:	8201      	strh	r1, [r0, #16]
 80047d2:	4770      	bx	lr

080047d4 <I2C_ReceiveData>:
 80047d4:	8a00      	ldrh	r0, [r0, #16]
 80047d6:	b2c0      	uxtb	r0, r0
 80047d8:	4770      	bx	lr
 80047da:	bf00      	nop

080047dc <I2C_TransmitPEC>:
 80047dc:	8803      	ldrh	r3, [r0, #0]
 80047de:	b929      	cbnz	r1, 80047ec <I2C_TransmitPEC+0x10>
 80047e0:	f423 5380 	bic.w	r3, r3, #4096	; 0x1000
 80047e4:	041b      	lsls	r3, r3, #16
 80047e6:	0c1b      	lsrs	r3, r3, #16
 80047e8:	8003      	strh	r3, [r0, #0]
 80047ea:	4770      	bx	lr
 80047ec:	b29b      	uxth	r3, r3
 80047ee:	f443 5380 	orr.w	r3, r3, #4096	; 0x1000
 80047f2:	8003      	strh	r3, [r0, #0]
 80047f4:	4770      	bx	lr
 80047f6:	bf00      	nop

080047f8 <I2C_PECPositionConfig>:
 80047f8:	f5b1 6f00 	cmp.w	r1, #2048	; 0x800
 80047fc:	8803      	ldrh	r3, [r0, #0]
 80047fe:	d005      	beq.n	800480c <I2C_PECPositionConfig+0x14>
 8004800:	f423 6300 	bic.w	r3, r3, #2048	; 0x800
 8004804:	041b      	lsls	r3, r3, #16
 8004806:	0c1b      	lsrs	r3, r3, #16
 8004808:	8003      	strh	r3, [r0, #0]
 800480a:	4770      	bx	lr
 800480c:	b29b      	uxth	r3, r3
 800480e:	f443 6300 	orr.w	r3, r3, #2048	; 0x800
 8004812:	8003      	strh	r3, [r0, #0]
 8004814:	4770      	bx	lr
 8004816:	bf00      	nop

08004818 <I2C_CalculatePEC>:
 8004818:	8803      	ldrh	r3, [r0, #0]
 800481a:	b929      	cbnz	r1, 8004828 <I2C_CalculatePEC+0x10>
 800481c:	f023 0320 	bic.w	r3, r3, #32
 8004820:	041b      	lsls	r3, r3, #16
 8004822:	0c1b      	lsrs	r3, r3, #16
 8004824:	8003      	strh	r3, [r0, #0]
 8004826:	4770      	bx	lr
 8004828:	b29b      	uxth	r3, r3
 800482a:	f043 0320 	orr.w	r3, r3, #32
 800482e:	8003      	strh	r3, [r0, #0]
 8004830:	4770      	bx	lr
 8004832:	bf00      	nop

08004834 <I2C_GetPEC>:
 8004834:	8b00      	ldrh	r0, [r0, #24]
 8004836:	f3c0 2007 	ubfx	r0, r0, #8, #8
 800483a:	4770      	bx	lr

0800483c <I2C_DMACmd>:
 800483c:	8883      	ldrh	r3, [r0, #4]
 800483e:	b929      	cbnz	r1, 800484c <I2C_DMACmd+0x10>
 8004840:	f423 6300 	bic.w	r3, r3, #2048	; 0x800
 8004844:	041b      	lsls	r3, r3, #16
 8004846:	0c1b      	lsrs	r3, r3, #16
 8004848:	8083      	strh	r3, [r0, #4]
 800484a:	4770      	bx	lr
 800484c:	b29b      	uxth	r3, r3
 800484e:	f443 6300 	orr.w	r3, r3, #2048	; 0x800
 8004852:	8083      	strh	r3, [r0, #4]
 8004854:	4770      	bx	lr
 8004856:	bf00      	nop

08004858 <I2C_DMALastTransferCmd>:
 8004858:	8883      	ldrh	r3, [r0, #4]
 800485a:	b929      	cbnz	r1, 8004868 <I2C_DMALastTransferCmd+0x10>
 800485c:	f423 5380 	bic.w	r3, r3, #4096	; 0x1000
 8004860:	041b      	lsls	r3, r3, #16
 8004862:	0c1b      	lsrs	r3, r3, #16
 8004864:	8083      	strh	r3, [r0, #4]
 8004866:	4770      	bx	lr
 8004868:	b29b      	uxth	r3, r3
 800486a:	f443 5380 	orr.w	r3, r3, #4096	; 0x1000
 800486e:	8083      	strh	r3, [r0, #4]
 8004870:	4770      	bx	lr
 8004872:	bf00      	nop

08004874 <I2C_ReadRegister>:
 8004874:	b082      	sub	sp, #8
 8004876:	2300      	movs	r3, #0
 8004878:	9301      	str	r3, [sp, #4]
 800487a:	9001      	str	r0, [sp, #4]
 800487c:	9b01      	ldr	r3, [sp, #4]
 800487e:	18cb      	adds	r3, r1, r3
 8004880:	9301      	str	r3, [sp, #4]
 8004882:	9b01      	ldr	r3, [sp, #4]
 8004884:	8818      	ldrh	r0, [r3, #0]
 8004886:	b280      	uxth	r0, r0
 8004888:	b002      	add	sp, #8
 800488a:	4770      	bx	lr

0800488c <I2C_ITConfig>:
 800488c:	8883      	ldrh	r3, [r0, #4]
 800488e:	b29b      	uxth	r3, r3
 8004890:	b91a      	cbnz	r2, 800489a <I2C_ITConfig+0xe>
 8004892:	ea23 0101 	bic.w	r1, r3, r1
 8004896:	8081      	strh	r1, [r0, #4]
 8004898:	4770      	bx	lr
 800489a:	4319      	orrs	r1, r3
 800489c:	8081      	strh	r1, [r0, #4]
 800489e:	4770      	bx	lr

080048a0 <I2C_CheckEvent>:
 80048a0:	8a82      	ldrh	r2, [r0, #20]
 80048a2:	8b03      	ldrh	r3, [r0, #24]
 80048a4:	b290      	uxth	r0, r2
 80048a6:	ea40 4003 	orr.w	r0, r0, r3, lsl #16
 80048aa:	4008      	ands	r0, r1
 80048ac:	f020 407f 	bic.w	r0, r0, #4278190080	; 0xff000000
 80048b0:	1a0b      	subs	r3, r1, r0
 80048b2:	4258      	negs	r0, r3
 80048b4:	eb40 0003 	adc.w	r0, r0, r3
 80048b8:	4770      	bx	lr
 80048ba:	bf00      	nop

080048bc <I2C_GetLastEvent>:
 80048bc:	8a82      	ldrh	r2, [r0, #20]
 80048be:	8b03      	ldrh	r3, [r0, #24]
 80048c0:	b290      	uxth	r0, r2
 80048c2:	ea40 4003 	orr.w	r0, r0, r3, lsl #16
 80048c6:	f020 407f 	bic.w	r0, r0, #4278190080	; 0xff000000
 80048ca:	4770      	bx	lr

080048cc <I2C_GetFlagStatus>:
 80048cc:	b082      	sub	sp, #8
 80048ce:	2300      	movs	r3, #0
 80048d0:	0f0a      	lsrs	r2, r1, #28
 80048d2:	9300      	str	r3, [sp, #0]
 80048d4:	9301      	str	r3, [sp, #4]
 80048d6:	9001      	str	r0, [sp, #4]
 80048d8:	9200      	str	r2, [sp, #0]
 80048da:	9b00      	ldr	r3, [sp, #0]
 80048dc:	f021 417f 	bic.w	r1, r1, #4278190080	; 0xff000000
 80048e0:	b153      	cbz	r3, 80048f8 <I2C_GetFlagStatus+0x2c>
 80048e2:	9b01      	ldr	r3, [sp, #4]
 80048e4:	3314      	adds	r3, #20
 80048e6:	9301      	str	r3, [sp, #4]
 80048e8:	9b01      	ldr	r3, [sp, #4]
 80048ea:	681b      	ldr	r3, [r3, #0]
 80048ec:	4219      	tst	r1, r3
 80048ee:	bf0c      	ite	eq
 80048f0:	2000      	moveq	r0, #0
 80048f2:	2001      	movne	r0, #1
 80048f4:	b002      	add	sp, #8
 80048f6:	4770      	bx	lr
 80048f8:	9b01      	ldr	r3, [sp, #4]
 80048fa:	3318      	adds	r3, #24
 80048fc:	0c09      	lsrs	r1, r1, #16
 80048fe:	9301      	str	r3, [sp, #4]
 8004900:	e7f2      	b.n	80048e8 <I2C_GetFlagStatus+0x1c>
 8004902:	bf00      	nop

08004904 <I2C_ClearFlag>:
 8004904:	43c9      	mvns	r1, r1
 8004906:	b289      	uxth	r1, r1
 8004908:	8281      	strh	r1, [r0, #20]
 800490a:	4770      	bx	lr

0800490c <I2C_GetITStatus>:
 800490c:	8883      	ldrh	r3, [r0, #4]
 800490e:	8a80      	ldrh	r0, [r0, #20]
 8004910:	b280      	uxth	r0, r0
 8004912:	4008      	ands	r0, r1
 8004914:	b29b      	uxth	r3, r3
 8004916:	d006      	beq.n	8004926 <I2C_GetITStatus+0x1a>
 8004918:	f001 61e0 	and.w	r1, r1, #117440512	; 0x7000000
 800491c:	ea13 4111 	ands.w	r1, r3, r1, lsr #16
 8004920:	bf0c      	ite	eq
 8004922:	2000      	moveq	r0, #0
 8004924:	2001      	movne	r0, #1
 8004926:	4770      	bx	lr

08004928 <I2C_ClearITPendingBit>:
 8004928:	43c9      	mvns	r1, r1
 800492a:	b289      	uxth	r1, r1
 800492c:	8281      	strh	r1, [r0, #20]
 800492e:	4770      	bx	lr

08004930 <IWDG_WriteAccessCmd>:
 8004930:	f44f 5340 	mov.w	r3, #12288	; 0x3000
 8004934:	f2c4 0300 	movt	r3, #16384	; 0x4000
 8004938:	6018      	str	r0, [r3, #0]
 800493a:	4770      	bx	lr

0800493c <IWDG_SetPrescaler>:
 800493c:	f44f 5340 	mov.w	r3, #12288	; 0x3000
 8004940:	f2c4 0300 	movt	r3, #16384	; 0x4000
 8004944:	6058      	str	r0, [r3, #4]
 8004946:	4770      	bx	lr

08004948 <IWDG_SetReload>:
 8004948:	f44f 5340 	mov.w	r3, #12288	; 0x3000
 800494c:	f2c4 0300 	movt	r3, #16384	; 0x4000
 8004950:	6098      	str	r0, [r3, #8]
 8004952:	4770      	bx	lr

08004954 <IWDG_ReloadCounter>:
 8004954:	f44f 5340 	mov.w	r3, #12288	; 0x3000
 8004958:	f2c4 0300 	movt	r3, #16384	; 0x4000
 800495c:	f64a 22aa 	movw	r2, #43690	; 0xaaaa
 8004960:	601a      	str	r2, [r3, #0]
 8004962:	4770      	bx	lr

08004964 <IWDG_Enable>:
 8004964:	f44f 5340 	mov.w	r3, #12288	; 0x3000
 8004968:	f2c4 0300 	movt	r3, #16384	; 0x4000
 800496c:	f64c 42cc 	movw	r2, #52428	; 0xcccc
 8004970:	601a      	str	r2, [r3, #0]
 8004972:	4770      	bx	lr

08004974 <IWDG_GetFlagStatus>:
 8004974:	f44f 5340 	mov.w	r3, #12288	; 0x3000
 8004978:	f2c4 0300 	movt	r3, #16384	; 0x4000
 800497c:	68db      	ldr	r3, [r3, #12]
 800497e:	4218      	tst	r0, r3
 8004980:	bf0c      	ite	eq
 8004982:	2000      	moveq	r0, #0
 8004984:	2001      	movne	r0, #1
 8004986:	4770      	bx	lr

08004988 <PWR_DeInit>:
 8004988:	b508      	push	{r3, lr}
 800498a:	2101      	movs	r1, #1
 800498c:	f04f 5080 	mov.w	r0, #268435456	; 0x10000000
 8004990:	f000 fa5a 	bl	8004e48 <RCC_APB1PeriphResetCmd>
 8004994:	f04f 5080 	mov.w	r0, #268435456	; 0x10000000
 8004998:	2100      	movs	r1, #0
 800499a:	e8bd 4008 	ldmia.w	sp!, {r3, lr}
 800499e:	f000 ba53 	b.w	8004e48 <RCC_APB1PeriphResetCmd>
 80049a2:	bf00      	nop

080049a4 <PWR_BackupAccessCmd>:
 80049a4:	2320      	movs	r3, #32
 80049a6:	f2c4 230e 	movt	r3, #16910	; 0x420e
 80049aa:	6018      	str	r0, [r3, #0]
 80049ac:	4770      	bx	lr
 80049ae:	bf00      	nop

080049b0 <PWR_PVDLevelConfig>:
 80049b0:	f44f 43e0 	mov.w	r3, #28672	; 0x7000
 80049b4:	f2c4 0300 	movt	r3, #16384	; 0x4000
 80049b8:	681a      	ldr	r2, [r3, #0]
 80049ba:	f022 02e0 	bic.w	r2, r2, #224	; 0xe0
 80049be:	4302      	orrs	r2, r0
 80049c0:	601a      	str	r2, [r3, #0]
 80049c2:	4770      	bx	lr

080049c4 <PWR_PVDCmd>:
 80049c4:	2310      	movs	r3, #16
 80049c6:	f2c4 230e 	movt	r3, #16910	; 0x420e
 80049ca:	6018      	str	r0, [r3, #0]
 80049cc:	4770      	bx	lr
 80049ce:	bf00      	nop

080049d0 <PWR_WakeUpPinCmd>:
 80049d0:	23a0      	movs	r3, #160	; 0xa0
 80049d2:	f2c4 230e 	movt	r3, #16910	; 0x420e
 80049d6:	6018      	str	r0, [r3, #0]
 80049d8:	4770      	bx	lr
 80049da:	bf00      	nop

080049dc <PWR_BackupRegulatorCmd>:
 80049dc:	23a4      	movs	r3, #164	; 0xa4
 80049de:	f2c4 230e 	movt	r3, #16910	; 0x420e
 80049e2:	6018      	str	r0, [r3, #0]
 80049e4:	4770      	bx	lr
 80049e6:	bf00      	nop

080049e8 <PWR_MainRegulatorModeConfig>:
 80049e8:	f44f 43e0 	mov.w	r3, #28672	; 0x7000
 80049ec:	f2c4 0300 	movt	r3, #16384	; 0x4000
 80049f0:	681a      	ldr	r2, [r3, #0]
 80049f2:	b118      	cbz	r0, 80049fc <PWR_MainRegulatorModeConfig+0x14>
 80049f4:	f442 4280 	orr.w	r2, r2, #16384	; 0x4000
 80049f8:	601a      	str	r2, [r3, #0]
 80049fa:	4770      	bx	lr
 80049fc:	f422 4280 	bic.w	r2, r2, #16384	; 0x4000
 8004a00:	601a      	str	r2, [r3, #0]
 8004a02:	4770      	bx	lr

08004a04 <PWR_FlashPowerDownCmd>:
 8004a04:	2324      	movs	r3, #36	; 0x24
 8004a06:	f2c4 230e 	movt	r3, #16910	; 0x420e
 8004a0a:	6018      	str	r0, [r3, #0]
 8004a0c:	4770      	bx	lr
 8004a0e:	bf00      	nop

08004a10 <PWR_EnterSTOPMode>:
 8004a10:	f44f 42e0 	mov.w	r2, #28672	; 0x7000
 8004a14:	f2c4 0200 	movt	r2, #16384	; 0x4000
 8004a18:	b410      	push	{r4}
 8004a1a:	6814      	ldr	r4, [r2, #0]
 8004a1c:	f44f 436d 	mov.w	r3, #60672	; 0xed00
 8004a20:	f024 0403 	bic.w	r4, r4, #3
 8004a24:	f2ce 0300 	movt	r3, #57344	; 0xe000
 8004a28:	4320      	orrs	r0, r4
 8004a2a:	6010      	str	r0, [r2, #0]
 8004a2c:	691a      	ldr	r2, [r3, #16]
 8004a2e:	2901      	cmp	r1, #1
 8004a30:	f042 0204 	orr.w	r2, r2, #4
 8004a34:	611a      	str	r2, [r3, #16]
 8004a36:	d00a      	beq.n	8004a4e <PWR_EnterSTOPMode+0x3e>
 8004a38:	bf20      	wfe
 8004a3a:	f44f 436d 	mov.w	r3, #60672	; 0xed00
 8004a3e:	f2ce 0300 	movt	r3, #57344	; 0xe000
 8004a42:	691a      	ldr	r2, [r3, #16]
 8004a44:	f022 0204 	bic.w	r2, r2, #4
 8004a48:	611a      	str	r2, [r3, #16]
 8004a4a:	bc10      	pop	{r4}
 8004a4c:	4770      	bx	lr
 8004a4e:	bf30      	wfi
 8004a50:	e7f3      	b.n	8004a3a <PWR_EnterSTOPMode+0x2a>
 8004a52:	bf00      	nop

08004a54 <PWR_EnterSTANDBYMode>:
 8004a54:	f44f 43e0 	mov.w	r3, #28672	; 0x7000
 8004a58:	f2c4 0300 	movt	r3, #16384	; 0x4000
 8004a5c:	f44f 426d 	mov.w	r2, #60672	; 0xed00
 8004a60:	6819      	ldr	r1, [r3, #0]
 8004a62:	f041 0104 	orr.w	r1, r1, #4
 8004a66:	6019      	str	r1, [r3, #0]
 8004a68:	6819      	ldr	r1, [r3, #0]
 8004a6a:	f2ce 0200 	movt	r2, #57344	; 0xe000
 8004a6e:	f041 0102 	orr.w	r1, r1, #2
 8004a72:	6019      	str	r1, [r3, #0]
 8004a74:	6913      	ldr	r3, [r2, #16]
 8004a76:	f043 0304 	orr.w	r3, r3, #4
 8004a7a:	6113      	str	r3, [r2, #16]
 8004a7c:	bf30      	wfi
 8004a7e:	4770      	bx	lr

08004a80 <PWR_GetFlagStatus>:
 8004a80:	f44f 43e0 	mov.w	r3, #28672	; 0x7000
 8004a84:	f2c4 0300 	movt	r3, #16384	; 0x4000
 8004a88:	685b      	ldr	r3, [r3, #4]
 8004a8a:	4218      	tst	r0, r3
 8004a8c:	bf0c      	ite	eq
 8004a8e:	2000      	moveq	r0, #0
 8004a90:	2001      	movne	r0, #1
 8004a92:	4770      	bx	lr

08004a94 <PWR_ClearFlag>:
 8004a94:	f44f 43e0 	mov.w	r3, #28672	; 0x7000
 8004a98:	f2c4 0300 	movt	r3, #16384	; 0x4000
 8004a9c:	681a      	ldr	r2, [r3, #0]
 8004a9e:	ea42 0280 	orr.w	r2, r2, r0, lsl #2
 8004aa2:	601a      	str	r2, [r3, #0]
 8004aa4:	4770      	bx	lr
 8004aa6:	bf00      	nop

08004aa8 <RCC_DeInit>:
 8004aa8:	f44f 5360 	mov.w	r3, #14336	; 0x3800
 8004aac:	f2c4 0302 	movt	r3, #16386	; 0x4002
 8004ab0:	2200      	movs	r2, #0
 8004ab2:	6819      	ldr	r1, [r3, #0]
 8004ab4:	f041 0101 	orr.w	r1, r1, #1
 8004ab8:	6019      	str	r1, [r3, #0]
 8004aba:	609a      	str	r2, [r3, #8]
 8004abc:	6818      	ldr	r0, [r3, #0]
 8004abe:	f243 0110 	movw	r1, #12304	; 0x3010
 8004ac2:	f020 7084 	bic.w	r0, r0, #17301504	; 0x1080000
 8004ac6:	f2c2 4100 	movt	r1, #9216	; 0x2400
 8004aca:	f420 3080 	bic.w	r0, r0, #65536	; 0x10000
 8004ace:	6018      	str	r0, [r3, #0]
 8004ad0:	6059      	str	r1, [r3, #4]
 8004ad2:	6819      	ldr	r1, [r3, #0]
 8004ad4:	f421 2180 	bic.w	r1, r1, #262144	; 0x40000
 8004ad8:	6019      	str	r1, [r3, #0]
 8004ada:	60da      	str	r2, [r3, #12]
 8004adc:	4770      	bx	lr
 8004ade:	bf00      	nop

08004ae0 <RCC_HSEConfig>:
 8004ae0:	f643 0302 	movw	r3, #14338	; 0x3802
 8004ae4:	f2c4 0302 	movt	r3, #16386	; 0x4002
 8004ae8:	2200      	movs	r2, #0
 8004aea:	701a      	strb	r2, [r3, #0]
 8004aec:	7018      	strb	r0, [r3, #0]
 8004aee:	4770      	bx	lr

08004af0 <RCC_WaitForHSEStartUp>:
 8004af0:	b082      	sub	sp, #8
 8004af2:	f44f 5160 	mov.w	r1, #14336	; 0x3800
 8004af6:	2300      	movs	r3, #0
 8004af8:	9301      	str	r3, [sp, #4]
 8004afa:	f2c4 0102 	movt	r1, #16386	; 0x4002
 8004afe:	680a      	ldr	r2, [r1, #0]
 8004b00:	9b01      	ldr	r3, [sp, #4]
 8004b02:	3301      	adds	r3, #1
 8004b04:	9301      	str	r3, [sp, #4]
 8004b06:	9b01      	ldr	r3, [sp, #4]
 8004b08:	f5b3 6fa0 	cmp.w	r3, #1280	; 0x500
 8004b0c:	d001      	beq.n	8004b12 <RCC_WaitForHSEStartUp+0x22>
 8004b0e:	0393      	lsls	r3, r2, #14
 8004b10:	d5f5      	bpl.n	8004afe <RCC_WaitForHSEStartUp+0xe>
 8004b12:	f44f 5360 	mov.w	r3, #14336	; 0x3800
 8004b16:	f2c4 0302 	movt	r3, #16386	; 0x4002
 8004b1a:	6818      	ldr	r0, [r3, #0]
 8004b1c:	f3c0 4040 	ubfx	r0, r0, #17, #1
 8004b20:	b002      	add	sp, #8
 8004b22:	4770      	bx	lr

08004b24 <RCC_AdjustHSICalibrationValue>:
 8004b24:	f44f 5360 	mov.w	r3, #14336	; 0x3800
 8004b28:	f2c4 0302 	movt	r3, #16386	; 0x4002
 8004b2c:	681a      	ldr	r2, [r3, #0]
 8004b2e:	f022 02f8 	bic.w	r2, r2, #248	; 0xf8
 8004b32:	ea42 02c0 	orr.w	r2, r2, r0, lsl #3
 8004b36:	601a      	str	r2, [r3, #0]
 8004b38:	4770      	bx	lr
 8004b3a:	bf00      	nop

08004b3c <RCC_HSICmd>:
 8004b3c:	2300      	movs	r3, #0
 8004b3e:	f2c4 2347 	movt	r3, #16967	; 0x4247
 8004b42:	6018      	str	r0, [r3, #0]
 8004b44:	4770      	bx	lr
 8004b46:	bf00      	nop

08004b48 <RCC_LSEConfig>:
 8004b48:	f643 0370 	movw	r3, #14448	; 0x3870
 8004b4c:	f2c4 0302 	movt	r3, #16386	; 0x4002
 8004b50:	2200      	movs	r2, #0
 8004b52:	2801      	cmp	r0, #1
 8004b54:	701a      	strb	r2, [r3, #0]
 8004b56:	701a      	strb	r2, [r3, #0]
 8004b58:	d004      	beq.n	8004b64 <RCC_LSEConfig+0x1c>
 8004b5a:	2804      	cmp	r0, #4
 8004b5c:	d101      	bne.n	8004b62 <RCC_LSEConfig+0x1a>
 8004b5e:	2205      	movs	r2, #5
 8004b60:	701a      	strb	r2, [r3, #0]
 8004b62:	4770      	bx	lr
 8004b64:	7018      	strb	r0, [r3, #0]
 8004b66:	4770      	bx	lr

08004b68 <RCC_LSICmd>:
 8004b68:	f44f 6368 	mov.w	r3, #3712	; 0xe80
 8004b6c:	f2c4 2347 	movt	r3, #16967	; 0x4247
 8004b70:	6018      	str	r0, [r3, #0]
 8004b72:	4770      	bx	lr

08004b74 <RCC_PLLConfig>:
 8004b74:	4301      	orrs	r1, r0
 8004b76:	ea41 1282 	orr.w	r2, r1, r2, lsl #6
 8004b7a:	9900      	ldr	r1, [sp, #0]
 8004b7c:	085b      	lsrs	r3, r3, #1
 8004b7e:	f44f 5060 	mov.w	r0, #14336	; 0x3800
 8004b82:	ea42 6201 	orr.w	r2, r2, r1, lsl #24
 8004b86:	3b01      	subs	r3, #1
 8004b88:	f2c4 0002 	movt	r0, #16386	; 0x4002
 8004b8c:	ea42 4203 	orr.w	r2, r2, r3, lsl #16
 8004b90:	6042      	str	r2, [r0, #4]
 8004b92:	4770      	bx	lr

08004b94 <RCC_PLLCmd>:
 8004b94:	2360      	movs	r3, #96	; 0x60
 8004b96:	f2c4 2347 	movt	r3, #16967	; 0x4247
 8004b9a:	6018      	str	r0, [r3, #0]
 8004b9c:	4770      	bx	lr
 8004b9e:	bf00      	nop

08004ba0 <RCC_PLLI2SConfig>:
 8004ba0:	f44f 5360 	mov.w	r3, #14336	; 0x3800
 8004ba4:	0180      	lsls	r0, r0, #6
 8004ba6:	f2c4 0302 	movt	r3, #16386	; 0x4002
 8004baa:	ea40 7101 	orr.w	r1, r0, r1, lsl #28
 8004bae:	f8c3 1084 	str.w	r1, [r3, #132]	; 0x84
 8004bb2:	4770      	bx	lr

08004bb4 <RCC_PLLI2SCmd>:
 8004bb4:	2368      	movs	r3, #104	; 0x68
 8004bb6:	f2c4 2347 	movt	r3, #16967	; 0x4247
 8004bba:	6018      	str	r0, [r3, #0]
 8004bbc:	4770      	bx	lr
 8004bbe:	bf00      	nop

08004bc0 <RCC_ClockSecuritySystemCmd>:
 8004bc0:	234c      	movs	r3, #76	; 0x4c
 8004bc2:	f2c4 2347 	movt	r3, #16967	; 0x4247
 8004bc6:	6018      	str	r0, [r3, #0]
 8004bc8:	4770      	bx	lr
 8004bca:	bf00      	nop

08004bcc <RCC_MCO1Config>:
 8004bcc:	f44f 5360 	mov.w	r3, #14336	; 0x3800
 8004bd0:	f2c4 0302 	movt	r3, #16386	; 0x4002
 8004bd4:	689a      	ldr	r2, [r3, #8]
 8004bd6:	f022 62ec 	bic.w	r2, r2, #123731968	; 0x7600000
 8004bda:	4302      	orrs	r2, r0
 8004bdc:	430a      	orrs	r2, r1
 8004bde:	609a      	str	r2, [r3, #8]
 8004be0:	4770      	bx	lr
 8004be2:	bf00      	nop

08004be4 <RCC_MCO2Config>:
 8004be4:	f44f 5360 	mov.w	r3, #14336	; 0x3800
 8004be8:	f2c4 0302 	movt	r3, #16386	; 0x4002
 8004bec:	689a      	ldr	r2, [r3, #8]
 8004bee:	f022 4278 	bic.w	r2, r2, #4160749568	; 0xf8000000
 8004bf2:	4302      	orrs	r2, r0
 8004bf4:	430a      	orrs	r2, r1
 8004bf6:	609a      	str	r2, [r3, #8]
 8004bf8:	4770      	bx	lr
 8004bfa:	bf00      	nop

08004bfc <RCC_SYSCLKConfig>:
 8004bfc:	f44f 5360 	mov.w	r3, #14336	; 0x3800
 8004c00:	f2c4 0302 	movt	r3, #16386	; 0x4002
 8004c04:	689a      	ldr	r2, [r3, #8]
 8004c06:	f022 0203 	bic.w	r2, r2, #3
 8004c0a:	4302      	orrs	r2, r0
 8004c0c:	609a      	str	r2, [r3, #8]
 8004c0e:	4770      	bx	lr

08004c10 <RCC_GetSYSCLKSource>:
 8004c10:	f44f 5360 	mov.w	r3, #14336	; 0x3800
 8004c14:	f2c4 0302 	movt	r3, #16386	; 0x4002
 8004c18:	6898      	ldr	r0, [r3, #8]
 8004c1a:	f000 000c 	and.w	r0, r0, #12
 8004c1e:	4770      	bx	lr

08004c20 <RCC_HCLKConfig>:
 8004c20:	f44f 5360 	mov.w	r3, #14336	; 0x3800
 8004c24:	f2c4 0302 	movt	r3, #16386	; 0x4002
 8004c28:	689a      	ldr	r2, [r3, #8]
 8004c2a:	f022 02f0 	bic.w	r2, r2, #240	; 0xf0
 8004c2e:	4302      	orrs	r2, r0
 8004c30:	609a      	str	r2, [r3, #8]
 8004c32:	4770      	bx	lr

08004c34 <RCC_PCLK1Config>:
 8004c34:	f44f 5360 	mov.w	r3, #14336	; 0x3800
 8004c38:	f2c4 0302 	movt	r3, #16386	; 0x4002
 8004c3c:	689a      	ldr	r2, [r3, #8]
 8004c3e:	f422 52e0 	bic.w	r2, r2, #7168	; 0x1c00
 8004c42:	4302      	orrs	r2, r0
 8004c44:	609a      	str	r2, [r3, #8]
 8004c46:	4770      	bx	lr

08004c48 <RCC_PCLK2Config>:
 8004c48:	f44f 5360 	mov.w	r3, #14336	; 0x3800
 8004c4c:	f2c4 0302 	movt	r3, #16386	; 0x4002
 8004c50:	689a      	ldr	r2, [r3, #8]
 8004c52:	f422 4260 	bic.w	r2, r2, #57344	; 0xe000
 8004c56:	ea42 02c0 	orr.w	r2, r2, r0, lsl #3
 8004c5a:	609a      	str	r2, [r3, #8]
 8004c5c:	4770      	bx	lr
 8004c5e:	bf00      	nop

08004c60 <RCC_GetClocksFreq>:
 8004c60:	f44f 5360 	mov.w	r3, #14336	; 0x3800
 8004c64:	f2c4 0302 	movt	r3, #16386	; 0x4002
 8004c68:	b410      	push	{r4}
 8004c6a:	689a      	ldr	r2, [r3, #8]
 8004c6c:	f002 020c 	and.w	r2, r2, #12
 8004c70:	2a04      	cmp	r2, #4
 8004c72:	bf02      	ittt	eq
 8004c74:	f44f 5290 	moveq.w	r2, #4608	; 0x1200
 8004c78:	f2c0 027a 	movteq	r2, #122	; 0x7a
 8004c7c:	6002      	streq	r2, [r0, #0]
 8004c7e:	d006      	beq.n	8004c8e <RCC_GetClocksFreq+0x2e>
 8004c80:	2a08      	cmp	r2, #8
 8004c82:	d01e      	beq.n	8004cc2 <RCC_GetClocksFreq+0x62>
 8004c84:	f44f 5210 	mov.w	r2, #9216	; 0x2400
 8004c88:	f2c0 02f4 	movt	r2, #244	; 0xf4
 8004c8c:	6002      	str	r2, [r0, #0]
 8004c8e:	f44f 5360 	mov.w	r3, #14336	; 0x3800
 8004c92:	f2c4 0302 	movt	r3, #16386	; 0x4002
 8004c96:	491c      	ldr	r1, [pc, #112]	; (8004d08 <RCC_GetClocksFreq+0xa8>)
 8004c98:	689c      	ldr	r4, [r3, #8]
 8004c9a:	f3c4 1403 	ubfx	r4, r4, #4, #4
 8004c9e:	5d0c      	ldrb	r4, [r1, r4]
 8004ca0:	40e2      	lsrs	r2, r4
 8004ca2:	6042      	str	r2, [r0, #4]
 8004ca4:	689c      	ldr	r4, [r3, #8]
 8004ca6:	f3c4 2482 	ubfx	r4, r4, #10, #3
 8004caa:	5d0c      	ldrb	r4, [r1, r4]
 8004cac:	fa32 f404 	lsrs.w	r4, r2, r4
 8004cb0:	6084      	str	r4, [r0, #8]
 8004cb2:	689b      	ldr	r3, [r3, #8]
 8004cb4:	f3c3 3342 	ubfx	r3, r3, #13, #3
 8004cb8:	5ccb      	ldrb	r3, [r1, r3]
 8004cba:	40da      	lsrs	r2, r3
 8004cbc:	60c2      	str	r2, [r0, #12]
 8004cbe:	bc10      	pop	{r4}
 8004cc0:	4770      	bx	lr
 8004cc2:	685c      	ldr	r4, [r3, #4]
 8004cc4:	6859      	ldr	r1, [r3, #4]
 8004cc6:	f414 0f80 	tst.w	r4, #4194304	; 0x400000
 8004cca:	685c      	ldr	r4, [r3, #4]
 8004ccc:	bf15      	itete	ne
 8004cce:	f44f 5390 	movne.w	r3, #4608	; 0x1200
 8004cd2:	f44f 5310 	moveq.w	r3, #9216	; 0x2400
 8004cd6:	f2c0 037a 	movtne	r3, #122	; 0x7a
 8004cda:	f2c0 03f4 	movteq	r3, #244	; 0xf4
 8004cde:	f001 013f 	and.w	r1, r1, #63	; 0x3f
 8004ce2:	fbb3 f2f1 	udiv	r2, r3, r1
 8004ce6:	f44f 5360 	mov.w	r3, #14336	; 0x3800
 8004cea:	f2c4 0302 	movt	r3, #16386	; 0x4002
 8004cee:	f3c4 1488 	ubfx	r4, r4, #6, #9
 8004cf2:	685b      	ldr	r3, [r3, #4]
 8004cf4:	f3c3 4301 	ubfx	r3, r3, #16, #2
 8004cf8:	3301      	adds	r3, #1
 8004cfa:	fb02 f204 	mul.w	r2, r2, r4
 8004cfe:	005b      	lsls	r3, r3, #1
 8004d00:	fbb2 f2f3 	udiv	r2, r2, r3
 8004d04:	6002      	str	r2, [r0, #0]
 8004d06:	e7c2      	b.n	8004c8e <RCC_GetClocksFreq+0x2e>
 8004d08:	2000002c 	.word	0x2000002c

08004d0c <RCC_RTCCLKConfig>:
 8004d0c:	f400 7340 	and.w	r3, r0, #768	; 0x300
 8004d10:	f5b3 7f40 	cmp.w	r3, #768	; 0x300
 8004d14:	d10c      	bne.n	8004d30 <RCC_RTCCLKConfig+0x24>
 8004d16:	f44f 5360 	mov.w	r3, #14336	; 0x3800
 8004d1a:	f2c4 0302 	movt	r3, #16386	; 0x4002
 8004d1e:	f020 4170 	bic.w	r1, r0, #4026531840	; 0xf0000000
 8004d22:	689a      	ldr	r2, [r3, #8]
 8004d24:	f421 7140 	bic.w	r1, r1, #768	; 0x300
 8004d28:	f422 12f8 	bic.w	r2, r2, #2031616	; 0x1f0000
 8004d2c:	430a      	orrs	r2, r1
 8004d2e:	609a      	str	r2, [r3, #8]
 8004d30:	f44f 5360 	mov.w	r3, #14336	; 0x3800
 8004d34:	f2c4 0302 	movt	r3, #16386	; 0x4002
 8004d38:	0500      	lsls	r0, r0, #20
 8004d3a:	6f1a      	ldr	r2, [r3, #112]	; 0x70
 8004d3c:	0d00      	lsrs	r0, r0, #20
 8004d3e:	4310      	orrs	r0, r2
 8004d40:	6718      	str	r0, [r3, #112]	; 0x70
 8004d42:	4770      	bx	lr

08004d44 <RCC_RTCCLKCmd>:
 8004d44:	f640 633c 	movw	r3, #3644	; 0xe3c
 8004d48:	f2c4 2347 	movt	r3, #16967	; 0x4247
 8004d4c:	6018      	str	r0, [r3, #0]
 8004d4e:	4770      	bx	lr

08004d50 <RCC_BackupResetCmd>:
 8004d50:	f44f 6364 	mov.w	r3, #3648	; 0xe40
 8004d54:	f2c4 2347 	movt	r3, #16967	; 0x4247
 8004d58:	6018      	str	r0, [r3, #0]
 8004d5a:	4770      	bx	lr

08004d5c <RCC_I2SCLKConfig>:
 8004d5c:	f44f 73ae 	mov.w	r3, #348	; 0x15c
 8004d60:	f2c4 2347 	movt	r3, #16967	; 0x4247
 8004d64:	6018      	str	r0, [r3, #0]
 8004d66:	4770      	bx	lr

08004d68 <RCC_AHB1PeriphClockCmd>:
 8004d68:	f44f 5360 	mov.w	r3, #14336	; 0x3800
 8004d6c:	f2c4 0302 	movt	r3, #16386	; 0x4002
 8004d70:	6b1a      	ldr	r2, [r3, #48]	; 0x30
 8004d72:	b919      	cbnz	r1, 8004d7c <RCC_AHB1PeriphClockCmd+0x14>
 8004d74:	ea22 0000 	bic.w	r0, r2, r0
 8004d78:	6318      	str	r0, [r3, #48]	; 0x30
 8004d7a:	4770      	bx	lr
 8004d7c:	4310      	orrs	r0, r2
 8004d7e:	6318      	str	r0, [r3, #48]	; 0x30
 8004d80:	4770      	bx	lr
 8004d82:	bf00      	nop

08004d84 <RCC_AHB2PeriphClockCmd>:
 8004d84:	f44f 5360 	mov.w	r3, #14336	; 0x3800
 8004d88:	f2c4 0302 	movt	r3, #16386	; 0x4002
 8004d8c:	6b5a      	ldr	r2, [r3, #52]	; 0x34
 8004d8e:	b919      	cbnz	r1, 8004d98 <RCC_AHB2PeriphClockCmd+0x14>
 8004d90:	ea22 0000 	bic.w	r0, r2, r0
 8004d94:	6358      	str	r0, [r3, #52]	; 0x34
 8004d96:	4770      	bx	lr
 8004d98:	4310      	orrs	r0, r2
 8004d9a:	6358      	str	r0, [r3, #52]	; 0x34
 8004d9c:	4770      	bx	lr
 8004d9e:	bf00      	nop

08004da0 <RCC_AHB3PeriphClockCmd>:
 8004da0:	f44f 5360 	mov.w	r3, #14336	; 0x3800
 8004da4:	f2c4 0302 	movt	r3, #16386	; 0x4002
 8004da8:	6b9a      	ldr	r2, [r3, #56]	; 0x38
 8004daa:	b919      	cbnz	r1, 8004db4 <RCC_AHB3PeriphClockCmd+0x14>
 8004dac:	ea22 0000 	bic.w	r0, r2, r0
 8004db0:	6398      	str	r0, [r3, #56]	; 0x38
 8004db2:	4770      	bx	lr
 8004db4:	4310      	orrs	r0, r2
 8004db6:	6398      	str	r0, [r3, #56]	; 0x38
 8004db8:	4770      	bx	lr
 8004dba:	bf00      	nop

08004dbc <RCC_APB1PeriphClockCmd>:
 8004dbc:	f44f 5360 	mov.w	r3, #14336	; 0x3800
 8004dc0:	f2c4 0302 	movt	r3, #16386	; 0x4002
 8004dc4:	6c1a      	ldr	r2, [r3, #64]	; 0x40
 8004dc6:	b919      	cbnz	r1, 8004dd0 <RCC_APB1PeriphClockCmd+0x14>
 8004dc8:	ea22 0000 	bic.w	r0, r2, r0
 8004dcc:	6418      	str	r0, [r3, #64]	; 0x40
 8004dce:	4770      	bx	lr
 8004dd0:	4310      	orrs	r0, r2
 8004dd2:	6418      	str	r0, [r3, #64]	; 0x40
 8004dd4:	4770      	bx	lr
 8004dd6:	bf00      	nop

08004dd8 <RCC_APB2PeriphClockCmd>:
 8004dd8:	f44f 5360 	mov.w	r3, #14336	; 0x3800
 8004ddc:	f2c4 0302 	movt	r3, #16386	; 0x4002
 8004de0:	6c5a      	ldr	r2, [r3, #68]	; 0x44
 8004de2:	b919      	cbnz	r1, 8004dec <RCC_APB2PeriphClockCmd+0x14>
 8004de4:	ea22 0000 	bic.w	r0, r2, r0
 8004de8:	6458      	str	r0, [r3, #68]	; 0x44
 8004dea:	4770      	bx	lr
 8004dec:	4310      	orrs	r0, r2
 8004dee:	6458      	str	r0, [r3, #68]	; 0x44
 8004df0:	4770      	bx	lr
 8004df2:	bf00      	nop

08004df4 <RCC_AHB1PeriphResetCmd>:
 8004df4:	f44f 5360 	mov.w	r3, #14336	; 0x3800
 8004df8:	f2c4 0302 	movt	r3, #16386	; 0x4002
 8004dfc:	691a      	ldr	r2, [r3, #16]
 8004dfe:	b919      	cbnz	r1, 8004e08 <RCC_AHB1PeriphResetCmd+0x14>
 8004e00:	ea22 0000 	bic.w	r0, r2, r0
 8004e04:	6118      	str	r0, [r3, #16]
 8004e06:	4770      	bx	lr
 8004e08:	4310      	orrs	r0, r2
 8004e0a:	6118      	str	r0, [r3, #16]
 8004e0c:	4770      	bx	lr
 8004e0e:	bf00      	nop

08004e10 <RCC_AHB2PeriphResetCmd>:
 8004e10:	f44f 5360 	mov.w	r3, #14336	; 0x3800
 8004e14:	f2c4 0302 	movt	r3, #16386	; 0x4002
 8004e18:	695a      	ldr	r2, [r3, #20]
 8004e1a:	b919      	cbnz	r1, 8004e24 <RCC_AHB2PeriphResetCmd+0x14>
 8004e1c:	ea22 0000 	bic.w	r0, r2, r0
 8004e20:	6158      	str	r0, [r3, #20]
 8004e22:	4770      	bx	lr
 8004e24:	4310      	orrs	r0, r2
 8004e26:	6158      	str	r0, [r3, #20]
 8004e28:	4770      	bx	lr
 8004e2a:	bf00      	nop

08004e2c <RCC_AHB3PeriphResetCmd>:
 8004e2c:	f44f 5360 	mov.w	r3, #14336	; 0x3800
 8004e30:	f2c4 0302 	movt	r3, #16386	; 0x4002
 8004e34:	699a      	ldr	r2, [r3, #24]
 8004e36:	b919      	cbnz	r1, 8004e40 <RCC_AHB3PeriphResetCmd+0x14>
 8004e38:	ea22 0000 	bic.w	r0, r2, r0
 8004e3c:	6198      	str	r0, [r3, #24]
 8004e3e:	4770      	bx	lr
 8004e40:	4310      	orrs	r0, r2
 8004e42:	6198      	str	r0, [r3, #24]
 8004e44:	4770      	bx	lr
 8004e46:	bf00      	nop

08004e48 <RCC_APB1PeriphResetCmd>:
 8004e48:	f44f 5360 	mov.w	r3, #14336	; 0x3800
 8004e4c:	f2c4 0302 	movt	r3, #16386	; 0x4002
 8004e50:	6a1a      	ldr	r2, [r3, #32]
 8004e52:	b919      	cbnz	r1, 8004e5c <RCC_APB1PeriphResetCmd+0x14>
 8004e54:	ea22 0000 	bic.w	r0, r2, r0
 8004e58:	6218      	str	r0, [r3, #32]
 8004e5a:	4770      	bx	lr
 8004e5c:	4310      	orrs	r0, r2
 8004e5e:	6218      	str	r0, [r3, #32]
 8004e60:	4770      	bx	lr
 8004e62:	bf00      	nop

08004e64 <RCC_APB2PeriphResetCmd>:
 8004e64:	f44f 5360 	mov.w	r3, #14336	; 0x3800
 8004e68:	f2c4 0302 	movt	r3, #16386	; 0x4002
 8004e6c:	6a5a      	ldr	r2, [r3, #36]	; 0x24
 8004e6e:	b919      	cbnz	r1, 8004e78 <RCC_APB2PeriphResetCmd+0x14>
 8004e70:	ea22 0000 	bic.w	r0, r2, r0
 8004e74:	6258      	str	r0, [r3, #36]	; 0x24
 8004e76:	4770      	bx	lr
 8004e78:	4310      	orrs	r0, r2
 8004e7a:	6258      	str	r0, [r3, #36]	; 0x24
 8004e7c:	4770      	bx	lr
 8004e7e:	bf00      	nop

08004e80 <RCC_AHB1PeriphClockLPModeCmd>:
 8004e80:	f44f 5360 	mov.w	r3, #14336	; 0x3800
 8004e84:	f2c4 0302 	movt	r3, #16386	; 0x4002
 8004e88:	6d1a      	ldr	r2, [r3, #80]	; 0x50
 8004e8a:	b919      	cbnz	r1, 8004e94 <RCC_AHB1PeriphClockLPModeCmd+0x14>
 8004e8c:	ea22 0000 	bic.w	r0, r2, r0
 8004e90:	6518      	str	r0, [r3, #80]	; 0x50
 8004e92:	4770      	bx	lr
 8004e94:	4310      	orrs	r0, r2
 8004e96:	6518      	str	r0, [r3, #80]	; 0x50
 8004e98:	4770      	bx	lr
 8004e9a:	bf00      	nop

08004e9c <RCC_AHB2PeriphClockLPModeCmd>:
 8004e9c:	f44f 5360 	mov.w	r3, #14336	; 0x3800
 8004ea0:	f2c4 0302 	movt	r3, #16386	; 0x4002
 8004ea4:	6d5a      	ldr	r2, [r3, #84]	; 0x54
 8004ea6:	b919      	cbnz	r1, 8004eb0 <RCC_AHB2PeriphClockLPModeCmd+0x14>
 8004ea8:	ea22 0000 	bic.w	r0, r2, r0
 8004eac:	6558      	str	r0, [r3, #84]	; 0x54
 8004eae:	4770      	bx	lr
 8004eb0:	4310      	orrs	r0, r2
 8004eb2:	6558      	str	r0, [r3, #84]	; 0x54
 8004eb4:	4770      	bx	lr
 8004eb6:	bf00      	nop

08004eb8 <RCC_AHB3PeriphClockLPModeCmd>:
 8004eb8:	f44f 5360 	mov.w	r3, #14336	; 0x3800
 8004ebc:	f2c4 0302 	movt	r3, #16386	; 0x4002
 8004ec0:	6d9a      	ldr	r2, [r3, #88]	; 0x58
 8004ec2:	b919      	cbnz	r1, 8004ecc <RCC_AHB3PeriphClockLPModeCmd+0x14>
 8004ec4:	ea22 0000 	bic.w	r0, r2, r0
 8004ec8:	6598      	str	r0, [r3, #88]	; 0x58
 8004eca:	4770      	bx	lr
 8004ecc:	4310      	orrs	r0, r2
 8004ece:	6598      	str	r0, [r3, #88]	; 0x58
 8004ed0:	4770      	bx	lr
 8004ed2:	bf00      	nop

08004ed4 <RCC_APB1PeriphClockLPModeCmd>:
 8004ed4:	f44f 5360 	mov.w	r3, #14336	; 0x3800
 8004ed8:	f2c4 0302 	movt	r3, #16386	; 0x4002
 8004edc:	6e1a      	ldr	r2, [r3, #96]	; 0x60
 8004ede:	b919      	cbnz	r1, 8004ee8 <RCC_APB1PeriphClockLPModeCmd+0x14>
 8004ee0:	ea22 0000 	bic.w	r0, r2, r0
 8004ee4:	6618      	str	r0, [r3, #96]	; 0x60
 8004ee6:	4770      	bx	lr
 8004ee8:	4310      	orrs	r0, r2
 8004eea:	6618      	str	r0, [r3, #96]	; 0x60
 8004eec:	4770      	bx	lr
 8004eee:	bf00      	nop

08004ef0 <RCC_APB2PeriphClockLPModeCmd>:
 8004ef0:	f44f 5360 	mov.w	r3, #14336	; 0x3800
 8004ef4:	f2c4 0302 	movt	r3, #16386	; 0x4002
 8004ef8:	6e5a      	ldr	r2, [r3, #100]	; 0x64
 8004efa:	b919      	cbnz	r1, 8004f04 <RCC_APB2PeriphClockLPModeCmd+0x14>
 8004efc:	ea22 0000 	bic.w	r0, r2, r0
 8004f00:	6658      	str	r0, [r3, #100]	; 0x64
 8004f02:	4770      	bx	lr
 8004f04:	4310      	orrs	r0, r2
 8004f06:	6658      	str	r0, [r3, #100]	; 0x64
 8004f08:	4770      	bx	lr
 8004f0a:	bf00      	nop

08004f0c <RCC_ITConfig>:
 8004f0c:	f643 030d 	movw	r3, #14349	; 0x380d
 8004f10:	f2c4 0302 	movt	r3, #16386	; 0x4002
 8004f14:	781a      	ldrb	r2, [r3, #0]
 8004f16:	b919      	cbnz	r1, 8004f20 <RCC_ITConfig+0x14>
 8004f18:	ea22 0000 	bic.w	r0, r2, r0
 8004f1c:	7018      	strb	r0, [r3, #0]
 8004f1e:	4770      	bx	lr
 8004f20:	4310      	orrs	r0, r2
 8004f22:	7018      	strb	r0, [r3, #0]
 8004f24:	4770      	bx	lr
 8004f26:	bf00      	nop

08004f28 <RCC_GetFlagStatus>:
 8004f28:	0943      	lsrs	r3, r0, #5
 8004f2a:	2b01      	cmp	r3, #1
 8004f2c:	d00e      	beq.n	8004f4c <RCC_GetFlagStatus+0x24>
 8004f2e:	2b02      	cmp	r3, #2
 8004f30:	f44f 5360 	mov.w	r3, #14336	; 0x3800
 8004f34:	f2c4 0302 	movt	r3, #16386	; 0x4002
 8004f38:	bf0c      	ite	eq
 8004f3a:	6f1b      	ldreq	r3, [r3, #112]	; 0x70
 8004f3c:	6f5b      	ldrne	r3, [r3, #116]	; 0x74
 8004f3e:	f000 001f 	and.w	r0, r0, #31
 8004f42:	fa33 f000 	lsrs.w	r0, r3, r0
 8004f46:	f000 0001 	and.w	r0, r0, #1
 8004f4a:	4770      	bx	lr
 8004f4c:	f44f 5360 	mov.w	r3, #14336	; 0x3800
 8004f50:	f2c4 0302 	movt	r3, #16386	; 0x4002
 8004f54:	681b      	ldr	r3, [r3, #0]
 8004f56:	e7f2      	b.n	8004f3e <RCC_GetFlagStatus+0x16>

08004f58 <RCC_ClearFlag>:
 8004f58:	f44f 5360 	mov.w	r3, #14336	; 0x3800
 8004f5c:	f2c4 0302 	movt	r3, #16386	; 0x4002
 8004f60:	6f5a      	ldr	r2, [r3, #116]	; 0x74
 8004f62:	f042 7280 	orr.w	r2, r2, #16777216	; 0x1000000
 8004f66:	675a      	str	r2, [r3, #116]	; 0x74
 8004f68:	4770      	bx	lr
 8004f6a:	bf00      	nop

08004f6c <RCC_GetITStatus>:
 8004f6c:	f44f 5360 	mov.w	r3, #14336	; 0x3800
 8004f70:	f2c4 0302 	movt	r3, #16386	; 0x4002
 8004f74:	68db      	ldr	r3, [r3, #12]
 8004f76:	4218      	tst	r0, r3
 8004f78:	bf0c      	ite	eq
 8004f7a:	2000      	moveq	r0, #0
 8004f7c:	2001      	movne	r0, #1
 8004f7e:	4770      	bx	lr

08004f80 <RCC_ClearITPendingBit>:
 8004f80:	f643 030e 	movw	r3, #14350	; 0x380e
 8004f84:	f2c4 0302 	movt	r3, #16386	; 0x4002
 8004f88:	7018      	strb	r0, [r3, #0]
 8004f8a:	4770      	bx	lr

08004f8c <RNG_DeInit>:
 8004f8c:	b508      	push	{r3, lr}
 8004f8e:	2040      	movs	r0, #64	; 0x40
 8004f90:	2101      	movs	r1, #1
 8004f92:	f7ff ff3d 	bl	8004e10 <RCC_AHB2PeriphResetCmd>
 8004f96:	2040      	movs	r0, #64	; 0x40
 8004f98:	2100      	movs	r1, #0
 8004f9a:	e8bd 4008 	ldmia.w	sp!, {r3, lr}
 8004f9e:	f7ff bf37 	b.w	8004e10 <RCC_AHB2PeriphResetCmd>
 8004fa2:	bf00      	nop

08004fa4 <RNG_Cmd>:
 8004fa4:	f44f 6300 	mov.w	r3, #2048	; 0x800
 8004fa8:	f2c5 0306 	movt	r3, #20486	; 0x5006
 8004fac:	681a      	ldr	r2, [r3, #0]
 8004fae:	b918      	cbnz	r0, 8004fb8 <RNG_Cmd+0x14>
 8004fb0:	f022 0204 	bic.w	r2, r2, #4
 8004fb4:	601a      	str	r2, [r3, #0]
 8004fb6:	4770      	bx	lr
 8004fb8:	f042 0204 	orr.w	r2, r2, #4
 8004fbc:	601a      	str	r2, [r3, #0]
 8004fbe:	4770      	bx	lr

08004fc0 <RNG_GetRandomNumber>:
 8004fc0:	f44f 6300 	mov.w	r3, #2048	; 0x800
 8004fc4:	f2c5 0306 	movt	r3, #20486	; 0x5006
 8004fc8:	6898      	ldr	r0, [r3, #8]
 8004fca:	4770      	bx	lr

08004fcc <RNG_ITConfig>:
 8004fcc:	f44f 6300 	mov.w	r3, #2048	; 0x800
 8004fd0:	f2c5 0306 	movt	r3, #20486	; 0x5006
 8004fd4:	681a      	ldr	r2, [r3, #0]
 8004fd6:	b918      	cbnz	r0, 8004fe0 <RNG_ITConfig+0x14>
 8004fd8:	f022 0208 	bic.w	r2, r2, #8
 8004fdc:	601a      	str	r2, [r3, #0]
 8004fde:	4770      	bx	lr
 8004fe0:	f042 0208 	orr.w	r2, r2, #8
 8004fe4:	601a      	str	r2, [r3, #0]
 8004fe6:	4770      	bx	lr

08004fe8 <RNG_GetFlagStatus>:
 8004fe8:	f44f 6300 	mov.w	r3, #2048	; 0x800
 8004fec:	f2c5 0306 	movt	r3, #20486	; 0x5006
 8004ff0:	685b      	ldr	r3, [r3, #4]
 8004ff2:	4218      	tst	r0, r3
 8004ff4:	bf0c      	ite	eq
 8004ff6:	2000      	moveq	r0, #0
 8004ff8:	2001      	movne	r0, #1
 8004ffa:	4770      	bx	lr

08004ffc <RNG_ClearFlag>:
 8004ffc:	f44f 6300 	mov.w	r3, #2048	; 0x800
 8005000:	f2c5 0306 	movt	r3, #20486	; 0x5006
 8005004:	ea6f 1000 	mvn.w	r0, r0, lsl #4
 8005008:	6058      	str	r0, [r3, #4]
 800500a:	4770      	bx	lr

0800500c <RNG_GetITStatus>:
 800500c:	f44f 6300 	mov.w	r3, #2048	; 0x800
 8005010:	f2c5 0306 	movt	r3, #20486	; 0x5006
 8005014:	685b      	ldr	r3, [r3, #4]
 8005016:	4218      	tst	r0, r3
 8005018:	bf0c      	ite	eq
 800501a:	2000      	moveq	r0, #0
 800501c:	2001      	movne	r0, #1
 800501e:	4770      	bx	lr

08005020 <RNG_ClearITPendingBit>:
 8005020:	f44f 6300 	mov.w	r3, #2048	; 0x800
 8005024:	43c0      	mvns	r0, r0
 8005026:	f2c5 0306 	movt	r3, #20486	; 0x5006
 800502a:	b2c0      	uxtb	r0, r0
 800502c:	6058      	str	r0, [r3, #4]
 800502e:	4770      	bx	lr

08005030 <RTC_DeInit>:
 8005030:	f44f 5120 	mov.w	r1, #10240	; 0x2800
 8005034:	f2c4 0100 	movt	r1, #16384	; 0x4000
 8005038:	b082      	sub	sp, #8
 800503a:	2300      	movs	r3, #0
 800503c:	22ca      	movs	r2, #202	; 0xca
 800503e:	9300      	str	r3, [sp, #0]
 8005040:	624a      	str	r2, [r1, #36]	; 0x24
 8005042:	2253      	movs	r2, #83	; 0x53
 8005044:	624a      	str	r2, [r1, #36]	; 0x24
 8005046:	9301      	str	r3, [sp, #4]
 8005048:	68cb      	ldr	r3, [r1, #12]
 800504a:	065b      	lsls	r3, r3, #25
 800504c:	d41d      	bmi.n	800508a <RTC_DeInit+0x5a>
 800504e:	f04f 33ff 	mov.w	r3, #4294967295	; 0xffffffff
 8005052:	60cb      	str	r3, [r1, #12]
 8005054:	e001      	b.n	800505a <RTC_DeInit+0x2a>
 8005056:	0650      	lsls	r0, r2, #25
 8005058:	d407      	bmi.n	800506a <RTC_DeInit+0x3a>
 800505a:	68ca      	ldr	r2, [r1, #12]
 800505c:	9b01      	ldr	r3, [sp, #4]
 800505e:	3301      	adds	r3, #1
 8005060:	9301      	str	r3, [sp, #4]
 8005062:	9b01      	ldr	r3, [sp, #4]
 8005064:	f5b3 3f80 	cmp.w	r3, #65536	; 0x10000
 8005068:	d1f5      	bne.n	8005056 <RTC_DeInit+0x26>
 800506a:	f44f 5320 	mov.w	r3, #10240	; 0x2800
 800506e:	f2c4 0300 	movt	r3, #16384	; 0x4000
 8005072:	68d8      	ldr	r0, [r3, #12]
 8005074:	f010 0040 	ands.w	r0, r0, #64	; 0x40
 8005078:	d107      	bne.n	800508a <RTC_DeInit+0x5a>
 800507a:	f44f 5320 	mov.w	r3, #10240	; 0x2800
 800507e:	f2c4 0300 	movt	r3, #16384	; 0x4000
 8005082:	22ff      	movs	r2, #255	; 0xff
 8005084:	625a      	str	r2, [r3, #36]	; 0x24
 8005086:	b002      	add	sp, #8
 8005088:	4770      	bx	lr
 800508a:	f44f 5120 	mov.w	r1, #10240	; 0x2800
 800508e:	f2c4 0100 	movt	r1, #16384	; 0x4000
 8005092:	2300      	movs	r3, #0
 8005094:	600b      	str	r3, [r1, #0]
 8005096:	f242 1301 	movw	r3, #8449	; 0x2101
 800509a:	604b      	str	r3, [r1, #4]
 800509c:	688b      	ldr	r3, [r1, #8]
 800509e:	f003 0307 	and.w	r3, r3, #7
 80050a2:	608b      	str	r3, [r1, #8]
 80050a4:	e001      	b.n	80050aa <RTC_DeInit+0x7a>
 80050a6:	0752      	lsls	r2, r2, #29
 80050a8:	d407      	bmi.n	80050ba <RTC_DeInit+0x8a>
 80050aa:	68ca      	ldr	r2, [r1, #12]
 80050ac:	9b00      	ldr	r3, [sp, #0]
 80050ae:	3301      	adds	r3, #1
 80050b0:	9300      	str	r3, [sp, #0]
 80050b2:	9b00      	ldr	r3, [sp, #0]
 80050b4:	f5b3 3f80 	cmp.w	r3, #65536	; 0x10000
 80050b8:	d1f5      	bne.n	80050a6 <RTC_DeInit+0x76>
 80050ba:	f44f 5320 	mov.w	r3, #10240	; 0x2800
 80050be:	f2c4 0300 	movt	r3, #16384	; 0x4000
 80050c2:	68d8      	ldr	r0, [r3, #12]
 80050c4:	f010 0004 	ands.w	r0, r0, #4
 80050c8:	d0d7      	beq.n	800507a <RTC_DeInit+0x4a>
 80050ca:	21ff      	movs	r1, #255	; 0xff
 80050cc:	6898      	ldr	r0, [r3, #8]
 80050ce:	2200      	movs	r2, #0
 80050d0:	f2c0 017f 	movt	r1, #127	; 0x7f
 80050d4:	f64f 70ff 	movw	r0, #65535	; 0xffff
 80050d8:	609a      	str	r2, [r3, #8]
 80050da:	6158      	str	r0, [r3, #20]
 80050dc:	6119      	str	r1, [r3, #16]
 80050de:	619a      	str	r2, [r3, #24]
 80050e0:	61da      	str	r2, [r3, #28]
 80050e2:	621a      	str	r2, [r3, #32]
 80050e4:	60da      	str	r2, [r3, #12]
 80050e6:	641a      	str	r2, [r3, #64]	; 0x40
 80050e8:	9201      	str	r2, [sp, #4]
 80050ea:	22ca      	movs	r2, #202	; 0xca
 80050ec:	625a      	str	r2, [r3, #36]	; 0x24
 80050ee:	2253      	movs	r2, #83	; 0x53
 80050f0:	625a      	str	r2, [r3, #36]	; 0x24
 80050f2:	68da      	ldr	r2, [r3, #12]
 80050f4:	f022 02a0 	bic.w	r2, r2, #160	; 0xa0
 80050f8:	60da      	str	r2, [r3, #12]
 80050fa:	4619      	mov	r1, r3
 80050fc:	e001      	b.n	8005102 <RTC_DeInit+0xd2>
 80050fe:	0693      	lsls	r3, r2, #26
 8005100:	d407      	bmi.n	8005112 <RTC_DeInit+0xe2>
 8005102:	68ca      	ldr	r2, [r1, #12]
 8005104:	9b01      	ldr	r3, [sp, #4]
 8005106:	3301      	adds	r3, #1
 8005108:	9301      	str	r3, [sp, #4]
 800510a:	9b01      	ldr	r3, [sp, #4]
 800510c:	f5b3 3f00 	cmp.w	r3, #131072	; 0x20000
 8005110:	d1f5      	bne.n	80050fe <RTC_DeInit+0xce>
 8005112:	f44f 5320 	mov.w	r3, #10240	; 0x2800
 8005116:	f2c4 0300 	movt	r3, #16384	; 0x4000
 800511a:	22ff      	movs	r2, #255	; 0xff
 800511c:	68d8      	ldr	r0, [r3, #12]
 800511e:	625a      	str	r2, [r3, #36]	; 0x24
 8005120:	f010 0020 	ands.w	r0, r0, #32
 8005124:	bf18      	it	ne
 8005126:	2001      	movne	r0, #1
 8005128:	e7a7      	b.n	800507a <RTC_DeInit+0x4a>
 800512a:	bf00      	nop

0800512c <RTC_Init>:
 800512c:	b410      	push	{r4}
 800512e:	f44f 5320 	mov.w	r3, #10240	; 0x2800
 8005132:	f2c4 0300 	movt	r3, #16384	; 0x4000
 8005136:	22ca      	movs	r2, #202	; 0xca
 8005138:	625a      	str	r2, [r3, #36]	; 0x24
 800513a:	b083      	sub	sp, #12
 800513c:	2253      	movs	r2, #83	; 0x53
 800513e:	625a      	str	r2, [r3, #36]	; 0x24
 8005140:	2200      	movs	r2, #0
 8005142:	9201      	str	r2, [sp, #4]
 8005144:	68da      	ldr	r2, [r3, #12]
 8005146:	0651      	lsls	r1, r2, #25
 8005148:	4604      	mov	r4, r0
 800514a:	d41e      	bmi.n	800518a <RTC_Init+0x5e>
 800514c:	f04f 32ff 	mov.w	r2, #4294967295	; 0xffffffff
 8005150:	60da      	str	r2, [r3, #12]
 8005152:	e001      	b.n	8005158 <RTC_Init+0x2c>
 8005154:	064a      	lsls	r2, r1, #25
 8005156:	d407      	bmi.n	8005168 <RTC_Init+0x3c>
 8005158:	68d9      	ldr	r1, [r3, #12]
 800515a:	9a01      	ldr	r2, [sp, #4]
 800515c:	3201      	adds	r2, #1
 800515e:	9201      	str	r2, [sp, #4]
 8005160:	9a01      	ldr	r2, [sp, #4]
 8005162:	f5b2 3f80 	cmp.w	r2, #65536	; 0x10000
 8005166:	d1f5      	bne.n	8005154 <RTC_Init+0x28>
 8005168:	f44f 5320 	mov.w	r3, #10240	; 0x2800
 800516c:	f2c4 0300 	movt	r3, #16384	; 0x4000
 8005170:	68d8      	ldr	r0, [r3, #12]
 8005172:	f010 0040 	ands.w	r0, r0, #64	; 0x40
 8005176:	d108      	bne.n	800518a <RTC_Init+0x5e>
 8005178:	f44f 5320 	mov.w	r3, #10240	; 0x2800
 800517c:	f2c4 0300 	movt	r3, #16384	; 0x4000
 8005180:	22ff      	movs	r2, #255	; 0xff
 8005182:	625a      	str	r2, [r3, #36]	; 0x24
 8005184:	b003      	add	sp, #12
 8005186:	bc10      	pop	{r4}
 8005188:	4770      	bx	lr
 800518a:	f44f 5320 	mov.w	r3, #10240	; 0x2800
 800518e:	f2c4 0300 	movt	r3, #16384	; 0x4000
 8005192:	2001      	movs	r0, #1
 8005194:	689a      	ldr	r2, [r3, #8]
 8005196:	f022 0240 	bic.w	r2, r2, #64	; 0x40
 800519a:	609a      	str	r2, [r3, #8]
 800519c:	6899      	ldr	r1, [r3, #8]
 800519e:	6822      	ldr	r2, [r4, #0]
 80051a0:	430a      	orrs	r2, r1
 80051a2:	609a      	str	r2, [r3, #8]
 80051a4:	68a2      	ldr	r2, [r4, #8]
 80051a6:	611a      	str	r2, [r3, #16]
 80051a8:	691a      	ldr	r2, [r3, #16]
 80051aa:	6861      	ldr	r1, [r4, #4]
 80051ac:	ea42 4201 	orr.w	r2, r2, r1, lsl #16
 80051b0:	611a      	str	r2, [r3, #16]
 80051b2:	68da      	ldr	r2, [r3, #12]
 80051b4:	f022 0280 	bic.w	r2, r2, #128	; 0x80
 80051b8:	60da      	str	r2, [r3, #12]
 80051ba:	e7dd      	b.n	8005178 <RTC_Init+0x4c>

080051bc <RTC_StructInit>:
 80051bc:	2200      	movs	r2, #0
 80051be:	237f      	movs	r3, #127	; 0x7f
 80051c0:	f04f 0cff 	mov.w	ip, #255	; 0xff
 80051c4:	e880 100c 	stmia.w	r0, {r2, r3, ip}
 80051c8:	4770      	bx	lr
 80051ca:	bf00      	nop

080051cc <RTC_WriteProtectionCmd>:
 80051cc:	f44f 5320 	mov.w	r3, #10240	; 0x2800
 80051d0:	f2c4 0300 	movt	r3, #16384	; 0x4000
 80051d4:	b920      	cbnz	r0, 80051e0 <RTC_WriteProtectionCmd+0x14>
 80051d6:	22ca      	movs	r2, #202	; 0xca
 80051d8:	625a      	str	r2, [r3, #36]	; 0x24
 80051da:	2253      	movs	r2, #83	; 0x53
 80051dc:	625a      	str	r2, [r3, #36]	; 0x24
 80051de:	4770      	bx	lr
 80051e0:	22ff      	movs	r2, #255	; 0xff
 80051e2:	625a      	str	r2, [r3, #36]	; 0x24
 80051e4:	4770      	bx	lr
 80051e6:	bf00      	nop

080051e8 <RTC_EnterInitMode>:
 80051e8:	b082      	sub	sp, #8
 80051ea:	f44f 5120 	mov.w	r1, #10240	; 0x2800
 80051ee:	2300      	movs	r3, #0
 80051f0:	f2c4 0100 	movt	r1, #16384	; 0x4000
 80051f4:	9301      	str	r3, [sp, #4]
 80051f6:	68cb      	ldr	r3, [r1, #12]
 80051f8:	065b      	lsls	r3, r3, #25
 80051fa:	d416      	bmi.n	800522a <RTC_EnterInitMode+0x42>
 80051fc:	f04f 33ff 	mov.w	r3, #4294967295	; 0xffffffff
 8005200:	60cb      	str	r3, [r1, #12]
 8005202:	e001      	b.n	8005208 <RTC_EnterInitMode+0x20>
 8005204:	0650      	lsls	r0, r2, #25
 8005206:	d407      	bmi.n	8005218 <RTC_EnterInitMode+0x30>
 8005208:	68ca      	ldr	r2, [r1, #12]
 800520a:	9b01      	ldr	r3, [sp, #4]
 800520c:	3301      	adds	r3, #1
 800520e:	9301      	str	r3, [sp, #4]
 8005210:	9b01      	ldr	r3, [sp, #4]
 8005212:	f5b3 3f80 	cmp.w	r3, #65536	; 0x10000
 8005216:	d1f5      	bne.n	8005204 <RTC_EnterInitMode+0x1c>
 8005218:	f44f 5320 	mov.w	r3, #10240	; 0x2800
 800521c:	f2c4 0300 	movt	r3, #16384	; 0x4000
 8005220:	68d8      	ldr	r0, [r3, #12]
 8005222:	f3c0 1080 	ubfx	r0, r0, #6, #1
 8005226:	b002      	add	sp, #8
 8005228:	4770      	bx	lr
 800522a:	2001      	movs	r0, #1
 800522c:	e7fb      	b.n	8005226 <RTC_EnterInitMode+0x3e>
 800522e:	bf00      	nop

08005230 <RTC_ExitInitMode>:
 8005230:	f44f 5320 	mov.w	r3, #10240	; 0x2800
 8005234:	f2c4 0300 	movt	r3, #16384	; 0x4000
 8005238:	68da      	ldr	r2, [r3, #12]
 800523a:	f022 0280 	bic.w	r2, r2, #128	; 0x80
 800523e:	60da      	str	r2, [r3, #12]
 8005240:	4770      	bx	lr
 8005242:	bf00      	nop

08005244 <RTC_WaitForSynchro>:
 8005244:	b082      	sub	sp, #8
 8005246:	f44f 5120 	mov.w	r1, #10240	; 0x2800
 800524a:	f2c4 0100 	movt	r1, #16384	; 0x4000
 800524e:	2300      	movs	r3, #0
 8005250:	9301      	str	r3, [sp, #4]
 8005252:	23ca      	movs	r3, #202	; 0xca
 8005254:	624b      	str	r3, [r1, #36]	; 0x24
 8005256:	2353      	movs	r3, #83	; 0x53
 8005258:	624b      	str	r3, [r1, #36]	; 0x24
 800525a:	68cb      	ldr	r3, [r1, #12]
 800525c:	f023 03a0 	bic.w	r3, r3, #160	; 0xa0
 8005260:	60cb      	str	r3, [r1, #12]
 8005262:	e001      	b.n	8005268 <RTC_WaitForSynchro+0x24>
 8005264:	0692      	lsls	r2, r2, #26
 8005266:	d407      	bmi.n	8005278 <RTC_WaitForSynchro+0x34>
 8005268:	68ca      	ldr	r2, [r1, #12]
 800526a:	9b01      	ldr	r3, [sp, #4]
 800526c:	3301      	adds	r3, #1
 800526e:	9301      	str	r3, [sp, #4]
 8005270:	9b01      	ldr	r3, [sp, #4]
 8005272:	f5b3 3f00 	cmp.w	r3, #131072	; 0x20000
 8005276:	d1f5      	bne.n	8005264 <RTC_WaitForSynchro+0x20>
 8005278:	f44f 5320 	mov.w	r3, #10240	; 0x2800
 800527c:	f2c4 0300 	movt	r3, #16384	; 0x4000
 8005280:	22ff      	movs	r2, #255	; 0xff
 8005282:	68d8      	ldr	r0, [r3, #12]
 8005284:	625a      	str	r2, [r3, #36]	; 0x24
 8005286:	f3c0 1040 	ubfx	r0, r0, #5, #1
 800528a:	b002      	add	sp, #8
 800528c:	4770      	bx	lr
 800528e:	bf00      	nop

08005290 <RTC_RefClockCmd>:
 8005290:	f44f 5320 	mov.w	r3, #10240	; 0x2800
 8005294:	f2c4 0300 	movt	r3, #16384	; 0x4000
 8005298:	22ca      	movs	r2, #202	; 0xca
 800529a:	625a      	str	r2, [r3, #36]	; 0x24
 800529c:	b082      	sub	sp, #8
 800529e:	2253      	movs	r2, #83	; 0x53
 80052a0:	625a      	str	r2, [r3, #36]	; 0x24
 80052a2:	2200      	movs	r2, #0
 80052a4:	9201      	str	r2, [sp, #4]
 80052a6:	68da      	ldr	r2, [r3, #12]
 80052a8:	0652      	lsls	r2, r2, #25
 80052aa:	d41f      	bmi.n	80052ec <RTC_RefClockCmd+0x5c>
 80052ac:	f04f 32ff 	mov.w	r2, #4294967295	; 0xffffffff
 80052b0:	60da      	str	r2, [r3, #12]
 80052b2:	e001      	b.n	80052b8 <RTC_RefClockCmd+0x28>
 80052b4:	0649      	lsls	r1, r1, #25
 80052b6:	d407      	bmi.n	80052c8 <RTC_RefClockCmd+0x38>
 80052b8:	68d9      	ldr	r1, [r3, #12]
 80052ba:	9a01      	ldr	r2, [sp, #4]
 80052bc:	3201      	adds	r2, #1
 80052be:	9201      	str	r2, [sp, #4]
 80052c0:	9a01      	ldr	r2, [sp, #4]
 80052c2:	f5b2 3f80 	cmp.w	r2, #65536	; 0x10000
 80052c6:	d1f5      	bne.n	80052b4 <RTC_RefClockCmd+0x24>
 80052c8:	f44f 5320 	mov.w	r3, #10240	; 0x2800
 80052cc:	f2c4 0300 	movt	r3, #16384	; 0x4000
 80052d0:	68db      	ldr	r3, [r3, #12]
 80052d2:	f013 0340 	ands.w	r3, r3, #64	; 0x40
 80052d6:	bf08      	it	eq
 80052d8:	4618      	moveq	r0, r3
 80052da:	d107      	bne.n	80052ec <RTC_RefClockCmd+0x5c>
 80052dc:	f44f 5320 	mov.w	r3, #10240	; 0x2800
 80052e0:	f2c4 0300 	movt	r3, #16384	; 0x4000
 80052e4:	22ff      	movs	r2, #255	; 0xff
 80052e6:	625a      	str	r2, [r3, #36]	; 0x24
 80052e8:	b002      	add	sp, #8
 80052ea:	4770      	bx	lr
 80052ec:	f44f 5320 	mov.w	r3, #10240	; 0x2800
 80052f0:	f2c4 0300 	movt	r3, #16384	; 0x4000
 80052f4:	689a      	ldr	r2, [r3, #8]
 80052f6:	b960      	cbnz	r0, 8005312 <RTC_RefClockCmd+0x82>
 80052f8:	f022 0210 	bic.w	r2, r2, #16
 80052fc:	609a      	str	r2, [r3, #8]
 80052fe:	f44f 5320 	mov.w	r3, #10240	; 0x2800
 8005302:	f2c4 0300 	movt	r3, #16384	; 0x4000
 8005306:	2001      	movs	r0, #1
 8005308:	68da      	ldr	r2, [r3, #12]
 800530a:	f022 0280 	bic.w	r2, r2, #128	; 0x80
 800530e:	60da      	str	r2, [r3, #12]
 8005310:	e7e4      	b.n	80052dc <RTC_RefClockCmd+0x4c>
 8005312:	f042 0210 	orr.w	r2, r2, #16
 8005316:	609a      	str	r2, [r3, #8]
 8005318:	e7f1      	b.n	80052fe <RTC_RefClockCmd+0x6e>
 800531a:	bf00      	nop

0800531c <RTC_BypassShadowCmd>:
 800531c:	f44f 5320 	mov.w	r3, #10240	; 0x2800
 8005320:	f2c4 0300 	movt	r3, #16384	; 0x4000
 8005324:	22ca      	movs	r2, #202	; 0xca
 8005326:	625a      	str	r2, [r3, #36]	; 0x24
 8005328:	2253      	movs	r2, #83	; 0x53
 800532a:	625a      	str	r2, [r3, #36]	; 0x24
 800532c:	689a      	ldr	r2, [r3, #8]
 800532e:	b948      	cbnz	r0, 8005344 <RTC_BypassShadowCmd+0x28>
 8005330:	f002 02df 	and.w	r2, r2, #223	; 0xdf
 8005334:	609a      	str	r2, [r3, #8]
 8005336:	f44f 5320 	mov.w	r3, #10240	; 0x2800
 800533a:	f2c4 0300 	movt	r3, #16384	; 0x4000
 800533e:	22ff      	movs	r2, #255	; 0xff
 8005340:	625a      	str	r2, [r3, #36]	; 0x24
 8005342:	4770      	bx	lr
 8005344:	f042 0220 	orr.w	r2, r2, #32
 8005348:	609a      	str	r2, [r3, #8]
 800534a:	e7f4      	b.n	8005336 <RTC_BypassShadowCmd+0x1a>

0800534c <RTC_SetTime>:
 800534c:	b430      	push	{r4, r5}
 800534e:	f44f 5320 	mov.w	r3, #10240	; 0x2800
 8005352:	b082      	sub	sp, #8
 8005354:	f2c4 0300 	movt	r3, #16384	; 0x4000
 8005358:	2800      	cmp	r0, #0
 800535a:	d135      	bne.n	80053c8 <RTC_SetTime+0x7c>
 800535c:	689c      	ldr	r4, [r3, #8]
 800535e:	f014 0440 	ands.w	r4, r4, #64	; 0x40
 8005362:	bf08      	it	eq
 8005364:	70cc      	strbeq	r4, [r1, #3]
 8005366:	d001      	beq.n	800536c <RTC_SetTime+0x20>
 8005368:	78cc      	ldrb	r4, [r1, #3]
 800536a:	0424      	lsls	r4, r4, #16
 800536c:	780b      	ldrb	r3, [r1, #0]
 800536e:	2500      	movs	r5, #0
 8005370:	2b09      	cmp	r3, #9
 8005372:	d908      	bls.n	8005386 <RTC_SetTime+0x3a>
 8005374:	2200      	movs	r2, #0
 8005376:	3b0a      	subs	r3, #10
 8005378:	b2db      	uxtb	r3, r3
 800537a:	3201      	adds	r2, #1
 800537c:	2b09      	cmp	r3, #9
 800537e:	b2d2      	uxtb	r2, r2
 8005380:	d8f9      	bhi.n	8005376 <RTC_SetTime+0x2a>
 8005382:	0112      	lsls	r2, r2, #4
 8005384:	b2d5      	uxtb	r5, r2
 8005386:	784a      	ldrb	r2, [r1, #1]
 8005388:	432b      	orrs	r3, r5
 800538a:	041d      	lsls	r5, r3, #16
 800538c:	2000      	movs	r0, #0
 800538e:	2a09      	cmp	r2, #9
 8005390:	d907      	bls.n	80053a2 <RTC_SetTime+0x56>
 8005392:	3a0a      	subs	r2, #10
 8005394:	b2d2      	uxtb	r2, r2
 8005396:	3001      	adds	r0, #1
 8005398:	2a09      	cmp	r2, #9
 800539a:	b2c0      	uxtb	r0, r0
 800539c:	d8f9      	bhi.n	8005392 <RTC_SetTime+0x46>
 800539e:	0100      	lsls	r0, r0, #4
 80053a0:	b2c0      	uxtb	r0, r0
 80053a2:	788b      	ldrb	r3, [r1, #2]
 80053a4:	4302      	orrs	r2, r0
 80053a6:	0212      	lsls	r2, r2, #8
 80053a8:	2100      	movs	r1, #0
 80053aa:	2b09      	cmp	r3, #9
 80053ac:	d907      	bls.n	80053be <RTC_SetTime+0x72>
 80053ae:	3b0a      	subs	r3, #10
 80053b0:	b2db      	uxtb	r3, r3
 80053b2:	3101      	adds	r1, #1
 80053b4:	2b09      	cmp	r3, #9
 80053b6:	b2c9      	uxtb	r1, r1
 80053b8:	d8f9      	bhi.n	80053ae <RTC_SetTime+0x62>
 80053ba:	0109      	lsls	r1, r1, #4
 80053bc:	b2c9      	uxtb	r1, r1
 80053be:	432c      	orrs	r4, r5
 80053c0:	4314      	orrs	r4, r2
 80053c2:	430b      	orrs	r3, r1
 80053c4:	4323      	orrs	r3, r4
 80053c6:	e00d      	b.n	80053e4 <RTC_SetTime+0x98>
 80053c8:	689b      	ldr	r3, [r3, #8]
 80053ca:	f013 0340 	ands.w	r3, r3, #64	; 0x40
 80053ce:	bf08      	it	eq
 80053d0:	70cb      	strbeq	r3, [r1, #3]
 80053d2:	d133      	bne.n	800543c <RTC_SetTime+0xf0>
 80053d4:	784a      	ldrb	r2, [r1, #1]
 80053d6:	7808      	ldrb	r0, [r1, #0]
 80053d8:	7889      	ldrb	r1, [r1, #2]
 80053da:	0212      	lsls	r2, r2, #8
 80053dc:	ea42 4200 	orr.w	r2, r2, r0, lsl #16
 80053e0:	430a      	orrs	r2, r1
 80053e2:	4313      	orrs	r3, r2
 80053e4:	f44f 5020 	mov.w	r0, #10240	; 0x2800
 80053e8:	f2c4 0000 	movt	r0, #16384	; 0x4000
 80053ec:	22ca      	movs	r2, #202	; 0xca
 80053ee:	6242      	str	r2, [r0, #36]	; 0x24
 80053f0:	2253      	movs	r2, #83	; 0x53
 80053f2:	6242      	str	r2, [r0, #36]	; 0x24
 80053f4:	2200      	movs	r2, #0
 80053f6:	9201      	str	r2, [sp, #4]
 80053f8:	68c2      	ldr	r2, [r0, #12]
 80053fa:	0651      	lsls	r1, r2, #25
 80053fc:	d421      	bmi.n	8005442 <RTC_SetTime+0xf6>
 80053fe:	f04f 32ff 	mov.w	r2, #4294967295	; 0xffffffff
 8005402:	60c2      	str	r2, [r0, #12]
 8005404:	e001      	b.n	800540a <RTC_SetTime+0xbe>
 8005406:	064a      	lsls	r2, r1, #25
 8005408:	d407      	bmi.n	800541a <RTC_SetTime+0xce>
 800540a:	68c1      	ldr	r1, [r0, #12]
 800540c:	9a01      	ldr	r2, [sp, #4]
 800540e:	3201      	adds	r2, #1
 8005410:	9201      	str	r2, [sp, #4]
 8005412:	9a01      	ldr	r2, [sp, #4]
 8005414:	f5b2 3f80 	cmp.w	r2, #65536	; 0x10000
 8005418:	d1f5      	bne.n	8005406 <RTC_SetTime+0xba>
 800541a:	f44f 5220 	mov.w	r2, #10240	; 0x2800
 800541e:	f2c4 0200 	movt	r2, #16384	; 0x4000
 8005422:	68d0      	ldr	r0, [r2, #12]
 8005424:	f010 0040 	ands.w	r0, r0, #64	; 0x40
 8005428:	d10b      	bne.n	8005442 <RTC_SetTime+0xf6>
 800542a:	f44f 5320 	mov.w	r3, #10240	; 0x2800
 800542e:	f2c4 0300 	movt	r3, #16384	; 0x4000
 8005432:	22ff      	movs	r2, #255	; 0xff
 8005434:	625a      	str	r2, [r3, #36]	; 0x24
 8005436:	b002      	add	sp, #8
 8005438:	bc30      	pop	{r4, r5}
 800543a:	4770      	bx	lr
 800543c:	78cb      	ldrb	r3, [r1, #3]
 800543e:	041b      	lsls	r3, r3, #16
 8005440:	e7c8      	b.n	80053d4 <RTC_SetTime+0x88>
 8005442:	f44f 5120 	mov.w	r1, #10240	; 0x2800
 8005446:	f2c4 0100 	movt	r1, #16384	; 0x4000
 800544a:	f003 337f 	and.w	r3, r3, #2139062143	; 0x7f7f7f7f
 800544e:	f023 43fe 	bic.w	r3, r3, #2130706432	; 0x7f000000
 8005452:	600b      	str	r3, [r1, #0]
 8005454:	68cb      	ldr	r3, [r1, #12]
 8005456:	f023 0380 	bic.w	r3, r3, #128	; 0x80
 800545a:	60cb      	str	r3, [r1, #12]
 800545c:	2300      	movs	r3, #0
 800545e:	9301      	str	r3, [sp, #4]
 8005460:	23ca      	movs	r3, #202	; 0xca
 8005462:	624b      	str	r3, [r1, #36]	; 0x24
 8005464:	2353      	movs	r3, #83	; 0x53
 8005466:	624b      	str	r3, [r1, #36]	; 0x24
 8005468:	68cb      	ldr	r3, [r1, #12]
 800546a:	f023 03a0 	bic.w	r3, r3, #160	; 0xa0
 800546e:	60cb      	str	r3, [r1, #12]
 8005470:	e001      	b.n	8005476 <RTC_SetTime+0x12a>
 8005472:	0690      	lsls	r0, r2, #26
 8005474:	d407      	bmi.n	8005486 <RTC_SetTime+0x13a>
 8005476:	68ca      	ldr	r2, [r1, #12]
 8005478:	9b01      	ldr	r3, [sp, #4]
 800547a:	3301      	adds	r3, #1
 800547c:	9301      	str	r3, [sp, #4]
 800547e:	9b01      	ldr	r3, [sp, #4]
 8005480:	f5b3 3f00 	cmp.w	r3, #131072	; 0x20000
 8005484:	d1f5      	bne.n	8005472 <RTC_SetTime+0x126>
 8005486:	f44f 5320 	mov.w	r3, #10240	; 0x2800
 800548a:	f2c4 0300 	movt	r3, #16384	; 0x4000
 800548e:	22ff      	movs	r2, #255	; 0xff
 8005490:	68d8      	ldr	r0, [r3, #12]
 8005492:	625a      	str	r2, [r3, #36]	; 0x24
 8005494:	f010 0020 	ands.w	r0, r0, #32
 8005498:	bf18      	it	ne
 800549a:	2001      	movne	r0, #1
 800549c:	e7c5      	b.n	800542a <RTC_SetTime+0xde>
 800549e:	bf00      	nop

080054a0 <RTC_TimeStructInit>:
 80054a0:	2300      	movs	r3, #0
 80054a2:	70c3      	strb	r3, [r0, #3]
 80054a4:	7003      	strb	r3, [r0, #0]
 80054a6:	7043      	strb	r3, [r0, #1]
 80054a8:	7083      	strb	r3, [r0, #2]
 80054aa:	4770      	bx	lr

080054ac <RTC_GetTime>:
 80054ac:	f44f 5320 	mov.w	r3, #10240	; 0x2800
 80054b0:	f2c4 0300 	movt	r3, #16384	; 0x4000
 80054b4:	b470      	push	{r4, r5, r6}
 80054b6:	681b      	ldr	r3, [r3, #0]
 80054b8:	f403 0580 	and.w	r5, r3, #4194304	; 0x400000
 80054bc:	f3c3 4405 	ubfx	r4, r3, #16, #6
 80054c0:	f3c3 2206 	ubfx	r2, r3, #8, #7
 80054c4:	0c2d      	lsrs	r5, r5, #16
 80054c6:	f003 037f 	and.w	r3, r3, #127	; 0x7f
 80054ca:	700c      	strb	r4, [r1, #0]
 80054cc:	704a      	strb	r2, [r1, #1]
 80054ce:	708b      	strb	r3, [r1, #2]
 80054d0:	70cd      	strb	r5, [r1, #3]
 80054d2:	b9b8      	cbnz	r0, 8005504 <RTC_GetTime+0x58>
 80054d4:	0926      	lsrs	r6, r4, #4
 80054d6:	0915      	lsrs	r5, r2, #4
 80054d8:	0918      	lsrs	r0, r3, #4
 80054da:	eb06 0686 	add.w	r6, r6, r6, lsl #2
 80054de:	f004 040f 	and.w	r4, r4, #15
 80054e2:	eb05 0585 	add.w	r5, r5, r5, lsl #2
 80054e6:	f002 020f 	and.w	r2, r2, #15
 80054ea:	eb00 0080 	add.w	r0, r0, r0, lsl #2
 80054ee:	f003 030f 	and.w	r3, r3, #15
 80054f2:	eb04 0646 	add.w	r6, r4, r6, lsl #1
 80054f6:	eb02 0545 	add.w	r5, r2, r5, lsl #1
 80054fa:	eb03 0340 	add.w	r3, r3, r0, lsl #1
 80054fe:	700e      	strb	r6, [r1, #0]
 8005500:	704d      	strb	r5, [r1, #1]
 8005502:	708b      	strb	r3, [r1, #2]
 8005504:	bc70      	pop	{r4, r5, r6}
 8005506:	4770      	bx	lr

08005508 <RTC_GetSubSecond>:
 8005508:	f44f 5320 	mov.w	r3, #10240	; 0x2800
 800550c:	f2c4 0300 	movt	r3, #16384	; 0x4000
 8005510:	6a98      	ldr	r0, [r3, #40]	; 0x28
 8005512:	685b      	ldr	r3, [r3, #4]
 8005514:	4770      	bx	lr
 8005516:	bf00      	nop

08005518 <RTC_SetDate>:
 8005518:	b430      	push	{r4, r5}
 800551a:	b082      	sub	sp, #8
 800551c:	2800      	cmp	r0, #0
 800551e:	d162      	bne.n	80055e6 <RTC_SetDate+0xce>
 8005520:	784b      	ldrb	r3, [r1, #1]
 8005522:	06d8      	lsls	r0, r3, #27
 8005524:	d504      	bpl.n	8005530 <RTC_SetDate+0x18>
 8005526:	f003 03ef 	and.w	r3, r3, #239	; 0xef
 800552a:	330a      	adds	r3, #10
 800552c:	b2db      	uxtb	r3, r3
 800552e:	704b      	strb	r3, [r1, #1]
 8005530:	78ca      	ldrb	r2, [r1, #3]
 8005532:	2000      	movs	r0, #0
 8005534:	2a09      	cmp	r2, #9
 8005536:	d907      	bls.n	8005548 <RTC_SetDate+0x30>
 8005538:	3a0a      	subs	r2, #10
 800553a:	b2d2      	uxtb	r2, r2
 800553c:	3001      	adds	r0, #1
 800553e:	2a09      	cmp	r2, #9
 8005540:	b2c0      	uxtb	r0, r0
 8005542:	d8f9      	bhi.n	8005538 <RTC_SetDate+0x20>
 8005544:	0100      	lsls	r0, r0, #4
 8005546:	b2c0      	uxtb	r0, r0
 8005548:	4302      	orrs	r2, r0
 800554a:	0412      	lsls	r2, r2, #16
 800554c:	2400      	movs	r4, #0
 800554e:	2b09      	cmp	r3, #9
 8005550:	d908      	bls.n	8005564 <RTC_SetDate+0x4c>
 8005552:	2000      	movs	r0, #0
 8005554:	3b0a      	subs	r3, #10
 8005556:	b2db      	uxtb	r3, r3
 8005558:	3001      	adds	r0, #1
 800555a:	2b09      	cmp	r3, #9
 800555c:	b2c0      	uxtb	r0, r0
 800555e:	d8f9      	bhi.n	8005554 <RTC_SetDate+0x3c>
 8005560:	0100      	lsls	r0, r0, #4
 8005562:	b2c4      	uxtb	r4, r0
 8005564:	7888      	ldrb	r0, [r1, #2]
 8005566:	4323      	orrs	r3, r4
 8005568:	021b      	lsls	r3, r3, #8
 800556a:	2500      	movs	r5, #0
 800556c:	2809      	cmp	r0, #9
 800556e:	d908      	bls.n	8005582 <RTC_SetDate+0x6a>
 8005570:	2400      	movs	r4, #0
 8005572:	380a      	subs	r0, #10
 8005574:	b2c0      	uxtb	r0, r0
 8005576:	3401      	adds	r4, #1
 8005578:	2809      	cmp	r0, #9
 800557a:	b2e4      	uxtb	r4, r4
 800557c:	d8f9      	bhi.n	8005572 <RTC_SetDate+0x5a>
 800557e:	0124      	lsls	r4, r4, #4
 8005580:	b2e5      	uxtb	r5, r4
 8005582:	780c      	ldrb	r4, [r1, #0]
 8005584:	ea42 3444 	orr.w	r4, r2, r4, lsl #13
 8005588:	431c      	orrs	r4, r3
 800558a:	4328      	orrs	r0, r5
 800558c:	4304      	orrs	r4, r0
 800558e:	f44f 5120 	mov.w	r1, #10240	; 0x2800
 8005592:	f2c4 0100 	movt	r1, #16384	; 0x4000
 8005596:	23ca      	movs	r3, #202	; 0xca
 8005598:	624b      	str	r3, [r1, #36]	; 0x24
 800559a:	2353      	movs	r3, #83	; 0x53
 800559c:	624b      	str	r3, [r1, #36]	; 0x24
 800559e:	2300      	movs	r3, #0
 80055a0:	9301      	str	r3, [sp, #4]
 80055a2:	68cb      	ldr	r3, [r1, #12]
 80055a4:	065a      	lsls	r2, r3, #25
 80055a6:	d429      	bmi.n	80055fc <RTC_SetDate+0xe4>
 80055a8:	f04f 33ff 	mov.w	r3, #4294967295	; 0xffffffff
 80055ac:	60cb      	str	r3, [r1, #12]
 80055ae:	e001      	b.n	80055b4 <RTC_SetDate+0x9c>
 80055b0:	0653      	lsls	r3, r2, #25
 80055b2:	d407      	bmi.n	80055c4 <RTC_SetDate+0xac>
 80055b4:	68ca      	ldr	r2, [r1, #12]
 80055b6:	9b01      	ldr	r3, [sp, #4]
 80055b8:	3301      	adds	r3, #1
 80055ba:	9301      	str	r3, [sp, #4]
 80055bc:	9b01      	ldr	r3, [sp, #4]
 80055be:	f5b3 3f80 	cmp.w	r3, #65536	; 0x10000
 80055c2:	d1f5      	bne.n	80055b0 <RTC_SetDate+0x98>
 80055c4:	f44f 5320 	mov.w	r3, #10240	; 0x2800
 80055c8:	f2c4 0300 	movt	r3, #16384	; 0x4000
 80055cc:	68d8      	ldr	r0, [r3, #12]
 80055ce:	f010 0040 	ands.w	r0, r0, #64	; 0x40
 80055d2:	d113      	bne.n	80055fc <RTC_SetDate+0xe4>
 80055d4:	f44f 5320 	mov.w	r3, #10240	; 0x2800
 80055d8:	f2c4 0300 	movt	r3, #16384	; 0x4000
 80055dc:	22ff      	movs	r2, #255	; 0xff
 80055de:	625a      	str	r2, [r3, #36]	; 0x24
 80055e0:	b002      	add	sp, #8
 80055e2:	bc30      	pop	{r4, r5}
 80055e4:	4770      	bx	lr
 80055e6:	784c      	ldrb	r4, [r1, #1]
 80055e8:	78ca      	ldrb	r2, [r1, #3]
 80055ea:	788b      	ldrb	r3, [r1, #2]
 80055ec:	7808      	ldrb	r0, [r1, #0]
 80055ee:	0224      	lsls	r4, r4, #8
 80055f0:	ea44 4402 	orr.w	r4, r4, r2, lsl #16
 80055f4:	431c      	orrs	r4, r3
 80055f6:	ea44 3440 	orr.w	r4, r4, r0, lsl #13
 80055fa:	e7c8      	b.n	800558e <RTC_SetDate+0x76>
 80055fc:	f44f 5120 	mov.w	r1, #10240	; 0x2800
 8005600:	f2c4 0100 	movt	r1, #16384	; 0x4000
 8005604:	f024 447f 	bic.w	r4, r4, #4278190080	; 0xff000000
 8005608:	f024 04c0 	bic.w	r4, r4, #192	; 0xc0
 800560c:	604c      	str	r4, [r1, #4]
 800560e:	68cb      	ldr	r3, [r1, #12]
 8005610:	f023 0380 	bic.w	r3, r3, #128	; 0x80
 8005614:	60cb      	str	r3, [r1, #12]
 8005616:	2300      	movs	r3, #0
 8005618:	9301      	str	r3, [sp, #4]
 800561a:	23ca      	movs	r3, #202	; 0xca
 800561c:	624b      	str	r3, [r1, #36]	; 0x24
 800561e:	2353      	movs	r3, #83	; 0x53
 8005620:	624b      	str	r3, [r1, #36]	; 0x24
 8005622:	68cb      	ldr	r3, [r1, #12]
 8005624:	f023 03a0 	bic.w	r3, r3, #160	; 0xa0
 8005628:	60cb      	str	r3, [r1, #12]
 800562a:	e001      	b.n	8005630 <RTC_SetDate+0x118>
 800562c:	0690      	lsls	r0, r2, #26
 800562e:	d407      	bmi.n	8005640 <RTC_SetDate+0x128>
 8005630:	68ca      	ldr	r2, [r1, #12]
 8005632:	9b01      	ldr	r3, [sp, #4]
 8005634:	3301      	adds	r3, #1
 8005636:	9301      	str	r3, [sp, #4]
 8005638:	9b01      	ldr	r3, [sp, #4]
 800563a:	f5b3 3f00 	cmp.w	r3, #131072	; 0x20000
 800563e:	d1f5      	bne.n	800562c <RTC_SetDate+0x114>
 8005640:	f44f 5320 	mov.w	r3, #10240	; 0x2800
 8005644:	f2c4 0300 	movt	r3, #16384	; 0x4000
 8005648:	22ff      	movs	r2, #255	; 0xff
 800564a:	68d8      	ldr	r0, [r3, #12]
 800564c:	625a      	str	r2, [r3, #36]	; 0x24
 800564e:	f010 0020 	ands.w	r0, r0, #32
 8005652:	bf18      	it	ne
 8005654:	2001      	movne	r0, #1
 8005656:	e7bd      	b.n	80055d4 <RTC_SetDate+0xbc>

08005658 <RTC_DateStructInit>:
 8005658:	2301      	movs	r3, #1
 800565a:	7003      	strb	r3, [r0, #0]
 800565c:	7083      	strb	r3, [r0, #2]
 800565e:	7043      	strb	r3, [r0, #1]
 8005660:	2300      	movs	r3, #0
 8005662:	70c3      	strb	r3, [r0, #3]
 8005664:	4770      	bx	lr
 8005666:	bf00      	nop

08005668 <RTC_GetDate>:
 8005668:	f44f 5320 	mov.w	r3, #10240	; 0x2800
 800566c:	f2c4 0300 	movt	r3, #16384	; 0x4000
 8005670:	b4f0      	push	{r4, r5, r6, r7}
 8005672:	685b      	ldr	r3, [r3, #4]
 8005674:	f3c3 4507 	ubfx	r5, r3, #16, #8
 8005678:	f3c3 2404 	ubfx	r4, r3, #8, #5
 800567c:	f003 023f 	and.w	r2, r3, #63	; 0x3f
 8005680:	f3c3 3342 	ubfx	r3, r3, #13, #3
 8005684:	70cd      	strb	r5, [r1, #3]
 8005686:	704c      	strb	r4, [r1, #1]
 8005688:	708a      	strb	r2, [r1, #2]
 800568a:	700b      	strb	r3, [r1, #0]
 800568c:	b9b8      	cbnz	r0, 80056be <RTC_GetDate+0x56>
 800568e:	0920      	lsrs	r0, r4, #4
 8005690:	092e      	lsrs	r6, r5, #4
 8005692:	0913      	lsrs	r3, r2, #4
 8005694:	0087      	lsls	r7, r0, #2
 8005696:	eb06 0686 	add.w	r6, r6, r6, lsl #2
 800569a:	f005 050f 	and.w	r5, r5, #15
 800569e:	1838      	adds	r0, r7, r0
 80056a0:	f004 040f 	and.w	r4, r4, #15
 80056a4:	eb03 0383 	add.w	r3, r3, r3, lsl #2
 80056a8:	f002 020f 	and.w	r2, r2, #15
 80056ac:	eb05 0646 	add.w	r6, r5, r6, lsl #1
 80056b0:	eb04 0040 	add.w	r0, r4, r0, lsl #1
 80056b4:	eb02 0343 	add.w	r3, r2, r3, lsl #1
 80056b8:	70ce      	strb	r6, [r1, #3]
 80056ba:	7048      	strb	r0, [r1, #1]
 80056bc:	708b      	strb	r3, [r1, #2]
 80056be:	bcf0      	pop	{r4, r5, r6, r7}
 80056c0:	4770      	bx	lr
 80056c2:	bf00      	nop

080056c4 <RTC_SetAlarm>:
 80056c4:	f44f 5320 	mov.w	r3, #10240	; 0x2800
 80056c8:	b4f0      	push	{r4, r5, r6, r7}
 80056ca:	f2c4 0300 	movt	r3, #16384	; 0x4000
 80056ce:	2800      	cmp	r0, #0
 80056d0:	d14a      	bne.n	8005768 <RTC_SetAlarm+0xa4>
 80056d2:	689d      	ldr	r5, [r3, #8]
 80056d4:	f015 0540 	ands.w	r5, r5, #64	; 0x40
 80056d8:	bf08      	it	eq
 80056da:	70d5      	strbeq	r5, [r2, #3]
 80056dc:	d001      	beq.n	80056e2 <RTC_SetAlarm+0x1e>
 80056de:	78d5      	ldrb	r5, [r2, #3]
 80056e0:	042d      	lsls	r5, r5, #16
 80056e2:	7810      	ldrb	r0, [r2, #0]
 80056e4:	2600      	movs	r6, #0
 80056e6:	2809      	cmp	r0, #9
 80056e8:	d908      	bls.n	80056fc <RTC_SetAlarm+0x38>
 80056ea:	2300      	movs	r3, #0
 80056ec:	380a      	subs	r0, #10
 80056ee:	b2c0      	uxtb	r0, r0
 80056f0:	3301      	adds	r3, #1
 80056f2:	2809      	cmp	r0, #9
 80056f4:	b2db      	uxtb	r3, r3
 80056f6:	d8f9      	bhi.n	80056ec <RTC_SetAlarm+0x28>
 80056f8:	011b      	lsls	r3, r3, #4
 80056fa:	b2de      	uxtb	r6, r3
 80056fc:	7853      	ldrb	r3, [r2, #1]
 80056fe:	4330      	orrs	r0, r6
 8005700:	0406      	lsls	r6, r0, #16
 8005702:	2400      	movs	r4, #0
 8005704:	2b09      	cmp	r3, #9
 8005706:	d907      	bls.n	8005718 <RTC_SetAlarm+0x54>
 8005708:	3b0a      	subs	r3, #10
 800570a:	b2db      	uxtb	r3, r3
 800570c:	3401      	adds	r4, #1
 800570e:	2b09      	cmp	r3, #9
 8005710:	b2e4      	uxtb	r4, r4
 8005712:	d8f9      	bhi.n	8005708 <RTC_SetAlarm+0x44>
 8005714:	0124      	lsls	r4, r4, #4
 8005716:	b2e4      	uxtb	r4, r4
 8005718:	7890      	ldrb	r0, [r2, #2]
 800571a:	4323      	orrs	r3, r4
 800571c:	021f      	lsls	r7, r3, #8
 800571e:	2400      	movs	r4, #0
 8005720:	2809      	cmp	r0, #9
 8005722:	d907      	bls.n	8005734 <RTC_SetAlarm+0x70>
 8005724:	380a      	subs	r0, #10
 8005726:	b2c0      	uxtb	r0, r0
 8005728:	3401      	adds	r4, #1
 800572a:	2809      	cmp	r0, #9
 800572c:	b2e4      	uxtb	r4, r4
 800572e:	d8f9      	bhi.n	8005724 <RTC_SetAlarm+0x60>
 8005730:	0124      	lsls	r4, r4, #4
 8005732:	b2e4      	uxtb	r4, r4
 8005734:	7b13      	ldrb	r3, [r2, #12]
 8005736:	4320      	orrs	r0, r4
 8005738:	2400      	movs	r4, #0
 800573a:	2b09      	cmp	r3, #9
 800573c:	d907      	bls.n	800574e <RTC_SetAlarm+0x8a>
 800573e:	3b0a      	subs	r3, #10
 8005740:	b2db      	uxtb	r3, r3
 8005742:	3401      	adds	r4, #1
 8005744:	2b09      	cmp	r3, #9
 8005746:	b2e4      	uxtb	r4, r4
 8005748:	d8f9      	bhi.n	800573e <RTC_SetAlarm+0x7a>
 800574a:	0124      	lsls	r4, r4, #4
 800574c:	b2e4      	uxtb	r4, r4
 800574e:	f8d2 c004 	ldr.w	ip, [r2, #4]
 8005752:	6892      	ldr	r2, [r2, #8]
 8005754:	ea4c 0202 	orr.w	r2, ip, r2
 8005758:	4315      	orrs	r5, r2
 800575a:	432e      	orrs	r6, r5
 800575c:	4337      	orrs	r7, r6
 800575e:	4338      	orrs	r0, r7
 8005760:	4323      	orrs	r3, r4
 8005762:	ea40 6303 	orr.w	r3, r0, r3, lsl #24
 8005766:	e016      	b.n	8005796 <RTC_SetAlarm+0xd2>
 8005768:	689b      	ldr	r3, [r3, #8]
 800576a:	f013 0340 	ands.w	r3, r3, #64	; 0x40
 800576e:	bf08      	it	eq
 8005770:	70d3      	strbeq	r3, [r2, #3]
 8005772:	d125      	bne.n	80057c0 <RTC_SetAlarm+0xfc>
 8005774:	f8d2 c004 	ldr.w	ip, [r2, #4]
 8005778:	6897      	ldr	r7, [r2, #8]
 800577a:	7896      	ldrb	r6, [r2, #2]
 800577c:	7815      	ldrb	r5, [r2, #0]
 800577e:	7854      	ldrb	r4, [r2, #1]
 8005780:	7b10      	ldrb	r0, [r2, #12]
 8005782:	ea4c 0207 	orr.w	r2, ip, r7
 8005786:	4332      	orrs	r2, r6
 8005788:	ea42 4205 	orr.w	r2, r2, r5, lsl #16
 800578c:	ea42 2204 	orr.w	r2, r2, r4, lsl #8
 8005790:	ea42 6200 	orr.w	r2, r2, r0, lsl #24
 8005794:	4313      	orrs	r3, r2
 8005796:	f44f 5220 	mov.w	r2, #10240	; 0x2800
 800579a:	f2c4 0200 	movt	r2, #16384	; 0x4000
 800579e:	24ca      	movs	r4, #202	; 0xca
 80057a0:	6254      	str	r4, [r2, #36]	; 0x24
 80057a2:	2453      	movs	r4, #83	; 0x53
 80057a4:	f5b1 7f80 	cmp.w	r1, #256	; 0x100
 80057a8:	6254      	str	r4, [r2, #36]	; 0x24
 80057aa:	bf0c      	ite	eq
 80057ac:	61d3      	streq	r3, [r2, #28]
 80057ae:	6213      	strne	r3, [r2, #32]
 80057b0:	f44f 5320 	mov.w	r3, #10240	; 0x2800
 80057b4:	f2c4 0300 	movt	r3, #16384	; 0x4000
 80057b8:	22ff      	movs	r2, #255	; 0xff
 80057ba:	625a      	str	r2, [r3, #36]	; 0x24
 80057bc:	bcf0      	pop	{r4, r5, r6, r7}
 80057be:	4770      	bx	lr
 80057c0:	78d3      	ldrb	r3, [r2, #3]
 80057c2:	041b      	lsls	r3, r3, #16
 80057c4:	e7d6      	b.n	8005774 <RTC_SetAlarm+0xb0>
 80057c6:	bf00      	nop

080057c8 <RTC_AlarmStructInit>:
 80057c8:	2300      	movs	r3, #0
 80057ca:	2201      	movs	r2, #1
 80057cc:	70c3      	strb	r3, [r0, #3]
 80057ce:	7003      	strb	r3, [r0, #0]
 80057d0:	7043      	strb	r3, [r0, #1]
 80057d2:	7083      	strb	r3, [r0, #2]
 80057d4:	6083      	str	r3, [r0, #8]
 80057d6:	7302      	strb	r2, [r0, #12]
 80057d8:	6043      	str	r3, [r0, #4]
 80057da:	4770      	bx	lr

080057dc <RTC_GetAlarm>:
 80057dc:	f44f 5320 	mov.w	r3, #10240	; 0x2800
 80057e0:	f2c4 0300 	movt	r3, #16384	; 0x4000
 80057e4:	f5b1 7f80 	cmp.w	r1, #256	; 0x100
 80057e8:	bf0c      	ite	eq
 80057ea:	69db      	ldreq	r3, [r3, #28]
 80057ec:	6a1b      	ldrne	r3, [r3, #32]
 80057ee:	f403 0c80 	and.w	ip, r3, #4194304	; 0x400000
 80057f2:	b4f0      	push	{r4, r5, r6, r7}
 80057f4:	f3c3 6105 	ubfx	r1, r3, #24, #6
 80057f8:	f3c3 4605 	ubfx	r6, r3, #16, #6
 80057fc:	f3c3 2506 	ubfx	r5, r3, #8, #7
 8005800:	f003 047f 	and.w	r4, r3, #127	; 0x7f
 8005804:	f003 4780 	and.w	r7, r3, #1073741824	; 0x40000000
 8005808:	ea4f 4c1c 	mov.w	ip, ip, lsr #16
 800580c:	f003 3380 	and.w	r3, r3, #2155905152	; 0x80808080
 8005810:	7016      	strb	r6, [r2, #0]
 8005812:	7055      	strb	r5, [r2, #1]
 8005814:	7094      	strb	r4, [r2, #2]
 8005816:	f882 c003 	strb.w	ip, [r2, #3]
 800581a:	7311      	strb	r1, [r2, #12]
 800581c:	6097      	str	r7, [r2, #8]
 800581e:	6053      	str	r3, [r2, #4]
 8005820:	bb08      	cbnz	r0, 8005866 <RTC_GetAlarm+0x8a>
 8005822:	ea4f 1c16 	mov.w	ip, r6, lsr #4
 8005826:	092f      	lsrs	r7, r5, #4
 8005828:	0920      	lsrs	r0, r4, #4
 800582a:	090b      	lsrs	r3, r1, #4
 800582c:	eb0c 0c8c 	add.w	ip, ip, ip, lsl #2
 8005830:	f006 060f 	and.w	r6, r6, #15
 8005834:	eb07 0787 	add.w	r7, r7, r7, lsl #2
 8005838:	f005 050f 	and.w	r5, r5, #15
 800583c:	eb00 0080 	add.w	r0, r0, r0, lsl #2
 8005840:	f004 040f 	and.w	r4, r4, #15
 8005844:	eb03 0383 	add.w	r3, r3, r3, lsl #2
 8005848:	f001 010f 	and.w	r1, r1, #15
 800584c:	eb06 0c4c 	add.w	ip, r6, ip, lsl #1
 8005850:	eb05 0747 	add.w	r7, r5, r7, lsl #1
 8005854:	eb04 0040 	add.w	r0, r4, r0, lsl #1
 8005858:	eb01 0343 	add.w	r3, r1, r3, lsl #1
 800585c:	f882 c000 	strb.w	ip, [r2]
 8005860:	7057      	strb	r7, [r2, #1]
 8005862:	7090      	strb	r0, [r2, #2]
 8005864:	7313      	strb	r3, [r2, #12]
 8005866:	bcf0      	pop	{r4, r5, r6, r7}
 8005868:	4770      	bx	lr
 800586a:	bf00      	nop

0800586c <RTC_AlarmCmd>:
 800586c:	b082      	sub	sp, #8
 800586e:	f44f 5320 	mov.w	r3, #10240	; 0x2800
 8005872:	f2c4 0300 	movt	r3, #16384	; 0x4000
 8005876:	2200      	movs	r2, #0
 8005878:	9201      	str	r2, [sp, #4]
 800587a:	22ca      	movs	r2, #202	; 0xca
 800587c:	625a      	str	r2, [r3, #36]	; 0x24
 800587e:	2253      	movs	r2, #83	; 0x53
 8005880:	625a      	str	r2, [r3, #36]	; 0x24
 8005882:	689a      	ldr	r2, [r3, #8]
 8005884:	b9f1      	cbnz	r1, 80058c4 <RTC_AlarmCmd+0x58>
 8005886:	ea22 0200 	bic.w	r2, r2, r0
 800588a:	609a      	str	r2, [r3, #8]
 800588c:	0a00      	lsrs	r0, r0, #8
 800588e:	e001      	b.n	8005894 <RTC_AlarmCmd+0x28>
 8005890:	4208      	tst	r0, r1
 8005892:	d107      	bne.n	80058a4 <RTC_AlarmCmd+0x38>
 8005894:	68d9      	ldr	r1, [r3, #12]
 8005896:	9a01      	ldr	r2, [sp, #4]
 8005898:	3201      	adds	r2, #1
 800589a:	9201      	str	r2, [sp, #4]
 800589c:	9a01      	ldr	r2, [sp, #4]
 800589e:	f5b2 3f80 	cmp.w	r2, #65536	; 0x10000
 80058a2:	d1f5      	bne.n	8005890 <RTC_AlarmCmd+0x24>
 80058a4:	f44f 5320 	mov.w	r3, #10240	; 0x2800
 80058a8:	f2c4 0300 	movt	r3, #16384	; 0x4000
 80058ac:	68db      	ldr	r3, [r3, #12]
 80058ae:	4018      	ands	r0, r3
 80058b0:	bf18      	it	ne
 80058b2:	2001      	movne	r0, #1
 80058b4:	f44f 5320 	mov.w	r3, #10240	; 0x2800
 80058b8:	f2c4 0300 	movt	r3, #16384	; 0x4000
 80058bc:	22ff      	movs	r2, #255	; 0xff
 80058be:	625a      	str	r2, [r3, #36]	; 0x24
 80058c0:	b002      	add	sp, #8
 80058c2:	4770      	bx	lr
 80058c4:	4310      	orrs	r0, r2
 80058c6:	6098      	str	r0, [r3, #8]
 80058c8:	2001      	movs	r0, #1
 80058ca:	e7f3      	b.n	80058b4 <RTC_AlarmCmd+0x48>

080058cc <RTC_AlarmSubSecondConfig>:
 80058cc:	f44f 5320 	mov.w	r3, #10240	; 0x2800
 80058d0:	f2c4 0300 	movt	r3, #16384	; 0x4000
 80058d4:	b410      	push	{r4}
 80058d6:	24ca      	movs	r4, #202	; 0xca
 80058d8:	625c      	str	r4, [r3, #36]	; 0x24
 80058da:	430a      	orrs	r2, r1
 80058dc:	2453      	movs	r4, #83	; 0x53
 80058de:	f5b0 7f80 	cmp.w	r0, #256	; 0x100
 80058e2:	625c      	str	r4, [r3, #36]	; 0x24
 80058e4:	bf0c      	ite	eq
 80058e6:	645a      	streq	r2, [r3, #68]	; 0x44
 80058e8:	649a      	strne	r2, [r3, #72]	; 0x48
 80058ea:	f44f 5320 	mov.w	r3, #10240	; 0x2800
 80058ee:	f2c4 0300 	movt	r3, #16384	; 0x4000
 80058f2:	22ff      	movs	r2, #255	; 0xff
 80058f4:	625a      	str	r2, [r3, #36]	; 0x24
 80058f6:	bc10      	pop	{r4}
 80058f8:	4770      	bx	lr
 80058fa:	bf00      	nop

080058fc <RTC_GetAlarmSubSecond>:
 80058fc:	f44f 5320 	mov.w	r3, #10240	; 0x2800
 8005900:	f5b0 7f80 	cmp.w	r0, #256	; 0x100
 8005904:	f2c4 0300 	movt	r3, #16384	; 0x4000
 8005908:	d003      	beq.n	8005912 <RTC_GetAlarmSubSecond+0x16>
 800590a:	6c98      	ldr	r0, [r3, #72]	; 0x48
 800590c:	0440      	lsls	r0, r0, #17
 800590e:	0c40      	lsrs	r0, r0, #17
 8005910:	4770      	bx	lr
 8005912:	6c58      	ldr	r0, [r3, #68]	; 0x44
 8005914:	0440      	lsls	r0, r0, #17
 8005916:	0c40      	lsrs	r0, r0, #17
 8005918:	4770      	bx	lr
 800591a:	bf00      	nop

0800591c <RTC_WakeUpClockConfig>:
 800591c:	f44f 5320 	mov.w	r3, #10240	; 0x2800
 8005920:	f2c4 0300 	movt	r3, #16384	; 0x4000
 8005924:	22ca      	movs	r2, #202	; 0xca
 8005926:	625a      	str	r2, [r3, #36]	; 0x24
 8005928:	2253      	movs	r2, #83	; 0x53
 800592a:	625a      	str	r2, [r3, #36]	; 0x24
 800592c:	689a      	ldr	r2, [r3, #8]
 800592e:	f022 0207 	bic.w	r2, r2, #7
 8005932:	609a      	str	r2, [r3, #8]
 8005934:	689a      	ldr	r2, [r3, #8]
 8005936:	4302      	orrs	r2, r0
 8005938:	609a      	str	r2, [r3, #8]
 800593a:	22ff      	movs	r2, #255	; 0xff
 800593c:	625a      	str	r2, [r3, #36]	; 0x24
 800593e:	4770      	bx	lr

08005940 <RTC_SetWakeUpCounter>:
 8005940:	f44f 5320 	mov.w	r3, #10240	; 0x2800
 8005944:	f2c4 0300 	movt	r3, #16384	; 0x4000
 8005948:	22ca      	movs	r2, #202	; 0xca
 800594a:	625a      	str	r2, [r3, #36]	; 0x24
 800594c:	2253      	movs	r2, #83	; 0x53
 800594e:	625a      	str	r2, [r3, #36]	; 0x24
 8005950:	22ff      	movs	r2, #255	; 0xff
 8005952:	6158      	str	r0, [r3, #20]
 8005954:	625a      	str	r2, [r3, #36]	; 0x24
 8005956:	4770      	bx	lr

08005958 <RTC_GetWakeUpCounter>:
 8005958:	f44f 5320 	mov.w	r3, #10240	; 0x2800
 800595c:	f2c4 0300 	movt	r3, #16384	; 0x4000
 8005960:	6958      	ldr	r0, [r3, #20]
 8005962:	b280      	uxth	r0, r0
 8005964:	4770      	bx	lr
 8005966:	bf00      	nop

08005968 <RTC_WakeUpCmd>:
 8005968:	b082      	sub	sp, #8
 800596a:	f44f 5320 	mov.w	r3, #10240	; 0x2800
 800596e:	f2c4 0300 	movt	r3, #16384	; 0x4000
 8005972:	2200      	movs	r2, #0
 8005974:	9201      	str	r2, [sp, #4]
 8005976:	22ca      	movs	r2, #202	; 0xca
 8005978:	625a      	str	r2, [r3, #36]	; 0x24
 800597a:	2253      	movs	r2, #83	; 0x53
 800597c:	625a      	str	r2, [r3, #36]	; 0x24
 800597e:	689a      	ldr	r2, [r3, #8]
 8005980:	b9e0      	cbnz	r0, 80059bc <RTC_WakeUpCmd+0x54>
 8005982:	f422 6280 	bic.w	r2, r2, #1024	; 0x400
 8005986:	609a      	str	r2, [r3, #8]
 8005988:	e001      	b.n	800598e <RTC_WakeUpCmd+0x26>
 800598a:	074a      	lsls	r2, r1, #29
 800598c:	d407      	bmi.n	800599e <RTC_WakeUpCmd+0x36>
 800598e:	68d9      	ldr	r1, [r3, #12]
 8005990:	9a01      	ldr	r2, [sp, #4]
 8005992:	3201      	adds	r2, #1
 8005994:	9201      	str	r2, [sp, #4]
 8005996:	9a01      	ldr	r2, [sp, #4]
 8005998:	f5b2 3f80 	cmp.w	r2, #65536	; 0x10000
 800599c:	d1f5      	bne.n	800598a <RTC_WakeUpCmd+0x22>
 800599e:	f44f 5320 	mov.w	r3, #10240	; 0x2800
 80059a2:	f2c4 0300 	movt	r3, #16384	; 0x4000
 80059a6:	68d8      	ldr	r0, [r3, #12]
 80059a8:	f3c0 0080 	ubfx	r0, r0, #2, #1
 80059ac:	f44f 5320 	mov.w	r3, #10240	; 0x2800
 80059b0:	f2c4 0300 	movt	r3, #16384	; 0x4000
 80059b4:	22ff      	movs	r2, #255	; 0xff
 80059b6:	625a      	str	r2, [r3, #36]	; 0x24
 80059b8:	b002      	add	sp, #8
 80059ba:	4770      	bx	lr
 80059bc:	f442 6280 	orr.w	r2, r2, #1024	; 0x400
 80059c0:	609a      	str	r2, [r3, #8]
 80059c2:	2001      	movs	r0, #1
 80059c4:	e7f2      	b.n	80059ac <RTC_WakeUpCmd+0x44>
 80059c6:	bf00      	nop

080059c8 <RTC_DayLightSavingConfig>:
 80059c8:	f44f 5320 	mov.w	r3, #10240	; 0x2800
 80059cc:	f2c4 0300 	movt	r3, #16384	; 0x4000
 80059d0:	22ca      	movs	r2, #202	; 0xca
 80059d2:	625a      	str	r2, [r3, #36]	; 0x24
 80059d4:	2253      	movs	r2, #83	; 0x53
 80059d6:	625a      	str	r2, [r3, #36]	; 0x24
 80059d8:	689a      	ldr	r2, [r3, #8]
 80059da:	f422 2280 	bic.w	r2, r2, #262144	; 0x40000
 80059de:	609a      	str	r2, [r3, #8]
 80059e0:	689a      	ldr	r2, [r3, #8]
 80059e2:	4302      	orrs	r2, r0
 80059e4:	430a      	orrs	r2, r1
 80059e6:	609a      	str	r2, [r3, #8]
 80059e8:	22ff      	movs	r2, #255	; 0xff
 80059ea:	625a      	str	r2, [r3, #36]	; 0x24
 80059ec:	4770      	bx	lr
 80059ee:	bf00      	nop

080059f0 <RTC_GetStoreOperation>:
 80059f0:	f44f 5320 	mov.w	r3, #10240	; 0x2800
 80059f4:	f2c4 0300 	movt	r3, #16384	; 0x4000
 80059f8:	6898      	ldr	r0, [r3, #8]
 80059fa:	f400 2080 	and.w	r0, r0, #262144	; 0x40000
 80059fe:	4770      	bx	lr

08005a00 <RTC_OutputConfig>:
 8005a00:	f44f 5320 	mov.w	r3, #10240	; 0x2800
 8005a04:	f2c4 0300 	movt	r3, #16384	; 0x4000
 8005a08:	22ca      	movs	r2, #202	; 0xca
 8005a0a:	625a      	str	r2, [r3, #36]	; 0x24
 8005a0c:	2253      	movs	r2, #83	; 0x53
 8005a0e:	625a      	str	r2, [r3, #36]	; 0x24
 8005a10:	689a      	ldr	r2, [r3, #8]
 8005a12:	f422 02e0 	bic.w	r2, r2, #7340032	; 0x700000
 8005a16:	609a      	str	r2, [r3, #8]
 8005a18:	689a      	ldr	r2, [r3, #8]
 8005a1a:	4302      	orrs	r2, r0
 8005a1c:	430a      	orrs	r2, r1
 8005a1e:	609a      	str	r2, [r3, #8]
 8005a20:	22ff      	movs	r2, #255	; 0xff
 8005a22:	625a      	str	r2, [r3, #36]	; 0x24
 8005a24:	4770      	bx	lr
 8005a26:	bf00      	nop

08005a28 <RTC_CoarseCalibConfig>:
 8005a28:	b410      	push	{r4}
 8005a2a:	f44f 5320 	mov.w	r3, #10240	; 0x2800
 8005a2e:	f2c4 0300 	movt	r3, #16384	; 0x4000
 8005a32:	22ca      	movs	r2, #202	; 0xca
 8005a34:	625a      	str	r2, [r3, #36]	; 0x24
 8005a36:	b083      	sub	sp, #12
 8005a38:	2253      	movs	r2, #83	; 0x53
 8005a3a:	625a      	str	r2, [r3, #36]	; 0x24
 8005a3c:	2200      	movs	r2, #0
 8005a3e:	9201      	str	r2, [sp, #4]
 8005a40:	68da      	ldr	r2, [r3, #12]
 8005a42:	0652      	lsls	r2, r2, #25
 8005a44:	d420      	bmi.n	8005a88 <RTC_CoarseCalibConfig+0x60>
 8005a46:	f04f 32ff 	mov.w	r2, #4294967295	; 0xffffffff
 8005a4a:	60da      	str	r2, [r3, #12]
 8005a4c:	e001      	b.n	8005a52 <RTC_CoarseCalibConfig+0x2a>
 8005a4e:	0662      	lsls	r2, r4, #25
 8005a50:	d407      	bmi.n	8005a62 <RTC_CoarseCalibConfig+0x3a>
 8005a52:	68dc      	ldr	r4, [r3, #12]
 8005a54:	9a01      	ldr	r2, [sp, #4]
 8005a56:	3201      	adds	r2, #1
 8005a58:	9201      	str	r2, [sp, #4]
 8005a5a:	9a01      	ldr	r2, [sp, #4]
 8005a5c:	f5b2 3f80 	cmp.w	r2, #65536	; 0x10000
 8005a60:	d1f5      	bne.n	8005a4e <RTC_CoarseCalibConfig+0x26>
 8005a62:	f44f 5320 	mov.w	r3, #10240	; 0x2800
 8005a66:	f2c4 0300 	movt	r3, #16384	; 0x4000
 8005a6a:	68db      	ldr	r3, [r3, #12]
 8005a6c:	f013 0340 	ands.w	r3, r3, #64	; 0x40
 8005a70:	bf08      	it	eq
 8005a72:	4618      	moveq	r0, r3
 8005a74:	d108      	bne.n	8005a88 <RTC_CoarseCalibConfig+0x60>
 8005a76:	f44f 5320 	mov.w	r3, #10240	; 0x2800
 8005a7a:	f2c4 0300 	movt	r3, #16384	; 0x4000
 8005a7e:	22ff      	movs	r2, #255	; 0xff
 8005a80:	625a      	str	r2, [r3, #36]	; 0x24
 8005a82:	b003      	add	sp, #12
 8005a84:	bc10      	pop	{r4}
 8005a86:	4770      	bx	lr
 8005a88:	f44f 5320 	mov.w	r3, #10240	; 0x2800
 8005a8c:	f2c4 0300 	movt	r3, #16384	; 0x4000
 8005a90:	4308      	orrs	r0, r1
 8005a92:	6198      	str	r0, [r3, #24]
 8005a94:	68da      	ldr	r2, [r3, #12]
 8005a96:	f022 0280 	bic.w	r2, r2, #128	; 0x80
 8005a9a:	60da      	str	r2, [r3, #12]
 8005a9c:	2001      	movs	r0, #1
 8005a9e:	e7ea      	b.n	8005a76 <RTC_CoarseCalibConfig+0x4e>

08005aa0 <RTC_CoarseCalibCmd>:
 8005aa0:	f44f 5320 	mov.w	r3, #10240	; 0x2800
 8005aa4:	f2c4 0300 	movt	r3, #16384	; 0x4000
 8005aa8:	22ca      	movs	r2, #202	; 0xca
 8005aaa:	625a      	str	r2, [r3, #36]	; 0x24
 8005aac:	b082      	sub	sp, #8
 8005aae:	2253      	movs	r2, #83	; 0x53
 8005ab0:	625a      	str	r2, [r3, #36]	; 0x24
 8005ab2:	2200      	movs	r2, #0
 8005ab4:	9201      	str	r2, [sp, #4]
 8005ab6:	68da      	ldr	r2, [r3, #12]
 8005ab8:	0652      	lsls	r2, r2, #25
 8005aba:	d41f      	bmi.n	8005afc <RTC_CoarseCalibCmd+0x5c>
 8005abc:	f04f 32ff 	mov.w	r2, #4294967295	; 0xffffffff
 8005ac0:	60da      	str	r2, [r3, #12]
 8005ac2:	e001      	b.n	8005ac8 <RTC_CoarseCalibCmd+0x28>
 8005ac4:	0649      	lsls	r1, r1, #25
 8005ac6:	d407      	bmi.n	8005ad8 <RTC_CoarseCalibCmd+0x38>
 8005ac8:	68d9      	ldr	r1, [r3, #12]
 8005aca:	9a01      	ldr	r2, [sp, #4]
 8005acc:	3201      	adds	r2, #1
 8005ace:	9201      	str	r2, [sp, #4]
 8005ad0:	9a01      	ldr	r2, [sp, #4]
 8005ad2:	f5b2 3f80 	cmp.w	r2, #65536	; 0x10000
 8005ad6:	d1f5      	bne.n	8005ac4 <RTC_CoarseCalibCmd+0x24>
 8005ad8:	f44f 5320 	mov.w	r3, #10240	; 0x2800
 8005adc:	f2c4 0300 	movt	r3, #16384	; 0x4000
 8005ae0:	68db      	ldr	r3, [r3, #12]
 8005ae2:	f013 0340 	ands.w	r3, r3, #64	; 0x40
 8005ae6:	bf08      	it	eq
 8005ae8:	4618      	moveq	r0, r3
 8005aea:	d107      	bne.n	8005afc <RTC_CoarseCalibCmd+0x5c>
 8005aec:	f44f 5320 	mov.w	r3, #10240	; 0x2800
 8005af0:	f2c4 0300 	movt	r3, #16384	; 0x4000
 8005af4:	22ff      	movs	r2, #255	; 0xff
 8005af6:	625a      	str	r2, [r3, #36]	; 0x24
 8005af8:	b002      	add	sp, #8
 8005afa:	4770      	bx	lr
 8005afc:	f44f 5320 	mov.w	r3, #10240	; 0x2800
 8005b00:	f2c4 0300 	movt	r3, #16384	; 0x4000
 8005b04:	689a      	ldr	r2, [r3, #8]
 8005b06:	b960      	cbnz	r0, 8005b22 <RTC_CoarseCalibCmd+0x82>
 8005b08:	f022 0280 	bic.w	r2, r2, #128	; 0x80
 8005b0c:	609a      	str	r2, [r3, #8]
 8005b0e:	f44f 5320 	mov.w	r3, #10240	; 0x2800
 8005b12:	f2c4 0300 	movt	r3, #16384	; 0x4000
 8005b16:	2001      	movs	r0, #1
 8005b18:	68da      	ldr	r2, [r3, #12]
 8005b1a:	f022 0280 	bic.w	r2, r2, #128	; 0x80
 8005b1e:	60da      	str	r2, [r3, #12]
 8005b20:	e7e4      	b.n	8005aec <RTC_CoarseCalibCmd+0x4c>
 8005b22:	f042 0280 	orr.w	r2, r2, #128	; 0x80
 8005b26:	609a      	str	r2, [r3, #8]
 8005b28:	e7f1      	b.n	8005b0e <RTC_CoarseCalibCmd+0x6e>
 8005b2a:	bf00      	nop

08005b2c <RTC_CalibOutputCmd>:
 8005b2c:	f44f 5320 	mov.w	r3, #10240	; 0x2800
 8005b30:	f2c4 0300 	movt	r3, #16384	; 0x4000
 8005b34:	22ca      	movs	r2, #202	; 0xca
 8005b36:	625a      	str	r2, [r3, #36]	; 0x24
 8005b38:	2253      	movs	r2, #83	; 0x53
 8005b3a:	625a      	str	r2, [r3, #36]	; 0x24
 8005b3c:	689a      	ldr	r2, [r3, #8]
 8005b3e:	b948      	cbnz	r0, 8005b54 <RTC_CalibOutputCmd+0x28>
 8005b40:	f422 0200 	bic.w	r2, r2, #8388608	; 0x800000
 8005b44:	609a      	str	r2, [r3, #8]
 8005b46:	f44f 5320 	mov.w	r3, #10240	; 0x2800
 8005b4a:	f2c4 0300 	movt	r3, #16384	; 0x4000
 8005b4e:	22ff      	movs	r2, #255	; 0xff
 8005b50:	625a      	str	r2, [r3, #36]	; 0x24
 8005b52:	4770      	bx	lr
 8005b54:	f442 0200 	orr.w	r2, r2, #8388608	; 0x800000
 8005b58:	609a      	str	r2, [r3, #8]
 8005b5a:	e7f4      	b.n	8005b46 <RTC_CalibOutputCmd+0x1a>

08005b5c <RTC_CalibOutputConfig>:
 8005b5c:	f44f 5320 	mov.w	r3, #10240	; 0x2800
 8005b60:	f2c4 0300 	movt	r3, #16384	; 0x4000
 8005b64:	22ca      	movs	r2, #202	; 0xca
 8005b66:	625a      	str	r2, [r3, #36]	; 0x24
 8005b68:	2253      	movs	r2, #83	; 0x53
 8005b6a:	625a      	str	r2, [r3, #36]	; 0x24
 8005b6c:	689a      	ldr	r2, [r3, #8]
 8005b6e:	f422 2200 	bic.w	r2, r2, #524288	; 0x80000
 8005b72:	609a      	str	r2, [r3, #8]
 8005b74:	689a      	ldr	r2, [r3, #8]
 8005b76:	4302      	orrs	r2, r0
 8005b78:	609a      	str	r2, [r3, #8]
 8005b7a:	22ff      	movs	r2, #255	; 0xff
 8005b7c:	625a      	str	r2, [r3, #36]	; 0x24
 8005b7e:	4770      	bx	lr

08005b80 <RTC_SmoothCalibConfig>:
 8005b80:	f44f 5320 	mov.w	r3, #10240	; 0x2800
 8005b84:	f2c4 0300 	movt	r3, #16384	; 0x4000
 8005b88:	b430      	push	{r4, r5}
 8005b8a:	24ca      	movs	r4, #202	; 0xca
 8005b8c:	625c      	str	r4, [r3, #36]	; 0x24
 8005b8e:	2453      	movs	r4, #83	; 0x53
 8005b90:	625c      	str	r4, [r3, #36]	; 0x24
 8005b92:	68dc      	ldr	r4, [r3, #12]
 8005b94:	03e4      	lsls	r4, r4, #15
 8005b96:	d50b      	bpl.n	8005bb0 <RTC_SmoothCalibConfig+0x30>
 8005b98:	68dc      	ldr	r4, [r3, #12]
 8005b9a:	03e4      	lsls	r4, r4, #15
 8005b9c:	d508      	bpl.n	8005bb0 <RTC_SmoothCalibConfig+0x30>
 8005b9e:	f44f 3400 	mov.w	r4, #131072	; 0x20000
 8005ba2:	e001      	b.n	8005ba8 <RTC_SmoothCalibConfig+0x28>
 8005ba4:	3c01      	subs	r4, #1
 8005ba6:	d003      	beq.n	8005bb0 <RTC_SmoothCalibConfig+0x30>
 8005ba8:	68dd      	ldr	r5, [r3, #12]
 8005baa:	f415 3f80 	tst.w	r5, #65536	; 0x10000
 8005bae:	d1f9      	bne.n	8005ba4 <RTC_SmoothCalibConfig+0x24>
 8005bb0:	f44f 5320 	mov.w	r3, #10240	; 0x2800
 8005bb4:	f2c4 0300 	movt	r3, #16384	; 0x4000
 8005bb8:	68dc      	ldr	r4, [r3, #12]
 8005bba:	f414 3f80 	tst.w	r4, #65536	; 0x10000
 8005bbe:	d10b      	bne.n	8005bd8 <RTC_SmoothCalibConfig+0x58>
 8005bc0:	4308      	orrs	r0, r1
 8005bc2:	4302      	orrs	r2, r0
 8005bc4:	63da      	str	r2, [r3, #60]	; 0x3c
 8005bc6:	2001      	movs	r0, #1
 8005bc8:	f44f 5320 	mov.w	r3, #10240	; 0x2800
 8005bcc:	f2c4 0300 	movt	r3, #16384	; 0x4000
 8005bd0:	22ff      	movs	r2, #255	; 0xff
 8005bd2:	625a      	str	r2, [r3, #36]	; 0x24
 8005bd4:	bc30      	pop	{r4, r5}
 8005bd6:	4770      	bx	lr
 8005bd8:	2000      	movs	r0, #0
 8005bda:	e7f5      	b.n	8005bc8 <RTC_SmoothCalibConfig+0x48>

08005bdc <RTC_TimeStampCmd>:
 8005bdc:	f44f 5320 	mov.w	r3, #10240	; 0x2800
 8005be0:	f2c4 0300 	movt	r3, #16384	; 0x4000
 8005be4:	689b      	ldr	r3, [r3, #8]
 8005be6:	f423 6300 	bic.w	r3, r3, #2048	; 0x800
 8005bea:	f023 0308 	bic.w	r3, r3, #8
 8005bee:	b961      	cbnz	r1, 8005c0a <RTC_TimeStampCmd+0x2e>
 8005bf0:	4318      	orrs	r0, r3
 8005bf2:	f44f 5220 	mov.w	r2, #10240	; 0x2800
 8005bf6:	f2c4 0200 	movt	r2, #16384	; 0x4000
 8005bfa:	23ca      	movs	r3, #202	; 0xca
 8005bfc:	6253      	str	r3, [r2, #36]	; 0x24
 8005bfe:	2353      	movs	r3, #83	; 0x53
 8005c00:	6253      	str	r3, [r2, #36]	; 0x24
 8005c02:	23ff      	movs	r3, #255	; 0xff
 8005c04:	6090      	str	r0, [r2, #8]
 8005c06:	6253      	str	r3, [r2, #36]	; 0x24
 8005c08:	4770      	bx	lr
 8005c0a:	f443 6300 	orr.w	r3, r3, #2048	; 0x800
 8005c0e:	4318      	orrs	r0, r3
 8005c10:	e7ef      	b.n	8005bf2 <RTC_TimeStampCmd+0x16>
 8005c12:	bf00      	nop

08005c14 <RTC_GetTimeStamp>:
 8005c14:	f44f 5320 	mov.w	r3, #10240	; 0x2800
 8005c18:	f2c4 0300 	movt	r3, #16384	; 0x4000
 8005c1c:	e92d 01f0 	stmdb	sp!, {r4, r5, r6, r7, r8}
 8005c20:	6b1c      	ldr	r4, [r3, #48]	; 0x30
 8005c22:	6b5b      	ldr	r3, [r3, #52]	; 0x34
 8005c24:	f404 0780 	and.w	r7, r4, #4194304	; 0x400000
 8005c28:	f3c4 4805 	ubfx	r8, r4, #16, #6
 8005c2c:	f3c4 2c06 	ubfx	ip, r4, #8, #7
 8005c30:	f004 047f 	and.w	r4, r4, #127	; 0x7f
 8005c34:	708c      	strb	r4, [r1, #2]
 8005c36:	f3c3 2604 	ubfx	r6, r3, #8, #5
 8005c3a:	f003 053f 	and.w	r5, r3, #63	; 0x3f
 8005c3e:	0c3f      	lsrs	r7, r7, #16
 8005c40:	f3c3 3342 	ubfx	r3, r3, #13, #3
 8005c44:	2400      	movs	r4, #0
 8005c46:	f881 8000 	strb.w	r8, [r1]
 8005c4a:	f881 c001 	strb.w	ip, [r1, #1]
 8005c4e:	70cf      	strb	r7, [r1, #3]
 8005c50:	70d4      	strb	r4, [r2, #3]
 8005c52:	7056      	strb	r6, [r2, #1]
 8005c54:	7095      	strb	r5, [r2, #2]
 8005c56:	7013      	strb	r3, [r2, #0]
 8005c58:	2800      	cmp	r0, #0
 8005c5a:	d135      	bne.n	8005cc8 <RTC_GetTimeStamp+0xb4>
 8005c5c:	780e      	ldrb	r6, [r1, #0]
 8005c5e:	784c      	ldrb	r4, [r1, #1]
 8005c60:	788b      	ldrb	r3, [r1, #2]
 8005c62:	0937      	lsrs	r7, r6, #4
 8005c64:	0925      	lsrs	r5, r4, #4
 8005c66:	0918      	lsrs	r0, r3, #4
 8005c68:	f006 060f 	and.w	r6, r6, #15
 8005c6c:	f004 040f 	and.w	r4, r4, #15
 8005c70:	f003 030f 	and.w	r3, r3, #15
 8005c74:	eb07 0787 	add.w	r7, r7, r7, lsl #2
 8005c78:	eb05 0585 	add.w	r5, r5, r5, lsl #2
 8005c7c:	eb00 0080 	add.w	r0, r0, r0, lsl #2
 8005c80:	eb04 0545 	add.w	r5, r4, r5, lsl #1
 8005c84:	eb03 0040 	add.w	r0, r3, r0, lsl #1
 8005c88:	eb06 0747 	add.w	r7, r6, r7, lsl #1
 8005c8c:	700f      	strb	r7, [r1, #0]
 8005c8e:	704d      	strb	r5, [r1, #1]
 8005c90:	7088      	strb	r0, [r1, #2]
 8005c92:	7855      	ldrb	r5, [r2, #1]
 8005c94:	7890      	ldrb	r0, [r2, #2]
 8005c96:	7813      	ldrb	r3, [r2, #0]
 8005c98:	092e      	lsrs	r6, r5, #4
 8005c9a:	0904      	lsrs	r4, r0, #4
 8005c9c:	0919      	lsrs	r1, r3, #4
 8005c9e:	eb06 0686 	add.w	r6, r6, r6, lsl #2
 8005ca2:	f005 050f 	and.w	r5, r5, #15
 8005ca6:	eb04 0484 	add.w	r4, r4, r4, lsl #2
 8005caa:	f000 000f 	and.w	r0, r0, #15
 8005cae:	eb01 0181 	add.w	r1, r1, r1, lsl #2
 8005cb2:	f003 030f 	and.w	r3, r3, #15
 8005cb6:	eb05 0646 	add.w	r6, r5, r6, lsl #1
 8005cba:	eb00 0444 	add.w	r4, r0, r4, lsl #1
 8005cbe:	eb03 0141 	add.w	r1, r3, r1, lsl #1
 8005cc2:	7056      	strb	r6, [r2, #1]
 8005cc4:	7094      	strb	r4, [r2, #2]
 8005cc6:	7011      	strb	r1, [r2, #0]
 8005cc8:	e8bd 01f0 	ldmia.w	sp!, {r4, r5, r6, r7, r8}
 8005ccc:	4770      	bx	lr
 8005cce:	bf00      	nop

08005cd0 <RTC_GetTimeStampSubSecond>:
 8005cd0:	f44f 5320 	mov.w	r3, #10240	; 0x2800
 8005cd4:	f2c4 0300 	movt	r3, #16384	; 0x4000
 8005cd8:	6b98      	ldr	r0, [r3, #56]	; 0x38
 8005cda:	4770      	bx	lr

08005cdc <RTC_TamperTriggerConfig>:
 8005cdc:	f44f 5320 	mov.w	r3, #10240	; 0x2800
 8005ce0:	f2c4 0300 	movt	r3, #16384	; 0x4000
 8005ce4:	6c1a      	ldr	r2, [r3, #64]	; 0x40
 8005ce6:	b119      	cbz	r1, 8005cf0 <RTC_TamperTriggerConfig+0x14>
 8005ce8:	ea42 0040 	orr.w	r0, r2, r0, lsl #1
 8005cec:	6418      	str	r0, [r3, #64]	; 0x40
 8005cee:	4770      	bx	lr
 8005cf0:	ea22 0040 	bic.w	r0, r2, r0, lsl #1
 8005cf4:	6418      	str	r0, [r3, #64]	; 0x40
 8005cf6:	4770      	bx	lr

08005cf8 <RTC_TamperCmd>:
 8005cf8:	f44f 5320 	mov.w	r3, #10240	; 0x2800
 8005cfc:	f2c4 0300 	movt	r3, #16384	; 0x4000
 8005d00:	6c1a      	ldr	r2, [r3, #64]	; 0x40
 8005d02:	b919      	cbnz	r1, 8005d0c <RTC_TamperCmd+0x14>
 8005d04:	ea22 0000 	bic.w	r0, r2, r0
 8005d08:	6418      	str	r0, [r3, #64]	; 0x40
 8005d0a:	4770      	bx	lr
 8005d0c:	4310      	orrs	r0, r2
 8005d0e:	6418      	str	r0, [r3, #64]	; 0x40
 8005d10:	4770      	bx	lr
 8005d12:	bf00      	nop

08005d14 <RTC_TamperFilterConfig>:
 8005d14:	f44f 5320 	mov.w	r3, #10240	; 0x2800
 8005d18:	f2c4 0300 	movt	r3, #16384	; 0x4000
 8005d1c:	6c1a      	ldr	r2, [r3, #64]	; 0x40
 8005d1e:	f422 52c0 	bic.w	r2, r2, #6144	; 0x1800
 8005d22:	641a      	str	r2, [r3, #64]	; 0x40
 8005d24:	6c1a      	ldr	r2, [r3, #64]	; 0x40
 8005d26:	4302      	orrs	r2, r0
 8005d28:	641a      	str	r2, [r3, #64]	; 0x40
 8005d2a:	4770      	bx	lr

08005d2c <RTC_TamperSamplingFreqConfig>:
 8005d2c:	f44f 5320 	mov.w	r3, #10240	; 0x2800
 8005d30:	f2c4 0300 	movt	r3, #16384	; 0x4000
 8005d34:	6c1a      	ldr	r2, [r3, #64]	; 0x40
 8005d36:	f422 62e0 	bic.w	r2, r2, #1792	; 0x700
 8005d3a:	641a      	str	r2, [r3, #64]	; 0x40
 8005d3c:	6c1a      	ldr	r2, [r3, #64]	; 0x40
 8005d3e:	4302      	orrs	r2, r0
 8005d40:	641a      	str	r2, [r3, #64]	; 0x40
 8005d42:	4770      	bx	lr

08005d44 <RTC_TamperPinsPrechargeDuration>:
 8005d44:	f44f 5320 	mov.w	r3, #10240	; 0x2800
 8005d48:	f2c4 0300 	movt	r3, #16384	; 0x4000
 8005d4c:	6c1a      	ldr	r2, [r3, #64]	; 0x40
 8005d4e:	f422 42c0 	bic.w	r2, r2, #24576	; 0x6000
 8005d52:	641a      	str	r2, [r3, #64]	; 0x40
 8005d54:	6c1a      	ldr	r2, [r3, #64]	; 0x40
 8005d56:	4302      	orrs	r2, r0
 8005d58:	641a      	str	r2, [r3, #64]	; 0x40
 8005d5a:	4770      	bx	lr

08005d5c <RTC_TimeStampOnTamperDetectionCmd>:
 8005d5c:	f44f 5320 	mov.w	r3, #10240	; 0x2800
 8005d60:	f2c4 0300 	movt	r3, #16384	; 0x4000
 8005d64:	6c1a      	ldr	r2, [r3, #64]	; 0x40
 8005d66:	b918      	cbnz	r0, 8005d70 <RTC_TimeStampOnTamperDetectionCmd+0x14>
 8005d68:	f022 0280 	bic.w	r2, r2, #128	; 0x80
 8005d6c:	641a      	str	r2, [r3, #64]	; 0x40
 8005d6e:	4770      	bx	lr
 8005d70:	f042 0280 	orr.w	r2, r2, #128	; 0x80
 8005d74:	641a      	str	r2, [r3, #64]	; 0x40
 8005d76:	4770      	bx	lr

08005d78 <RTC_TamperPullUpCmd>:
 8005d78:	f44f 5320 	mov.w	r3, #10240	; 0x2800
 8005d7c:	f2c4 0300 	movt	r3, #16384	; 0x4000
 8005d80:	6c1a      	ldr	r2, [r3, #64]	; 0x40
 8005d82:	b918      	cbnz	r0, 8005d8c <RTC_TamperPullUpCmd+0x14>
 8005d84:	f442 4200 	orr.w	r2, r2, #32768	; 0x8000
 8005d88:	641a      	str	r2, [r3, #64]	; 0x40
 8005d8a:	4770      	bx	lr
 8005d8c:	f422 4200 	bic.w	r2, r2, #32768	; 0x8000
 8005d90:	641a      	str	r2, [r3, #64]	; 0x40
 8005d92:	4770      	bx	lr

08005d94 <RTC_WriteBackupRegister>:
 8005d94:	b082      	sub	sp, #8
 8005d96:	f642 0350 	movw	r3, #10320	; 0x2850
 8005d9a:	f2c4 0300 	movt	r3, #16384	; 0x4000
 8005d9e:	2200      	movs	r2, #0
 8005da0:	9201      	str	r2, [sp, #4]
 8005da2:	9301      	str	r3, [sp, #4]
 8005da4:	9b01      	ldr	r3, [sp, #4]
 8005da6:	eb03 0380 	add.w	r3, r3, r0, lsl #2
 8005daa:	9301      	str	r3, [sp, #4]
 8005dac:	9b01      	ldr	r3, [sp, #4]
 8005dae:	6019      	str	r1, [r3, #0]
 8005db0:	b002      	add	sp, #8
 8005db2:	4770      	bx	lr

08005db4 <RTC_ReadBackupRegister>:
 8005db4:	b082      	sub	sp, #8
 8005db6:	f642 0350 	movw	r3, #10320	; 0x2850
 8005dba:	f2c4 0300 	movt	r3, #16384	; 0x4000
 8005dbe:	2200      	movs	r2, #0
 8005dc0:	9201      	str	r2, [sp, #4]
 8005dc2:	9301      	str	r3, [sp, #4]
 8005dc4:	9b01      	ldr	r3, [sp, #4]
 8005dc6:	eb03 0380 	add.w	r3, r3, r0, lsl #2
 8005dca:	9301      	str	r3, [sp, #4]
 8005dcc:	9b01      	ldr	r3, [sp, #4]
 8005dce:	6818      	ldr	r0, [r3, #0]
 8005dd0:	b002      	add	sp, #8
 8005dd2:	4770      	bx	lr

08005dd4 <RTC_TamperPinSelection>:
 8005dd4:	f44f 5320 	mov.w	r3, #10240	; 0x2800
 8005dd8:	f2c4 0300 	movt	r3, #16384	; 0x4000
 8005ddc:	6c1a      	ldr	r2, [r3, #64]	; 0x40
 8005dde:	f422 3280 	bic.w	r2, r2, #65536	; 0x10000
 8005de2:	641a      	str	r2, [r3, #64]	; 0x40
 8005de4:	6c1a      	ldr	r2, [r3, #64]	; 0x40
 8005de6:	4302      	orrs	r2, r0
 8005de8:	641a      	str	r2, [r3, #64]	; 0x40
 8005dea:	4770      	bx	lr

08005dec <RTC_TimeStampPinSelection>:
 8005dec:	f44f 5320 	mov.w	r3, #10240	; 0x2800
 8005df0:	f2c4 0300 	movt	r3, #16384	; 0x4000
 8005df4:	6c1a      	ldr	r2, [r3, #64]	; 0x40
 8005df6:	f422 3200 	bic.w	r2, r2, #131072	; 0x20000
 8005dfa:	641a      	str	r2, [r3, #64]	; 0x40
 8005dfc:	6c1a      	ldr	r2, [r3, #64]	; 0x40
 8005dfe:	4302      	orrs	r2, r0
 8005e00:	641a      	str	r2, [r3, #64]	; 0x40
 8005e02:	4770      	bx	lr

08005e04 <RTC_OutputTypeConfig>:
 8005e04:	f44f 5320 	mov.w	r3, #10240	; 0x2800
 8005e08:	f2c4 0300 	movt	r3, #16384	; 0x4000
 8005e0c:	6c1a      	ldr	r2, [r3, #64]	; 0x40
 8005e0e:	f422 2280 	bic.w	r2, r2, #262144	; 0x40000
 8005e12:	641a      	str	r2, [r3, #64]	; 0x40
 8005e14:	6c1a      	ldr	r2, [r3, #64]	; 0x40
 8005e16:	4302      	orrs	r2, r0
 8005e18:	641a      	str	r2, [r3, #64]	; 0x40
 8005e1a:	4770      	bx	lr

08005e1c <RTC_SynchroShiftConfig>:
 8005e1c:	f44f 5320 	mov.w	r3, #10240	; 0x2800
 8005e20:	f2c4 0300 	movt	r3, #16384	; 0x4000
 8005e24:	22ca      	movs	r2, #202	; 0xca
 8005e26:	b410      	push	{r4}
 8005e28:	625a      	str	r2, [r3, #36]	; 0x24
 8005e2a:	2253      	movs	r2, #83	; 0x53
 8005e2c:	625a      	str	r2, [r3, #36]	; 0x24
 8005e2e:	68da      	ldr	r2, [r3, #12]
 8005e30:	0712      	lsls	r2, r2, #28
 8005e32:	b083      	sub	sp, #12
 8005e34:	d50b      	bpl.n	8005e4e <RTC_SynchroShiftConfig+0x32>
 8005e36:	68da      	ldr	r2, [r3, #12]
 8005e38:	0712      	lsls	r2, r2, #28
 8005e3a:	d508      	bpl.n	8005e4e <RTC_SynchroShiftConfig+0x32>
 8005e3c:	f44f 5280 	mov.w	r2, #4096	; 0x1000
 8005e40:	e001      	b.n	8005e46 <RTC_SynchroShiftConfig+0x2a>
 8005e42:	3a01      	subs	r2, #1
 8005e44:	d003      	beq.n	8005e4e <RTC_SynchroShiftConfig+0x32>
 8005e46:	68dc      	ldr	r4, [r3, #12]
 8005e48:	f014 0f08 	tst.w	r4, #8
 8005e4c:	d1f9      	bne.n	8005e42 <RTC_SynchroShiftConfig+0x26>
 8005e4e:	f44f 5320 	mov.w	r3, #10240	; 0x2800
 8005e52:	f2c4 0300 	movt	r3, #16384	; 0x4000
 8005e56:	68da      	ldr	r2, [r3, #12]
 8005e58:	f012 0208 	ands.w	r2, r2, #8
 8005e5c:	d131      	bne.n	8005ec2 <RTC_SynchroShiftConfig+0xa6>
 8005e5e:	689c      	ldr	r4, [r3, #8]
 8005e60:	f014 0410 	ands.w	r4, r4, #16
 8005e64:	bf18      	it	ne
 8005e66:	4610      	movne	r0, r2
 8005e68:	d008      	beq.n	8005e7c <RTC_SynchroShiftConfig+0x60>
 8005e6a:	f44f 5320 	mov.w	r3, #10240	; 0x2800
 8005e6e:	f2c4 0300 	movt	r3, #16384	; 0x4000
 8005e72:	21ff      	movs	r1, #255	; 0xff
 8005e74:	6259      	str	r1, [r3, #36]	; 0x24
 8005e76:	b003      	add	sp, #12
 8005e78:	bc10      	pop	{r4}
 8005e7a:	4770      	bx	lr
 8005e7c:	4301      	orrs	r1, r0
 8005e7e:	22ca      	movs	r2, #202	; 0xca
 8005e80:	62d9      	str	r1, [r3, #44]	; 0x2c
 8005e82:	9401      	str	r4, [sp, #4]
 8005e84:	625a      	str	r2, [r3, #36]	; 0x24
 8005e86:	2253      	movs	r2, #83	; 0x53
 8005e88:	625a      	str	r2, [r3, #36]	; 0x24
 8005e8a:	68da      	ldr	r2, [r3, #12]
 8005e8c:	f022 02a0 	bic.w	r2, r2, #160	; 0xa0
 8005e90:	60da      	str	r2, [r3, #12]
 8005e92:	4619      	mov	r1, r3
 8005e94:	e001      	b.n	8005e9a <RTC_SynchroShiftConfig+0x7e>
 8005e96:	0693      	lsls	r3, r2, #26
 8005e98:	d407      	bmi.n	8005eaa <RTC_SynchroShiftConfig+0x8e>
 8005e9a:	68ca      	ldr	r2, [r1, #12]
 8005e9c:	9b01      	ldr	r3, [sp, #4]
 8005e9e:	3301      	adds	r3, #1
 8005ea0:	9301      	str	r3, [sp, #4]
 8005ea2:	9b01      	ldr	r3, [sp, #4]
 8005ea4:	f5b3 3f00 	cmp.w	r3, #131072	; 0x20000
 8005ea8:	d1f5      	bne.n	8005e96 <RTC_SynchroShiftConfig+0x7a>
 8005eaa:	f44f 5320 	mov.w	r3, #10240	; 0x2800
 8005eae:	f2c4 0300 	movt	r3, #16384	; 0x4000
 8005eb2:	22ff      	movs	r2, #255	; 0xff
 8005eb4:	68d8      	ldr	r0, [r3, #12]
 8005eb6:	625a      	str	r2, [r3, #36]	; 0x24
 8005eb8:	f010 0020 	ands.w	r0, r0, #32
 8005ebc:	d0d5      	beq.n	8005e6a <RTC_SynchroShiftConfig+0x4e>
 8005ebe:	2001      	movs	r0, #1
 8005ec0:	e7d3      	b.n	8005e6a <RTC_SynchroShiftConfig+0x4e>
 8005ec2:	2000      	movs	r0, #0
 8005ec4:	e7d1      	b.n	8005e6a <RTC_SynchroShiftConfig+0x4e>
 8005ec6:	bf00      	nop

08005ec8 <RTC_ITConfig>:
 8005ec8:	f44f 5320 	mov.w	r3, #10240	; 0x2800
 8005ecc:	f2c4 0300 	movt	r3, #16384	; 0x4000
 8005ed0:	22ca      	movs	r2, #202	; 0xca
 8005ed2:	625a      	str	r2, [r3, #36]	; 0x24
 8005ed4:	2253      	movs	r2, #83	; 0x53
 8005ed6:	625a      	str	r2, [r3, #36]	; 0x24
 8005ed8:	689a      	ldr	r2, [r3, #8]
 8005eda:	b989      	cbnz	r1, 8005f00 <RTC_ITConfig+0x38>
 8005edc:	f020 0104 	bic.w	r1, r0, #4
 8005ee0:	ea22 0201 	bic.w	r2, r2, r1
 8005ee4:	609a      	str	r2, [r3, #8]
 8005ee6:	6c1a      	ldr	r2, [r3, #64]	; 0x40
 8005ee8:	f000 0004 	and.w	r0, r0, #4
 8005eec:	ea22 0000 	bic.w	r0, r2, r0
 8005ef0:	6418      	str	r0, [r3, #64]	; 0x40
 8005ef2:	f44f 5320 	mov.w	r3, #10240	; 0x2800
 8005ef6:	f2c4 0300 	movt	r3, #16384	; 0x4000
 8005efa:	22ff      	movs	r2, #255	; 0xff
 8005efc:	625a      	str	r2, [r3, #36]	; 0x24
 8005efe:	4770      	bx	lr
 8005f00:	f020 0104 	bic.w	r1, r0, #4
 8005f04:	430a      	orrs	r2, r1
 8005f06:	609a      	str	r2, [r3, #8]
 8005f08:	6c1a      	ldr	r2, [r3, #64]	; 0x40
 8005f0a:	f000 0004 	and.w	r0, r0, #4
 8005f0e:	4310      	orrs	r0, r2
 8005f10:	6418      	str	r0, [r3, #64]	; 0x40
 8005f12:	e7ee      	b.n	8005ef2 <RTC_ITConfig+0x2a>

08005f14 <RTC_GetFlagStatus>:
 8005f14:	f44f 5220 	mov.w	r2, #10240	; 0x2800
 8005f18:	f2c4 0200 	movt	r2, #16384	; 0x4000
 8005f1c:	f643 7377 	movw	r3, #16247	; 0x3f77
 8005f20:	68d2      	ldr	r2, [r2, #12]
 8005f22:	4013      	ands	r3, r2
 8005f24:	4203      	tst	r3, r0
 8005f26:	bf0c      	ite	eq
 8005f28:	2000      	moveq	r0, #0
 8005f2a:	2001      	movne	r0, #1
 8005f2c:	4770      	bx	lr
 8005f2e:	bf00      	nop

08005f30 <RTC_ClearFlag>:
 8005f30:	f44f 5320 	mov.w	r3, #10240	; 0x2800
 8005f34:	f2c4 0300 	movt	r3, #16384	; 0x4000
 8005f38:	b282      	uxth	r2, r0
 8005f3a:	68d9      	ldr	r1, [r3, #12]
 8005f3c:	f042 0280 	orr.w	r2, r2, #128	; 0x80
 8005f40:	f001 0180 	and.w	r1, r1, #128	; 0x80
 8005f44:	ea61 0202 	orn	r2, r1, r2
 8005f48:	60da      	str	r2, [r3, #12]
 8005f4a:	4770      	bx	lr

08005f4c <RTC_GetITStatus>:
 8005f4c:	f44f 5320 	mov.w	r3, #10240	; 0x2800
 8005f50:	f2c4 0300 	movt	r3, #16384	; 0x4000
 8005f54:	b410      	push	{r4}
 8005f56:	6c1a      	ldr	r2, [r3, #64]	; 0x40
 8005f58:	6899      	ldr	r1, [r3, #8]
 8005f5a:	68dc      	ldr	r4, [r3, #12]
 8005f5c:	f002 0204 	and.w	r2, r2, #4
 8005f60:	ea02 32d0 	and.w	r2, r2, r0, lsr #15
 8005f64:	ea00 0301 	and.w	r3, r0, r1
 8005f68:	4313      	orrs	r3, r2
 8005f6a:	bf08      	it	eq
 8005f6c:	4618      	moveq	r0, r3
 8005f6e:	d005      	beq.n	8005f7c <RTC_GetITStatus+0x30>
 8005f70:	b2a4      	uxth	r4, r4
 8005f72:	ea14 1410 	ands.w	r4, r4, r0, lsr #4
 8005f76:	bf0c      	ite	eq
 8005f78:	2000      	moveq	r0, #0
 8005f7a:	2001      	movne	r0, #1
 8005f7c:	bc10      	pop	{r4}
 8005f7e:	4770      	bx	lr

08005f80 <RTC_ClearITPendingBit>:
 8005f80:	f44f 5320 	mov.w	r3, #10240	; 0x2800
 8005f84:	f2c4 0300 	movt	r3, #16384	; 0x4000
 8005f88:	f3c0 120f 	ubfx	r2, r0, #4, #16
 8005f8c:	68d9      	ldr	r1, [r3, #12]
 8005f8e:	f042 0280 	orr.w	r2, r2, #128	; 0x80
 8005f92:	f001 0180 	and.w	r1, r1, #128	; 0x80
 8005f96:	ea61 0202 	orn	r2, r1, r2
 8005f9a:	60da      	str	r2, [r3, #12]
 8005f9c:	4770      	bx	lr
 8005f9e:	bf00      	nop

08005fa0 <SDIO_DeInit>:
 8005fa0:	b508      	push	{r3, lr}
 8005fa2:	2101      	movs	r1, #1
 8005fa4:	f44f 6000 	mov.w	r0, #2048	; 0x800
 8005fa8:	f7fe ff5c 	bl	8004e64 <RCC_APB2PeriphResetCmd>
 8005fac:	f44f 6000 	mov.w	r0, #2048	; 0x800
 8005fb0:	2100      	movs	r1, #0
 8005fb2:	e8bd 4008 	ldmia.w	sp!, {r3, lr}
 8005fb6:	f7fe bf55 	b.w	8004e64 <RCC_APB2PeriphResetCmd>
 8005fba:	bf00      	nop

08005fbc <SDIO_Init>:
 8005fbc:	b4f0      	push	{r4, r5, r6, r7}
 8005fbe:	f44f 5330 	mov.w	r3, #11264	; 0x2c00
 8005fc2:	f8d0 c004 	ldr.w	ip, [r0, #4]
 8005fc6:	6882      	ldr	r2, [r0, #8]
 8005fc8:	68c7      	ldr	r7, [r0, #12]
 8005fca:	6806      	ldr	r6, [r0, #0]
 8005fcc:	6904      	ldr	r4, [r0, #16]
 8005fce:	7d01      	ldrb	r1, [r0, #20]
 8005fd0:	f2c4 0301 	movt	r3, #16385	; 0x4001
 8005fd4:	ea4c 0202 	orr.w	r2, ip, r2
 8005fd8:	685d      	ldr	r5, [r3, #4]
 8005fda:	433a      	orrs	r2, r7
 8005fdc:	4332      	orrs	r2, r6
 8005fde:	f425 40fd 	bic.w	r0, r5, #32384	; 0x7e80
 8005fe2:	4322      	orrs	r2, r4
 8005fe4:	f020 007f 	bic.w	r0, r0, #127	; 0x7f
 8005fe8:	4302      	orrs	r2, r0
 8005fea:	430a      	orrs	r2, r1
 8005fec:	605a      	str	r2, [r3, #4]
 8005fee:	bcf0      	pop	{r4, r5, r6, r7}
 8005ff0:	4770      	bx	lr
 8005ff2:	bf00      	nop

08005ff4 <SDIO_StructInit>:
 8005ff4:	2300      	movs	r3, #0
 8005ff6:	7503      	strb	r3, [r0, #20]
 8005ff8:	6003      	str	r3, [r0, #0]
 8005ffa:	6043      	str	r3, [r0, #4]
 8005ffc:	6083      	str	r3, [r0, #8]
 8005ffe:	60c3      	str	r3, [r0, #12]
 8006000:	6103      	str	r3, [r0, #16]
 8006002:	4770      	bx	lr

08006004 <SDIO_ClockCmd>:
 8006004:	f248 03a0 	movw	r3, #32928	; 0x80a0
 8006008:	f2c4 2325 	movt	r3, #16933	; 0x4225
 800600c:	6018      	str	r0, [r3, #0]
 800600e:	4770      	bx	lr

08006010 <SDIO_SetPowerState>:
 8006010:	f44f 5330 	mov.w	r3, #11264	; 0x2c00
 8006014:	f2c4 0301 	movt	r3, #16385	; 0x4001
 8006018:	6018      	str	r0, [r3, #0]
 800601a:	4770      	bx	lr

0800601c <SDIO_GetPowerState>:
 800601c:	f44f 5330 	mov.w	r3, #11264	; 0x2c00
 8006020:	f2c4 0301 	movt	r3, #16385	; 0x4001
 8006024:	6818      	ldr	r0, [r3, #0]
 8006026:	f000 0003 	and.w	r0, r0, #3
 800602a:	4770      	bx	lr

0800602c <SDIO_SendCommand>:
 800602c:	f44f 5330 	mov.w	r3, #11264	; 0x2c00
 8006030:	6802      	ldr	r2, [r0, #0]
 8006032:	f2c4 0301 	movt	r3, #16385	; 0x4001
 8006036:	b430      	push	{r4, r5}
 8006038:	609a      	str	r2, [r3, #8]
 800603a:	6885      	ldr	r5, [r0, #8]
 800603c:	6842      	ldr	r2, [r0, #4]
 800603e:	68c4      	ldr	r4, [r0, #12]
 8006040:	68d9      	ldr	r1, [r3, #12]
 8006042:	6900      	ldr	r0, [r0, #16]
 8006044:	432a      	orrs	r2, r5
 8006046:	f421 61ff 	bic.w	r1, r1, #2040	; 0x7f8
 800604a:	4322      	orrs	r2, r4
 800604c:	f021 0107 	bic.w	r1, r1, #7
 8006050:	4302      	orrs	r2, r0
 8006052:	430a      	orrs	r2, r1
 8006054:	60da      	str	r2, [r3, #12]
 8006056:	bc30      	pop	{r4, r5}
 8006058:	4770      	bx	lr
 800605a:	bf00      	nop

0800605c <SDIO_CmdStructInit>:
 800605c:	2300      	movs	r3, #0
 800605e:	6003      	str	r3, [r0, #0]
 8006060:	6043      	str	r3, [r0, #4]
 8006062:	6083      	str	r3, [r0, #8]
 8006064:	60c3      	str	r3, [r0, #12]
 8006066:	6103      	str	r3, [r0, #16]
 8006068:	4770      	bx	lr
 800606a:	bf00      	nop

0800606c <SDIO_GetCommandResponse>:
 800606c:	f44f 5330 	mov.w	r3, #11264	; 0x2c00
 8006070:	f2c4 0301 	movt	r3, #16385	; 0x4001
 8006074:	6918      	ldr	r0, [r3, #16]
 8006076:	b2c0      	uxtb	r0, r0
 8006078:	4770      	bx	lr
 800607a:	bf00      	nop

0800607c <SDIO_GetResponse>:
 800607c:	f642 4314 	movw	r3, #11284	; 0x2c14
 8006080:	b082      	sub	sp, #8
 8006082:	f2c4 0301 	movt	r3, #16385	; 0x4001
 8006086:	18c3      	adds	r3, r0, r3
 8006088:	2200      	movs	r2, #0
 800608a:	9201      	str	r2, [sp, #4]
 800608c:	9301      	str	r3, [sp, #4]
 800608e:	9b01      	ldr	r3, [sp, #4]
 8006090:	6818      	ldr	r0, [r3, #0]
 8006092:	b002      	add	sp, #8
 8006094:	4770      	bx	lr
 8006096:	bf00      	nop

08006098 <SDIO_DataConfig>:
 8006098:	f44f 5330 	mov.w	r3, #11264	; 0x2c00
 800609c:	6802      	ldr	r2, [r0, #0]
 800609e:	f2c4 0301 	movt	r3, #16385	; 0x4001
 80060a2:	b430      	push	{r4, r5}
 80060a4:	625a      	str	r2, [r3, #36]	; 0x24
 80060a6:	6842      	ldr	r2, [r0, #4]
 80060a8:	629a      	str	r2, [r3, #40]	; 0x28
 80060aa:	68c5      	ldr	r5, [r0, #12]
 80060ac:	6882      	ldr	r2, [r0, #8]
 80060ae:	6904      	ldr	r4, [r0, #16]
 80060b0:	6ad9      	ldr	r1, [r3, #44]	; 0x2c
 80060b2:	6940      	ldr	r0, [r0, #20]
 80060b4:	432a      	orrs	r2, r5
 80060b6:	4322      	orrs	r2, r4
 80060b8:	f021 01f7 	bic.w	r1, r1, #247	; 0xf7
 80060bc:	4302      	orrs	r2, r0
 80060be:	430a      	orrs	r2, r1
 80060c0:	62da      	str	r2, [r3, #44]	; 0x2c
 80060c2:	bc30      	pop	{r4, r5}
 80060c4:	4770      	bx	lr
 80060c6:	bf00      	nop

080060c8 <SDIO_DataStructInit>:
 80060c8:	2300      	movs	r3, #0
 80060ca:	f04f 32ff 	mov.w	r2, #4294967295	; 0xffffffff
 80060ce:	e880 000c 	stmia.w	r0, {r2, r3}
 80060d2:	6083      	str	r3, [r0, #8]
 80060d4:	60c3      	str	r3, [r0, #12]
 80060d6:	6103      	str	r3, [r0, #16]
 80060d8:	6143      	str	r3, [r0, #20]
 80060da:	4770      	bx	lr

080060dc <SDIO_GetDataCounter>:
 80060dc:	f44f 5330 	mov.w	r3, #11264	; 0x2c00
 80060e0:	f2c4 0301 	movt	r3, #16385	; 0x4001
 80060e4:	6b18      	ldr	r0, [r3, #48]	; 0x30
 80060e6:	4770      	bx	lr

080060e8 <SDIO_ReadData>:
 80060e8:	f44f 5330 	mov.w	r3, #11264	; 0x2c00
 80060ec:	f2c4 0301 	movt	r3, #16385	; 0x4001
 80060f0:	f8d3 0080 	ldr.w	r0, [r3, #128]	; 0x80
 80060f4:	4770      	bx	lr
 80060f6:	bf00      	nop

080060f8 <SDIO_WriteData>:
 80060f8:	f44f 5330 	mov.w	r3, #11264	; 0x2c00
 80060fc:	f2c4 0301 	movt	r3, #16385	; 0x4001
 8006100:	f8c3 0080 	str.w	r0, [r3, #128]	; 0x80
 8006104:	4770      	bx	lr
 8006106:	bf00      	nop

08006108 <SDIO_GetFIFOCount>:
 8006108:	f44f 5330 	mov.w	r3, #11264	; 0x2c00
 800610c:	f2c4 0301 	movt	r3, #16385	; 0x4001
 8006110:	6c98      	ldr	r0, [r3, #72]	; 0x48
 8006112:	4770      	bx	lr

08006114 <SDIO_StartSDIOReadWait>:
 8006114:	f248 53a0 	movw	r3, #34208	; 0x85a0
 8006118:	f2c4 2325 	movt	r3, #16933	; 0x4225
 800611c:	6018      	str	r0, [r3, #0]
 800611e:	4770      	bx	lr

08006120 <SDIO_StopSDIOReadWait>:
 8006120:	f248 53a4 	movw	r3, #34212	; 0x85a4
 8006124:	f2c4 2325 	movt	r3, #16933	; 0x4225
 8006128:	6018      	str	r0, [r3, #0]
 800612a:	4770      	bx	lr

0800612c <SDIO_SetSDIOReadWaitMode>:
 800612c:	f248 53a8 	movw	r3, #34216	; 0x85a8
 8006130:	f2c4 2325 	movt	r3, #16933	; 0x4225
 8006134:	6018      	str	r0, [r3, #0]
 8006136:	4770      	bx	lr

08006138 <SDIO_SetSDIOOperation>:
 8006138:	f248 53ac 	movw	r3, #34220	; 0x85ac
 800613c:	f2c4 2325 	movt	r3, #16933	; 0x4225
 8006140:	6018      	str	r0, [r3, #0]
 8006142:	4770      	bx	lr

08006144 <SDIO_SendSDIOSuspendCmd>:
 8006144:	f248 13ac 	movw	r3, #33196	; 0x81ac
 8006148:	f2c4 2325 	movt	r3, #16933	; 0x4225
 800614c:	6018      	str	r0, [r3, #0]
 800614e:	4770      	bx	lr

08006150 <SDIO_CommandCompletionCmd>:
 8006150:	f248 13b0 	movw	r3, #33200	; 0x81b0
 8006154:	f2c4 2325 	movt	r3, #16933	; 0x4225
 8006158:	6018      	str	r0, [r3, #0]
 800615a:	4770      	bx	lr

0800615c <SDIO_CEATAITCmd>:
 800615c:	f248 13b4 	movw	r3, #33204	; 0x81b4
 8006160:	f000 0001 	and.w	r0, r0, #1
 8006164:	f2c4 2325 	movt	r3, #16933	; 0x4225
 8006168:	f080 0001 	eor.w	r0, r0, #1
 800616c:	6018      	str	r0, [r3, #0]
 800616e:	4770      	bx	lr

08006170 <SDIO_SendCEATACmd>:
 8006170:	f248 13b8 	movw	r3, #33208	; 0x81b8
 8006174:	f2c4 2325 	movt	r3, #16933	; 0x4225
 8006178:	6018      	str	r0, [r3, #0]
 800617a:	4770      	bx	lr

0800617c <SDIO_DMACmd>:
 800617c:	f248 538c 	movw	r3, #34188	; 0x858c
 8006180:	f2c4 2325 	movt	r3, #16933	; 0x4225
 8006184:	6018      	str	r0, [r3, #0]
 8006186:	4770      	bx	lr

08006188 <SDIO_ITConfig>:
 8006188:	f44f 5330 	mov.w	r3, #11264	; 0x2c00
 800618c:	f2c4 0301 	movt	r3, #16385	; 0x4001
 8006190:	6bda      	ldr	r2, [r3, #60]	; 0x3c
 8006192:	b919      	cbnz	r1, 800619c <SDIO_ITConfig+0x14>
 8006194:	ea22 0000 	bic.w	r0, r2, r0
 8006198:	63d8      	str	r0, [r3, #60]	; 0x3c
 800619a:	4770      	bx	lr
 800619c:	4310      	orrs	r0, r2
 800619e:	63d8      	str	r0, [r3, #60]	; 0x3c
 80061a0:	4770      	bx	lr
 80061a2:	bf00      	nop

080061a4 <SDIO_GetFlagStatus>:
 80061a4:	f44f 5330 	mov.w	r3, #11264	; 0x2c00
 80061a8:	f2c4 0301 	movt	r3, #16385	; 0x4001
 80061ac:	6b5b      	ldr	r3, [r3, #52]	; 0x34
 80061ae:	4218      	tst	r0, r3
 80061b0:	bf0c      	ite	eq
 80061b2:	2000      	moveq	r0, #0
 80061b4:	2001      	movne	r0, #1
 80061b6:	4770      	bx	lr

080061b8 <SDIO_ClearFlag>:
 80061b8:	f44f 5330 	mov.w	r3, #11264	; 0x2c00
 80061bc:	f2c4 0301 	movt	r3, #16385	; 0x4001
 80061c0:	6398      	str	r0, [r3, #56]	; 0x38
 80061c2:	4770      	bx	lr

080061c4 <SDIO_GetITStatus>:
 80061c4:	f44f 5330 	mov.w	r3, #11264	; 0x2c00
 80061c8:	f2c4 0301 	movt	r3, #16385	; 0x4001
 80061cc:	6b5b      	ldr	r3, [r3, #52]	; 0x34
 80061ce:	4218      	tst	r0, r3
 80061d0:	bf0c      	ite	eq
 80061d2:	2000      	moveq	r0, #0
 80061d4:	2001      	movne	r0, #1
 80061d6:	4770      	bx	lr

080061d8 <SDIO_ClearITPendingBit>:
 80061d8:	f44f 5330 	mov.w	r3, #11264	; 0x2c00
 80061dc:	f2c4 0301 	movt	r3, #16385	; 0x4001
 80061e0:	6398      	str	r0, [r3, #56]	; 0x38
 80061e2:	4770      	bx	lr

080061e4 <SPI_I2S_DeInit>:
 80061e4:	b508      	push	{r3, lr}
 80061e6:	f44f 5340 	mov.w	r3, #12288	; 0x3000
 80061ea:	f2c4 0301 	movt	r3, #16385	; 0x4001
 80061ee:	4298      	cmp	r0, r3
 80061f0:	d018      	beq.n	8006224 <SPI_I2S_DeInit+0x40>
 80061f2:	f44f 5360 	mov.w	r3, #14336	; 0x3800
 80061f6:	f2c4 0300 	movt	r3, #16384	; 0x4000
 80061fa:	4298      	cmp	r0, r3
 80061fc:	d01e      	beq.n	800623c <SPI_I2S_DeInit+0x58>
 80061fe:	f44f 5370 	mov.w	r3, #15360	; 0x3c00
 8006202:	f2c4 0300 	movt	r3, #16384	; 0x4000
 8006206:	4298      	cmp	r0, r3
 8006208:	d000      	beq.n	800620c <SPI_I2S_DeInit+0x28>
 800620a:	bd08      	pop	{r3, pc}
 800620c:	2101      	movs	r1, #1
 800620e:	f44f 4000 	mov.w	r0, #32768	; 0x8000
 8006212:	f7fe fe19 	bl	8004e48 <RCC_APB1PeriphResetCmd>
 8006216:	f44f 4000 	mov.w	r0, #32768	; 0x8000
 800621a:	2100      	movs	r1, #0
 800621c:	e8bd 4008 	ldmia.w	sp!, {r3, lr}
 8006220:	f7fe be12 	b.w	8004e48 <RCC_APB1PeriphResetCmd>
 8006224:	2101      	movs	r1, #1
 8006226:	f44f 5080 	mov.w	r0, #4096	; 0x1000
 800622a:	f7fe fe1b 	bl	8004e64 <RCC_APB2PeriphResetCmd>
 800622e:	f44f 5080 	mov.w	r0, #4096	; 0x1000
 8006232:	2100      	movs	r1, #0
 8006234:	e8bd 4008 	ldmia.w	sp!, {r3, lr}
 8006238:	f7fe be14 	b.w	8004e64 <RCC_APB2PeriphResetCmd>
 800623c:	2101      	movs	r1, #1
 800623e:	f44f 4080 	mov.w	r0, #16384	; 0x4000
 8006242:	f7fe fe01 	bl	8004e48 <RCC_APB1PeriphResetCmd>
 8006246:	f44f 4080 	mov.w	r0, #16384	; 0x4000
 800624a:	2100      	movs	r1, #0
 800624c:	e8bd 4008 	ldmia.w	sp!, {r3, lr}
 8006250:	f7fe bdfa 	b.w	8004e48 <RCC_APB1PeriphResetCmd>

08006254 <SPI_Init>:
 8006254:	e92d 07f0 	stmdb	sp!, {r4, r5, r6, r7, r8, r9, sl}
 8006258:	880b      	ldrh	r3, [r1, #0]
 800625a:	f8b1 a002 	ldrh.w	sl, [r1, #2]
 800625e:	f8b1 9004 	ldrh.w	r9, [r1, #4]
 8006262:	f8b1 8006 	ldrh.w	r8, [r1, #6]
 8006266:	f8b1 c008 	ldrh.w	ip, [r1, #8]
 800626a:	894f      	ldrh	r7, [r1, #10]
 800626c:	898e      	ldrh	r6, [r1, #12]
 800626e:	8805      	ldrh	r5, [r0, #0]
 8006270:	89cc      	ldrh	r4, [r1, #14]
 8006272:	8a0a      	ldrh	r2, [r1, #16]
 8006274:	ea4a 0303 	orr.w	r3, sl, r3
 8006278:	ea43 0309 	orr.w	r3, r3, r9
 800627c:	ea43 0308 	orr.w	r3, r3, r8
 8006280:	ea43 030c 	orr.w	r3, r3, ip
 8006284:	433b      	orrs	r3, r7
 8006286:	4333      	orrs	r3, r6
 8006288:	f405 5141 	and.w	r1, r5, #12352	; 0x3040
 800628c:	4323      	orrs	r3, r4
 800628e:	430b      	orrs	r3, r1
 8006290:	b29b      	uxth	r3, r3
 8006292:	8003      	strh	r3, [r0, #0]
 8006294:	8b83      	ldrh	r3, [r0, #28]
 8006296:	f423 6300 	bic.w	r3, r3, #2048	; 0x800
 800629a:	041b      	lsls	r3, r3, #16
 800629c:	0c1b      	lsrs	r3, r3, #16
 800629e:	8383      	strh	r3, [r0, #28]
 80062a0:	8202      	strh	r2, [r0, #16]
 80062a2:	e8bd 07f0 	ldmia.w	sp!, {r4, r5, r6, r7, r8, r9, sl}
 80062a6:	4770      	bx	lr

080062a8 <I2S_Init>:
 80062a8:	8b83      	ldrh	r3, [r0, #28]
 80062aa:	688a      	ldr	r2, [r1, #8]
 80062ac:	f423 637b 	bic.w	r3, r3, #4016	; 0xfb0
 80062b0:	f023 030f 	bic.w	r3, r3, #15
 80062b4:	041b      	lsls	r3, r3, #16
 80062b6:	0c1b      	lsrs	r3, r3, #16
 80062b8:	8383      	strh	r3, [r0, #28]
 80062ba:	2302      	movs	r3, #2
 80062bc:	8403      	strh	r3, [r0, #32]
 80062be:	e92d 03f0 	stmdb	sp!, {r4, r5, r6, r7, r8, r9}
 80062c2:	8b86      	ldrh	r6, [r0, #28]
 80062c4:	429a      	cmp	r2, r3
 80062c6:	b2b6      	uxth	r6, r6
 80062c8:	d05b      	beq.n	8006382 <I2S_Init+0xda>
 80062ca:	f44f 5360 	mov.w	r3, #14336	; 0x3800
 80062ce:	f2c4 0302 	movt	r3, #16386	; 0x4002
 80062d2:	888c      	ldrh	r4, [r1, #4]
 80062d4:	689d      	ldr	r5, [r3, #8]
 80062d6:	2c00      	cmp	r4, #0
 80062d8:	bf0c      	ite	eq
 80062da:	f04f 0820 	moveq.w	r8, #32
 80062de:	f04f 0840 	movne.w	r8, #64	; 0x40
 80062e2:	022d      	lsls	r5, r5, #8
 80062e4:	bf42      	ittt	mi
 80062e6:	689d      	ldrmi	r5, [r3, #8]
 80062e8:	f425 0500 	bicmi.w	r5, r5, #8388608	; 0x800000
 80062ec:	609d      	strmi	r5, [r3, #8]
 80062ee:	f44f 5360 	mov.w	r3, #14336	; 0x3800
 80062f2:	f2c4 0302 	movt	r3, #16386	; 0x4002
 80062f6:	f44f 5590 	mov.w	r5, #4608	; 0x1200
 80062fa:	f8d3 c084 	ldr.w	ip, [r3, #132]	; 0x84
 80062fe:	f8d3 7084 	ldr.w	r7, [r3, #132]	; 0x84
 8006302:	f8d3 9004 	ldr.w	r9, [r3, #4]
 8006306:	88cb      	ldrh	r3, [r1, #6]
 8006308:	f009 093f 	and.w	r9, r9, #63	; 0x3f
 800630c:	f2c0 057a 	movt	r5, #122	; 0x7a
 8006310:	fbb5 f5f9 	udiv	r5, r5, r9
 8006314:	f3cc 1c88 	ubfx	ip, ip, #6, #9
 8006318:	fb0c fc05 	mul.w	ip, ip, r5
 800631c:	f3c7 7702 	ubfx	r7, r7, #28, #3
 8006320:	f5b3 7f00 	cmp.w	r3, #512	; 0x200
 8006324:	fbbc f7f7 	udiv	r7, ip, r7
 8006328:	d02e      	beq.n	8006388 <I2S_Init+0xe0>
 800632a:	fbb7 f5f8 	udiv	r5, r7, r8
 800632e:	eb05 0585 	add.w	r5, r5, r5, lsl #2
 8006332:	006d      	lsls	r5, r5, #1
 8006334:	fbb5 f2f2 	udiv	r2, r5, r2
 8006338:	3205      	adds	r2, #5
 800633a:	b292      	uxth	r2, r2
 800633c:	f64c 45cd 	movw	r5, #52429	; 0xcccd
 8006340:	f6cc 45cc 	movt	r5, #52428	; 0xcccc
 8006344:	fba5 7202 	umull	r7, r2, r5, r2
 8006348:	08d2      	lsrs	r2, r2, #3
 800634a:	0855      	lsrs	r5, r2, #1
 800634c:	1eaf      	subs	r7, r5, #2
 800634e:	f002 0201 	and.w	r2, r2, #1
 8006352:	2ffd      	cmp	r7, #253	; 0xfd
 8006354:	bf94      	ite	ls
 8006356:	ea45 2202 	orrls.w	r2, r5, r2, lsl #8
 800635a:	2202      	movhi	r2, #2
 800635c:	f8b1 c000 	ldrh.w	ip, [r1]
 8006360:	884f      	ldrh	r7, [r1, #2]
 8006362:	898d      	ldrh	r5, [r1, #12]
 8006364:	ea46 010c 	orr.w	r1, r6, ip
 8006368:	f441 6100 	orr.w	r1, r1, #2048	; 0x800
 800636c:	4339      	orrs	r1, r7
 800636e:	4329      	orrs	r1, r5
 8006370:	4313      	orrs	r3, r2
 8006372:	b289      	uxth	r1, r1
 8006374:	b29b      	uxth	r3, r3
 8006376:	430c      	orrs	r4, r1
 8006378:	8403      	strh	r3, [r0, #32]
 800637a:	8384      	strh	r4, [r0, #28]
 800637c:	e8bd 03f0 	ldmia.w	sp!, {r4, r5, r6, r7, r8, r9}
 8006380:	4770      	bx	lr
 8006382:	888c      	ldrh	r4, [r1, #4]
 8006384:	88cb      	ldrh	r3, [r1, #6]
 8006386:	e7e9      	b.n	800635c <I2S_Init+0xb4>
 8006388:	0a3f      	lsrs	r7, r7, #8
 800638a:	eb07 0787 	add.w	r7, r7, r7, lsl #2
 800638e:	007f      	lsls	r7, r7, #1
 8006390:	fbb7 f2f2 	udiv	r2, r7, r2
 8006394:	3205      	adds	r2, #5
 8006396:	b292      	uxth	r2, r2
 8006398:	e7d0      	b.n	800633c <I2S_Init+0x94>
 800639a:	bf00      	nop

0800639c <SPI_StructInit>:
 800639c:	2300      	movs	r3, #0
 800639e:	8003      	strh	r3, [r0, #0]
 80063a0:	8043      	strh	r3, [r0, #2]
 80063a2:	8083      	strh	r3, [r0, #4]
 80063a4:	80c3      	strh	r3, [r0, #6]
 80063a6:	8103      	strh	r3, [r0, #8]
 80063a8:	8143      	strh	r3, [r0, #10]
 80063aa:	8183      	strh	r3, [r0, #12]
 80063ac:	81c3      	strh	r3, [r0, #14]
 80063ae:	2307      	movs	r3, #7
 80063b0:	8203      	strh	r3, [r0, #16]
 80063b2:	4770      	bx	lr

080063b4 <I2S_StructInit>:
 80063b4:	2300      	movs	r3, #0
 80063b6:	2202      	movs	r2, #2
 80063b8:	8003      	strh	r3, [r0, #0]
 80063ba:	8043      	strh	r3, [r0, #2]
 80063bc:	8083      	strh	r3, [r0, #4]
 80063be:	80c3      	strh	r3, [r0, #6]
 80063c0:	6082      	str	r2, [r0, #8]
 80063c2:	8183      	strh	r3, [r0, #12]
 80063c4:	4770      	bx	lr
 80063c6:	bf00      	nop

080063c8 <SPI_Cmd>:
 80063c8:	8803      	ldrh	r3, [r0, #0]
 80063ca:	b929      	cbnz	r1, 80063d8 <SPI_Cmd+0x10>
 80063cc:	f023 0340 	bic.w	r3, r3, #64	; 0x40
 80063d0:	041b      	lsls	r3, r3, #16
 80063d2:	0c1b      	lsrs	r3, r3, #16
 80063d4:	8003      	strh	r3, [r0, #0]
 80063d6:	4770      	bx	lr
 80063d8:	b29b      	uxth	r3, r3
 80063da:	f043 0340 	orr.w	r3, r3, #64	; 0x40
 80063de:	8003      	strh	r3, [r0, #0]
 80063e0:	4770      	bx	lr
 80063e2:	bf00      	nop

080063e4 <I2S_Cmd>:
 80063e4:	8b83      	ldrh	r3, [r0, #28]
 80063e6:	b929      	cbnz	r1, 80063f4 <I2S_Cmd+0x10>
 80063e8:	f423 6380 	bic.w	r3, r3, #1024	; 0x400
 80063ec:	041b      	lsls	r3, r3, #16
 80063ee:	0c1b      	lsrs	r3, r3, #16
 80063f0:	8383      	strh	r3, [r0, #28]
 80063f2:	4770      	bx	lr
 80063f4:	b29b      	uxth	r3, r3
 80063f6:	f443 6380 	orr.w	r3, r3, #1024	; 0x400
 80063fa:	8383      	strh	r3, [r0, #28]
 80063fc:	4770      	bx	lr
 80063fe:	bf00      	nop

08006400 <SPI_DataSizeConfig>:
 8006400:	8803      	ldrh	r3, [r0, #0]
 8006402:	f423 6300 	bic.w	r3, r3, #2048	; 0x800
 8006406:	041b      	lsls	r3, r3, #16
 8006408:	0c1b      	lsrs	r3, r3, #16
 800640a:	8003      	strh	r3, [r0, #0]
 800640c:	8803      	ldrh	r3, [r0, #0]
 800640e:	b29b      	uxth	r3, r3
 8006410:	430b      	orrs	r3, r1
 8006412:	8003      	strh	r3, [r0, #0]
 8006414:	4770      	bx	lr
 8006416:	bf00      	nop

08006418 <SPI_BiDirectionalLineConfig>:
 8006418:	f5b1 4f80 	cmp.w	r1, #16384	; 0x4000
 800641c:	8803      	ldrh	r3, [r0, #0]
 800641e:	d005      	beq.n	800642c <SPI_BiDirectionalLineConfig+0x14>
 8006420:	f423 4380 	bic.w	r3, r3, #16384	; 0x4000
 8006424:	041b      	lsls	r3, r3, #16
 8006426:	0c1b      	lsrs	r3, r3, #16
 8006428:	8003      	strh	r3, [r0, #0]
 800642a:	4770      	bx	lr
 800642c:	b29b      	uxth	r3, r3
 800642e:	f443 4380 	orr.w	r3, r3, #16384	; 0x4000
 8006432:	8003      	strh	r3, [r0, #0]
 8006434:	4770      	bx	lr
 8006436:	bf00      	nop

08006438 <SPI_NSSInternalSoftwareConfig>:
 8006438:	f64f 63ff 	movw	r3, #65279	; 0xfeff
 800643c:	4299      	cmp	r1, r3
 800643e:	8803      	ldrh	r3, [r0, #0]
 8006440:	d004      	beq.n	800644c <SPI_NSSInternalSoftwareConfig+0x14>
 8006442:	b29b      	uxth	r3, r3
 8006444:	f443 7380 	orr.w	r3, r3, #256	; 0x100
 8006448:	8003      	strh	r3, [r0, #0]
 800644a:	4770      	bx	lr
 800644c:	f423 7380 	bic.w	r3, r3, #256	; 0x100
 8006450:	041b      	lsls	r3, r3, #16
 8006452:	0c1b      	lsrs	r3, r3, #16
 8006454:	8003      	strh	r3, [r0, #0]
 8006456:	4770      	bx	lr

08006458 <SPI_SSOutputCmd>:
 8006458:	8883      	ldrh	r3, [r0, #4]
 800645a:	b929      	cbnz	r1, 8006468 <SPI_SSOutputCmd+0x10>
 800645c:	f023 0304 	bic.w	r3, r3, #4
 8006460:	041b      	lsls	r3, r3, #16
 8006462:	0c1b      	lsrs	r3, r3, #16
 8006464:	8083      	strh	r3, [r0, #4]
 8006466:	4770      	bx	lr
 8006468:	b29b      	uxth	r3, r3
 800646a:	f043 0304 	orr.w	r3, r3, #4
 800646e:	8083      	strh	r3, [r0, #4]
 8006470:	4770      	bx	lr
 8006472:	bf00      	nop

08006474 <SPI_TIModeCmd>:
 8006474:	8883      	ldrh	r3, [r0, #4]
 8006476:	b929      	cbnz	r1, 8006484 <SPI_TIModeCmd+0x10>
 8006478:	f023 0310 	bic.w	r3, r3, #16
 800647c:	041b      	lsls	r3, r3, #16
 800647e:	0c1b      	lsrs	r3, r3, #16
 8006480:	8083      	strh	r3, [r0, #4]
 8006482:	4770      	bx	lr
 8006484:	b29b      	uxth	r3, r3
 8006486:	f043 0310 	orr.w	r3, r3, #16
 800648a:	8083      	strh	r3, [r0, #4]
 800648c:	4770      	bx	lr
 800648e:	bf00      	nop

08006490 <I2S_FullDuplexConfig>:
 8006490:	8b83      	ldrh	r3, [r0, #28]
 8006492:	898a      	ldrh	r2, [r1, #12]
 8006494:	f423 637b 	bic.w	r3, r3, #4016	; 0xfb0
 8006498:	f023 030f 	bic.w	r3, r3, #15
 800649c:	041b      	lsls	r3, r3, #16
 800649e:	0c1b      	lsrs	r3, r3, #16
 80064a0:	8383      	strh	r3, [r0, #28]
 80064a2:	2302      	movs	r3, #2
 80064a4:	8403      	strh	r3, [r0, #32]
 80064a6:	b470      	push	{r4, r5, r6}
 80064a8:	8b86      	ldrh	r6, [r0, #28]
 80064aa:	884d      	ldrh	r5, [r1, #2]
 80064ac:	880b      	ldrh	r3, [r1, #0]
 80064ae:	888c      	ldrh	r4, [r1, #4]
 80064b0:	b2b1      	uxth	r1, r6
 80064b2:	4329      	orrs	r1, r5
 80064b4:	f441 6100 	orr.w	r1, r1, #2048	; 0x800
 80064b8:	f5b3 7f00 	cmp.w	r3, #512	; 0x200
 80064bc:	bf18      	it	ne
 80064be:	2b00      	cmpne	r3, #0
 80064c0:	ea41 0104 	orr.w	r1, r1, r4
 80064c4:	bf14      	ite	ne
 80064c6:	2300      	movne	r3, #0
 80064c8:	2301      	moveq	r3, #1
 80064ca:	ea41 0102 	orr.w	r1, r1, r2
 80064ce:	bf14      	ite	ne
 80064d0:	461a      	movne	r2, r3
 80064d2:	f44f 7280 	moveq.w	r2, #256	; 0x100
 80064d6:	b28b      	uxth	r3, r1
 80064d8:	4313      	orrs	r3, r2
 80064da:	8383      	strh	r3, [r0, #28]
 80064dc:	bc70      	pop	{r4, r5, r6}
 80064de:	4770      	bx	lr

080064e0 <SPI_I2S_ReceiveData>:
 80064e0:	8980      	ldrh	r0, [r0, #12]
 80064e2:	b280      	uxth	r0, r0
 80064e4:	4770      	bx	lr
 80064e6:	bf00      	nop

080064e8 <SPI_I2S_SendData>:
 80064e8:	8181      	strh	r1, [r0, #12]
 80064ea:	4770      	bx	lr

080064ec <SPI_CalculateCRC>:
 80064ec:	8803      	ldrh	r3, [r0, #0]
 80064ee:	b929      	cbnz	r1, 80064fc <SPI_CalculateCRC+0x10>
 80064f0:	f423 5300 	bic.w	r3, r3, #8192	; 0x2000
 80064f4:	041b      	lsls	r3, r3, #16
 80064f6:	0c1b      	lsrs	r3, r3, #16
 80064f8:	8003      	strh	r3, [r0, #0]
 80064fa:	4770      	bx	lr
 80064fc:	b29b      	uxth	r3, r3
 80064fe:	f443 5300 	orr.w	r3, r3, #8192	; 0x2000
 8006502:	8003      	strh	r3, [r0, #0]
 8006504:	4770      	bx	lr
 8006506:	bf00      	nop

08006508 <SPI_TransmitCRC>:
 8006508:	8803      	ldrh	r3, [r0, #0]
 800650a:	b29b      	uxth	r3, r3
 800650c:	f443 5380 	orr.w	r3, r3, #4096	; 0x1000
 8006510:	8003      	strh	r3, [r0, #0]
 8006512:	4770      	bx	lr

08006514 <SPI_GetCRC>:
 8006514:	2901      	cmp	r1, #1
 8006516:	bf15      	itete	ne
 8006518:	8b00      	ldrhne	r0, [r0, #24]
 800651a:	8a80      	ldrheq	r0, [r0, #20]
 800651c:	b280      	uxthne	r0, r0
 800651e:	b280      	uxtheq	r0, r0
 8006520:	4770      	bx	lr
 8006522:	bf00      	nop

08006524 <SPI_GetCRCPolynomial>:
 8006524:	8a00      	ldrh	r0, [r0, #16]
 8006526:	b280      	uxth	r0, r0
 8006528:	4770      	bx	lr
 800652a:	bf00      	nop

0800652c <SPI_I2S_DMACmd>:
 800652c:	8883      	ldrh	r3, [r0, #4]
 800652e:	b29b      	uxth	r3, r3
 8006530:	b91a      	cbnz	r2, 800653a <SPI_I2S_DMACmd+0xe>
 8006532:	ea23 0101 	bic.w	r1, r3, r1
 8006536:	8081      	strh	r1, [r0, #4]
 8006538:	4770      	bx	lr
 800653a:	4319      	orrs	r1, r3
 800653c:	8081      	strh	r1, [r0, #4]
 800653e:	4770      	bx	lr

08006540 <SPI_I2S_ITConfig>:
 8006540:	2301      	movs	r3, #1
 8006542:	0909      	lsrs	r1, r1, #4
 8006544:	fa13 f101 	lsls.w	r1, r3, r1
 8006548:	8883      	ldrh	r3, [r0, #4]
 800654a:	b289      	uxth	r1, r1
 800654c:	b29b      	uxth	r3, r3
 800654e:	b91a      	cbnz	r2, 8006558 <SPI_I2S_ITConfig+0x18>
 8006550:	ea23 0101 	bic.w	r1, r3, r1
 8006554:	8081      	strh	r1, [r0, #4]
 8006556:	4770      	bx	lr
 8006558:	4319      	orrs	r1, r3
 800655a:	8081      	strh	r1, [r0, #4]
 800655c:	4770      	bx	lr
 800655e:	bf00      	nop

08006560 <SPI_I2S_GetFlagStatus>:
 8006560:	8903      	ldrh	r3, [r0, #8]
 8006562:	4219      	tst	r1, r3
 8006564:	bf0c      	ite	eq
 8006566:	2000      	moveq	r0, #0
 8006568:	2001      	movne	r0, #1
 800656a:	4770      	bx	lr

0800656c <SPI_I2S_ClearFlag>:
 800656c:	43c9      	mvns	r1, r1
 800656e:	b289      	uxth	r1, r1
 8006570:	8101      	strh	r1, [r0, #8]
 8006572:	4770      	bx	lr

08006574 <SPI_I2S_GetITStatus>:
 8006574:	b410      	push	{r4}
 8006576:	8884      	ldrh	r4, [r0, #4]
 8006578:	8900      	ldrh	r0, [r0, #8]
 800657a:	2201      	movs	r2, #1
 800657c:	f001 030f 	and.w	r3, r1, #15
 8006580:	b280      	uxth	r0, r0
 8006582:	fa12 f303 	lsls.w	r3, r2, r3
 8006586:	4018      	ands	r0, r3
 8006588:	b2a4      	uxth	r4, r4
 800658a:	d005      	beq.n	8006598 <SPI_I2S_GetITStatus+0x24>
 800658c:	0909      	lsrs	r1, r1, #4
 800658e:	408a      	lsls	r2, r1
 8006590:	4214      	tst	r4, r2
 8006592:	bf0c      	ite	eq
 8006594:	2000      	moveq	r0, #0
 8006596:	2001      	movne	r0, #1
 8006598:	bc10      	pop	{r4}
 800659a:	4770      	bx	lr

0800659c <SPI_I2S_ClearITPendingBit>:
 800659c:	f001 010f 	and.w	r1, r1, #15
 80065a0:	2301      	movs	r3, #1
 80065a2:	fa13 f101 	lsls.w	r1, r3, r1
 80065a6:	43c9      	mvns	r1, r1
 80065a8:	b289      	uxth	r1, r1
 80065aa:	8101      	strh	r1, [r0, #8]
 80065ac:	4770      	bx	lr
 80065ae:	bf00      	nop

080065b0 <SYSCFG_DeInit>:
 80065b0:	b508      	push	{r3, lr}
 80065b2:	2101      	movs	r1, #1
 80065b4:	f44f 4080 	mov.w	r0, #16384	; 0x4000
 80065b8:	f7fe fc54 	bl	8004e64 <RCC_APB2PeriphResetCmd>
 80065bc:	f44f 4080 	mov.w	r0, #16384	; 0x4000
 80065c0:	2100      	movs	r1, #0
 80065c2:	e8bd 4008 	ldmia.w	sp!, {r3, lr}
 80065c6:	f7fe bc4d 	b.w	8004e64 <RCC_APB2PeriphResetCmd>
 80065ca:	bf00      	nop

080065cc <SYSCFG_MemoryRemapConfig>:
 80065cc:	f44f 5360 	mov.w	r3, #14336	; 0x3800
 80065d0:	f2c4 0301 	movt	r3, #16385	; 0x4001
 80065d4:	6018      	str	r0, [r3, #0]
 80065d6:	4770      	bx	lr

080065d8 <SYSCFG_EXTILineConfig>:
 80065d8:	088a      	lsrs	r2, r1, #2
 80065da:	f44f 5360 	mov.w	r3, #14336	; 0x3800
 80065de:	f2c4 0301 	movt	r3, #16385	; 0x4001
 80065e2:	3202      	adds	r2, #2
 80065e4:	f001 0103 	and.w	r1, r1, #3
 80065e8:	b430      	push	{r4, r5}
 80065ea:	0089      	lsls	r1, r1, #2
 80065ec:	f853 5022 	ldr.w	r5, [r3, r2, lsl #2]
 80065f0:	240f      	movs	r4, #15
 80065f2:	408c      	lsls	r4, r1
 80065f4:	ea25 0404 	bic.w	r4, r5, r4
 80065f8:	f843 4022 	str.w	r4, [r3, r2, lsl #2]
 80065fc:	f853 4022 	ldr.w	r4, [r3, r2, lsl #2]
 8006600:	fa10 f101 	lsls.w	r1, r0, r1
 8006604:	430c      	orrs	r4, r1
 8006606:	f843 4022 	str.w	r4, [r3, r2, lsl #2]
 800660a:	bc30      	pop	{r4, r5}
 800660c:	4770      	bx	lr
 800660e:	bf00      	nop

08006610 <SYSCFG_ETH_MediaInterfaceConfig>:
 8006610:	23dc      	movs	r3, #220	; 0xdc
 8006612:	f2c4 2327 	movt	r3, #16935	; 0x4227
 8006616:	6018      	str	r0, [r3, #0]
 8006618:	4770      	bx	lr
 800661a:	bf00      	nop

0800661c <SYSCFG_CompensationCellCmd>:
 800661c:	f44f 6380 	mov.w	r3, #1024	; 0x400
 8006620:	f2c4 2327 	movt	r3, #16935	; 0x4227
 8006624:	6018      	str	r0, [r3, #0]
 8006626:	4770      	bx	lr

08006628 <SYSCFG_GetCompensationCellStatus>:
 8006628:	f44f 5360 	mov.w	r3, #14336	; 0x3800
 800662c:	f2c4 0301 	movt	r3, #16385	; 0x4001
 8006630:	6a18      	ldr	r0, [r3, #32]
 8006632:	f3c0 2000 	ubfx	r0, r0, #8, #1
 8006636:	4770      	bx	lr

08006638 <TIM_DeInit>:
 8006638:	b508      	push	{r3, lr}
 800663a:	2300      	movs	r3, #0
 800663c:	f2c4 0301 	movt	r3, #16385	; 0x4001
 8006640:	4298      	cmp	r0, r3
 8006642:	d05b      	beq.n	80066fc <TIM_DeInit+0xc4>
 8006644:	f1b0 4f80 	cmp.w	r0, #1073741824	; 0x40000000
 8006648:	d062      	beq.n	8006710 <TIM_DeInit+0xd8>
 800664a:	f44f 6380 	mov.w	r3, #1024	; 0x400
 800664e:	f2c4 0300 	movt	r3, #16384	; 0x4000
 8006652:	4298      	cmp	r0, r3
 8006654:	d066      	beq.n	8006724 <TIM_DeInit+0xec>
 8006656:	f44f 6300 	mov.w	r3, #2048	; 0x800
 800665a:	f2c4 0300 	movt	r3, #16384	; 0x4000
 800665e:	4298      	cmp	r0, r3
 8006660:	d06a      	beq.n	8006738 <TIM_DeInit+0x100>
 8006662:	f44f 6340 	mov.w	r3, #3072	; 0xc00
 8006666:	f2c4 0300 	movt	r3, #16384	; 0x4000
 800666a:	4298      	cmp	r0, r3
 800666c:	d06e      	beq.n	800674c <TIM_DeInit+0x114>
 800666e:	f44f 5380 	mov.w	r3, #4096	; 0x1000
 8006672:	f2c4 0300 	movt	r3, #16384	; 0x4000
 8006676:	4298      	cmp	r0, r3
 8006678:	d072      	beq.n	8006760 <TIM_DeInit+0x128>
 800667a:	f44f 53a0 	mov.w	r3, #5120	; 0x1400
 800667e:	f2c4 0300 	movt	r3, #16384	; 0x4000
 8006682:	4298      	cmp	r0, r3
 8006684:	d076      	beq.n	8006774 <TIM_DeInit+0x13c>
 8006686:	f44f 6380 	mov.w	r3, #1024	; 0x400
 800668a:	f2c4 0301 	movt	r3, #16385	; 0x4001
 800668e:	4298      	cmp	r0, r3
 8006690:	d07a      	beq.n	8006788 <TIM_DeInit+0x150>
 8006692:	f44f 4380 	mov.w	r3, #16384	; 0x4000
 8006696:	f2c4 0301 	movt	r3, #16385	; 0x4001
 800669a:	4298      	cmp	r0, r3
 800669c:	d07e      	beq.n	800679c <TIM_DeInit+0x164>
 800669e:	f44f 4388 	mov.w	r3, #17408	; 0x4400
 80066a2:	f2c4 0301 	movt	r3, #16385	; 0x4001
 80066a6:	4298      	cmp	r0, r3
 80066a8:	f000 8084 	beq.w	80067b4 <TIM_DeInit+0x17c>
 80066ac:	f44f 4390 	mov.w	r3, #18432	; 0x4800
 80066b0:	f2c4 0301 	movt	r3, #16385	; 0x4001
 80066b4:	4298      	cmp	r0, r3
 80066b6:	f000 8089 	beq.w	80067cc <TIM_DeInit+0x194>
 80066ba:	f44f 53c0 	mov.w	r3, #6144	; 0x1800
 80066be:	f2c4 0300 	movt	r3, #16384	; 0x4000
 80066c2:	4298      	cmp	r0, r3
 80066c4:	f000 808e 	beq.w	80067e4 <TIM_DeInit+0x1ac>
 80066c8:	f44f 53e0 	mov.w	r3, #7168	; 0x1c00
 80066cc:	f2c4 0300 	movt	r3, #16384	; 0x4000
 80066d0:	4298      	cmp	r0, r3
 80066d2:	f000 8091 	beq.w	80067f8 <TIM_DeInit+0x1c0>
 80066d6:	f44f 5300 	mov.w	r3, #8192	; 0x2000
 80066da:	f2c4 0300 	movt	r3, #16384	; 0x4000
 80066de:	4298      	cmp	r0, r3
 80066e0:	d000      	beq.n	80066e4 <TIM_DeInit+0xac>
 80066e2:	bd08      	pop	{r3, pc}
 80066e4:	2101      	movs	r1, #1
 80066e6:	f44f 7080 	mov.w	r0, #256	; 0x100
 80066ea:	f7fe fbad 	bl	8004e48 <RCC_APB1PeriphResetCmd>
 80066ee:	f44f 7080 	mov.w	r0, #256	; 0x100
 80066f2:	2100      	movs	r1, #0
 80066f4:	e8bd 4008 	ldmia.w	sp!, {r3, lr}
 80066f8:	f7fe bba6 	b.w	8004e48 <RCC_APB1PeriphResetCmd>
 80066fc:	2001      	movs	r0, #1
 80066fe:	4601      	mov	r1, r0
 8006700:	f7fe fbb0 	bl	8004e64 <RCC_APB2PeriphResetCmd>
 8006704:	2001      	movs	r0, #1
 8006706:	2100      	movs	r1, #0
 8006708:	e8bd 4008 	ldmia.w	sp!, {r3, lr}
 800670c:	f7fe bbaa 	b.w	8004e64 <RCC_APB2PeriphResetCmd>
 8006710:	2001      	movs	r0, #1
 8006712:	4601      	mov	r1, r0
 8006714:	f7fe fb98 	bl	8004e48 <RCC_APB1PeriphResetCmd>
 8006718:	2001      	movs	r0, #1
 800671a:	2100      	movs	r1, #0
 800671c:	e8bd 4008 	ldmia.w	sp!, {r3, lr}
 8006720:	f7fe bb92 	b.w	8004e48 <RCC_APB1PeriphResetCmd>
 8006724:	2002      	movs	r0, #2
 8006726:	2101      	movs	r1, #1
 8006728:	f7fe fb8e 	bl	8004e48 <RCC_APB1PeriphResetCmd>
 800672c:	2002      	movs	r0, #2
 800672e:	2100      	movs	r1, #0
 8006730:	e8bd 4008 	ldmia.w	sp!, {r3, lr}
 8006734:	f7fe bb88 	b.w	8004e48 <RCC_APB1PeriphResetCmd>
 8006738:	2004      	movs	r0, #4
 800673a:	2101      	movs	r1, #1
 800673c:	f7fe fb84 	bl	8004e48 <RCC_APB1PeriphResetCmd>
 8006740:	2004      	movs	r0, #4
 8006742:	2100      	movs	r1, #0
 8006744:	e8bd 4008 	ldmia.w	sp!, {r3, lr}
 8006748:	f7fe bb7e 	b.w	8004e48 <RCC_APB1PeriphResetCmd>
 800674c:	2008      	movs	r0, #8
 800674e:	2101      	movs	r1, #1
 8006750:	f7fe fb7a 	bl	8004e48 <RCC_APB1PeriphResetCmd>
 8006754:	2008      	movs	r0, #8
 8006756:	2100      	movs	r1, #0
 8006758:	e8bd 4008 	ldmia.w	sp!, {r3, lr}
 800675c:	f7fe bb74 	b.w	8004e48 <RCC_APB1PeriphResetCmd>
 8006760:	2010      	movs	r0, #16
 8006762:	2101      	movs	r1, #1
 8006764:	f7fe fb70 	bl	8004e48 <RCC_APB1PeriphResetCmd>
 8006768:	2010      	movs	r0, #16
 800676a:	2100      	movs	r1, #0
 800676c:	e8bd 4008 	ldmia.w	sp!, {r3, lr}
 8006770:	f7fe bb6a 	b.w	8004e48 <RCC_APB1PeriphResetCmd>
 8006774:	2020      	movs	r0, #32
 8006776:	2101      	movs	r1, #1
 8006778:	f7fe fb66 	bl	8004e48 <RCC_APB1PeriphResetCmd>
 800677c:	2020      	movs	r0, #32
 800677e:	2100      	movs	r1, #0
 8006780:	e8bd 4008 	ldmia.w	sp!, {r3, lr}
 8006784:	f7fe bb60 	b.w	8004e48 <RCC_APB1PeriphResetCmd>
 8006788:	2002      	movs	r0, #2
 800678a:	2101      	movs	r1, #1
 800678c:	f7fe fb6a 	bl	8004e64 <RCC_APB2PeriphResetCmd>
 8006790:	2002      	movs	r0, #2
 8006792:	2100      	movs	r1, #0
 8006794:	e8bd 4008 	ldmia.w	sp!, {r3, lr}
 8006798:	f7fe bb64 	b.w	8004e64 <RCC_APB2PeriphResetCmd>
 800679c:	2101      	movs	r1, #1
 800679e:	f44f 3080 	mov.w	r0, #65536	; 0x10000
 80067a2:	f7fe fb5f 	bl	8004e64 <RCC_APB2PeriphResetCmd>
 80067a6:	f44f 3080 	mov.w	r0, #65536	; 0x10000
 80067aa:	2100      	movs	r1, #0
 80067ac:	e8bd 4008 	ldmia.w	sp!, {r3, lr}
 80067b0:	f7fe bb58 	b.w	8004e64 <RCC_APB2PeriphResetCmd>
 80067b4:	2101      	movs	r1, #1
 80067b6:	f44f 3000 	mov.w	r0, #131072	; 0x20000
 80067ba:	f7fe fb53 	bl	8004e64 <RCC_APB2PeriphResetCmd>
 80067be:	f44f 3000 	mov.w	r0, #131072	; 0x20000
 80067c2:	2100      	movs	r1, #0
 80067c4:	e8bd 4008 	ldmia.w	sp!, {r3, lr}
 80067c8:	f7fe bb4c 	b.w	8004e64 <RCC_APB2PeriphResetCmd>
 80067cc:	2101      	movs	r1, #1
 80067ce:	f44f 2080 	mov.w	r0, #262144	; 0x40000
 80067d2:	f7fe fb47 	bl	8004e64 <RCC_APB2PeriphResetCmd>
 80067d6:	f44f 2080 	mov.w	r0, #262144	; 0x40000
 80067da:	2100      	movs	r1, #0
 80067dc:	e8bd 4008 	ldmia.w	sp!, {r3, lr}
 80067e0:	f7fe bb40 	b.w	8004e64 <RCC_APB2PeriphResetCmd>
 80067e4:	2040      	movs	r0, #64	; 0x40
 80067e6:	2101      	movs	r1, #1
 80067e8:	f7fe fb2e 	bl	8004e48 <RCC_APB1PeriphResetCmd>
 80067ec:	2040      	movs	r0, #64	; 0x40
 80067ee:	2100      	movs	r1, #0
 80067f0:	e8bd 4008 	ldmia.w	sp!, {r3, lr}
 80067f4:	f7fe bb28 	b.w	8004e48 <RCC_APB1PeriphResetCmd>
 80067f8:	2080      	movs	r0, #128	; 0x80
 80067fa:	2101      	movs	r1, #1
 80067fc:	f7fe fb24 	bl	8004e48 <RCC_APB1PeriphResetCmd>
 8006800:	2080      	movs	r0, #128	; 0x80
 8006802:	2100      	movs	r1, #0
 8006804:	e8bd 4008 	ldmia.w	sp!, {r3, lr}
 8006808:	f7fe bb1e 	b.w	8004e48 <RCC_APB1PeriphResetCmd>

0800680c <TIM_TimeBaseInit>:
 800680c:	2300      	movs	r3, #0
 800680e:	f44f 6280 	mov.w	r2, #1024	; 0x400
 8006812:	f2c4 0301 	movt	r3, #16385	; 0x4001
 8006816:	b470      	push	{r4, r5, r6}
 8006818:	f2c4 0201 	movt	r2, #16385	; 0x4001
 800681c:	8804      	ldrh	r4, [r0, #0]
 800681e:	4298      	cmp	r0, r3
 8006820:	bf18      	it	ne
 8006822:	4290      	cmpne	r0, r2
 8006824:	b2a4      	uxth	r4, r4
 8006826:	bf14      	ite	ne
 8006828:	2300      	movne	r3, #0
 800682a:	2301      	moveq	r3, #1
 800682c:	d008      	beq.n	8006840 <TIM_TimeBaseInit+0x34>
 800682e:	f44f 6280 	mov.w	r2, #1024	; 0x400
 8006832:	f2c4 0200 	movt	r2, #16384	; 0x4000
 8006836:	f1b0 4f80 	cmp.w	r0, #1073741824	; 0x40000000
 800683a:	bf18      	it	ne
 800683c:	4290      	cmpne	r0, r2
 800683e:	d123      	bne.n	8006888 <TIM_TimeBaseInit+0x7c>
 8006840:	f64f 758f 	movw	r5, #65423	; 0xff8f
 8006844:	884a      	ldrh	r2, [r1, #2]
 8006846:	4025      	ands	r5, r4
 8006848:	ea45 0402 	orr.w	r4, r5, r2
 800684c:	f44f 56a0 	mov.w	r6, #5120	; 0x1400
 8006850:	f44f 5580 	mov.w	r5, #4096	; 0x1000
 8006854:	f2c4 0500 	movt	r5, #16384	; 0x4000
 8006858:	f2c4 0600 	movt	r6, #16384	; 0x4000
 800685c:	42b0      	cmp	r0, r6
 800685e:	bf18      	it	ne
 8006860:	42a8      	cmpne	r0, r5
 8006862:	bf1f      	itttt	ne
 8006864:	890d      	ldrhne	r5, [r1, #8]
 8006866:	f64f 42ff 	movwne	r2, #64767	; 0xfcff
 800686a:	4022      	andne	r2, r4
 800686c:	ea42 0405 	orrne.w	r4, r2, r5
 8006870:	684d      	ldr	r5, [r1, #4]
 8006872:	880a      	ldrh	r2, [r1, #0]
 8006874:	8004      	strh	r4, [r0, #0]
 8006876:	62c5      	str	r5, [r0, #44]	; 0x2c
 8006878:	8502      	strh	r2, [r0, #40]	; 0x28
 800687a:	b10b      	cbz	r3, 8006880 <TIM_TimeBaseInit+0x74>
 800687c:	7a8b      	ldrb	r3, [r1, #10]
 800687e:	8603      	strh	r3, [r0, #48]	; 0x30
 8006880:	2301      	movs	r3, #1
 8006882:	8283      	strh	r3, [r0, #20]
 8006884:	bc70      	pop	{r4, r5, r6}
 8006886:	4770      	bx	lr
 8006888:	f44f 6540 	mov.w	r5, #3072	; 0xc00
 800688c:	f44f 6200 	mov.w	r2, #2048	; 0x800
 8006890:	f2c4 0500 	movt	r5, #16384	; 0x4000
 8006894:	f2c4 0200 	movt	r2, #16384	; 0x4000
 8006898:	4290      	cmp	r0, r2
 800689a:	bf18      	it	ne
 800689c:	42a8      	cmpne	r0, r5
 800689e:	d1d5      	bne.n	800684c <TIM_TimeBaseInit+0x40>
 80068a0:	e7ce      	b.n	8006840 <TIM_TimeBaseInit+0x34>
 80068a2:	bf00      	nop

080068a4 <TIM_TimeBaseStructInit>:
 80068a4:	2300      	movs	r3, #0
 80068a6:	f04f 31ff 	mov.w	r1, #4294967295	; 0xffffffff
 80068aa:	6041      	str	r1, [r0, #4]
 80068ac:	8003      	strh	r3, [r0, #0]
 80068ae:	8103      	strh	r3, [r0, #8]
 80068b0:	8043      	strh	r3, [r0, #2]
 80068b2:	7283      	strb	r3, [r0, #10]
 80068b4:	4770      	bx	lr
 80068b6:	bf00      	nop

080068b8 <TIM_PrescalerConfig>:
 80068b8:	8501      	strh	r1, [r0, #40]	; 0x28
 80068ba:	8282      	strh	r2, [r0, #20]
 80068bc:	4770      	bx	lr
 80068be:	bf00      	nop

080068c0 <TIM_CounterModeConfig>:
 80068c0:	8803      	ldrh	r3, [r0, #0]
 80068c2:	f023 0370 	bic.w	r3, r3, #112	; 0x70
 80068c6:	041b      	lsls	r3, r3, #16
 80068c8:	0c1b      	lsrs	r3, r3, #16
 80068ca:	430b      	orrs	r3, r1
 80068cc:	8003      	strh	r3, [r0, #0]
 80068ce:	4770      	bx	lr

080068d0 <TIM_SetCounter>:
 80068d0:	6241      	str	r1, [r0, #36]	; 0x24
 80068d2:	4770      	bx	lr

080068d4 <TIM_SetAutoreload>:
 80068d4:	62c1      	str	r1, [r0, #44]	; 0x2c
 80068d6:	4770      	bx	lr

080068d8 <TIM_GetCounter>:
 80068d8:	6a40      	ldr	r0, [r0, #36]	; 0x24
 80068da:	4770      	bx	lr

080068dc <TIM_GetPrescaler>:
 80068dc:	8d00      	ldrh	r0, [r0, #40]	; 0x28
 80068de:	b280      	uxth	r0, r0
 80068e0:	4770      	bx	lr
 80068e2:	bf00      	nop

080068e4 <TIM_UpdateDisableConfig>:
 80068e4:	8803      	ldrh	r3, [r0, #0]
 80068e6:	b929      	cbnz	r1, 80068f4 <TIM_UpdateDisableConfig+0x10>
 80068e8:	f023 0302 	bic.w	r3, r3, #2
 80068ec:	041b      	lsls	r3, r3, #16
 80068ee:	0c1b      	lsrs	r3, r3, #16
 80068f0:	8003      	strh	r3, [r0, #0]
 80068f2:	4770      	bx	lr
 80068f4:	b29b      	uxth	r3, r3
 80068f6:	f043 0302 	orr.w	r3, r3, #2
 80068fa:	8003      	strh	r3, [r0, #0]
 80068fc:	4770      	bx	lr
 80068fe:	bf00      	nop

08006900 <TIM_UpdateRequestConfig>:
 8006900:	8803      	ldrh	r3, [r0, #0]
 8006902:	b929      	cbnz	r1, 8006910 <TIM_UpdateRequestConfig+0x10>
 8006904:	f023 0304 	bic.w	r3, r3, #4
 8006908:	041b      	lsls	r3, r3, #16
 800690a:	0c1b      	lsrs	r3, r3, #16
 800690c:	8003      	strh	r3, [r0, #0]
 800690e:	4770      	bx	lr
 8006910:	b29b      	uxth	r3, r3
 8006912:	f043 0304 	orr.w	r3, r3, #4
 8006916:	8003      	strh	r3, [r0, #0]
 8006918:	4770      	bx	lr
 800691a:	bf00      	nop

0800691c <TIM_ARRPreloadConfig>:
 800691c:	8803      	ldrh	r3, [r0, #0]
 800691e:	b929      	cbnz	r1, 800692c <TIM_ARRPreloadConfig+0x10>
 8006920:	f023 0380 	bic.w	r3, r3, #128	; 0x80
 8006924:	041b      	lsls	r3, r3, #16
 8006926:	0c1b      	lsrs	r3, r3, #16
 8006928:	8003      	strh	r3, [r0, #0]
 800692a:	4770      	bx	lr
 800692c:	b29b      	uxth	r3, r3
 800692e:	f043 0380 	orr.w	r3, r3, #128	; 0x80
 8006932:	8003      	strh	r3, [r0, #0]
 8006934:	4770      	bx	lr
 8006936:	bf00      	nop

08006938 <TIM_SelectOnePulseMode>:
 8006938:	8803      	ldrh	r3, [r0, #0]
 800693a:	f023 0308 	bic.w	r3, r3, #8
 800693e:	041b      	lsls	r3, r3, #16
 8006940:	0c1b      	lsrs	r3, r3, #16
 8006942:	8003      	strh	r3, [r0, #0]
 8006944:	8803      	ldrh	r3, [r0, #0]
 8006946:	b29b      	uxth	r3, r3
 8006948:	430b      	orrs	r3, r1
 800694a:	8003      	strh	r3, [r0, #0]
 800694c:	4770      	bx	lr
 800694e:	bf00      	nop

08006950 <TIM_SetClockDivision>:
 8006950:	8803      	ldrh	r3, [r0, #0]
 8006952:	f423 7340 	bic.w	r3, r3, #768	; 0x300
 8006956:	041b      	lsls	r3, r3, #16
 8006958:	0c1b      	lsrs	r3, r3, #16
 800695a:	8003      	strh	r3, [r0, #0]
 800695c:	8803      	ldrh	r3, [r0, #0]
 800695e:	b29b      	uxth	r3, r3
 8006960:	430b      	orrs	r3, r1
 8006962:	8003      	strh	r3, [r0, #0]
 8006964:	4770      	bx	lr
 8006966:	bf00      	nop

08006968 <TIM_Cmd>:
 8006968:	8803      	ldrh	r3, [r0, #0]
 800696a:	b929      	cbnz	r1, 8006978 <TIM_Cmd+0x10>
 800696c:	f023 0301 	bic.w	r3, r3, #1
 8006970:	041b      	lsls	r3, r3, #16
 8006972:	0c1b      	lsrs	r3, r3, #16
 8006974:	8003      	strh	r3, [r0, #0]
 8006976:	4770      	bx	lr
 8006978:	b29b      	uxth	r3, r3
 800697a:	f043 0301 	orr.w	r3, r3, #1
 800697e:	8003      	strh	r3, [r0, #0]
 8006980:	4770      	bx	lr
 8006982:	bf00      	nop

08006984 <TIM_OC1Init>:
 8006984:	e92d 01f0 	stmdb	sp!, {r4, r5, r6, r7, r8}
 8006988:	8c04      	ldrh	r4, [r0, #32]
 800698a:	898d      	ldrh	r5, [r1, #12]
 800698c:	884f      	ldrh	r7, [r1, #2]
 800698e:	f8b1 c000 	ldrh.w	ip, [r1]
 8006992:	f024 0401 	bic.w	r4, r4, #1
 8006996:	0424      	lsls	r4, r4, #16
 8006998:	0c24      	lsrs	r4, r4, #16
 800699a:	8404      	strh	r4, [r0, #32]
 800699c:	8c03      	ldrh	r3, [r0, #32]
 800699e:	8884      	ldrh	r4, [r0, #4]
 80069a0:	8b02      	ldrh	r2, [r0, #24]
 80069a2:	432f      	orrs	r7, r5
 80069a4:	f023 0302 	bic.w	r3, r3, #2
 80069a8:	2500      	movs	r5, #0
 80069aa:	f022 0273 	bic.w	r2, r2, #115	; 0x73
 80069ae:	f44f 6680 	mov.w	r6, #1024	; 0x400
 80069b2:	0412      	lsls	r2, r2, #16
 80069b4:	041b      	lsls	r3, r3, #16
 80069b6:	f2c4 0601 	movt	r6, #16385	; 0x4001
 80069ba:	f2c4 0501 	movt	r5, #16385	; 0x4001
 80069be:	0c12      	lsrs	r2, r2, #16
 80069c0:	0c1b      	lsrs	r3, r3, #16
 80069c2:	b2bf      	uxth	r7, r7
 80069c4:	42a8      	cmp	r0, r5
 80069c6:	bf18      	it	ne
 80069c8:	42b0      	cmpne	r0, r6
 80069ca:	b2a4      	uxth	r4, r4
 80069cc:	ea42 020c 	orr.w	r2, r2, ip
 80069d0:	ea47 0303 	orr.w	r3, r7, r3
 80069d4:	d116      	bne.n	8006a04 <TIM_OC1Init+0x80>
 80069d6:	f64f 75f7 	movw	r5, #65527	; 0xfff7
 80069da:	f8b1 c00e 	ldrh.w	ip, [r1, #14]
 80069de:	f8b1 8012 	ldrh.w	r8, [r1, #18]
 80069e2:	8a0f      	ldrh	r7, [r1, #16]
 80069e4:	888e      	ldrh	r6, [r1, #4]
 80069e6:	401d      	ands	r5, r3
 80069e8:	ea45 0c0c 	orr.w	ip, r5, ip
 80069ec:	f64f 73fb 	movw	r3, #65531	; 0xfffb
 80069f0:	f64f 45ff 	movw	r5, #64767	; 0xfcff
 80069f4:	ea48 0707 	orr.w	r7, r8, r7
 80069f8:	4025      	ands	r5, r4
 80069fa:	ea0c 0303 	and.w	r3, ip, r3
 80069fe:	b2bc      	uxth	r4, r7
 8006a00:	4333      	orrs	r3, r6
 8006a02:	432c      	orrs	r4, r5
 8006a04:	6889      	ldr	r1, [r1, #8]
 8006a06:	8084      	strh	r4, [r0, #4]
 8006a08:	8302      	strh	r2, [r0, #24]
 8006a0a:	6341      	str	r1, [r0, #52]	; 0x34
 8006a0c:	8403      	strh	r3, [r0, #32]
 8006a0e:	e8bd 01f0 	ldmia.w	sp!, {r4, r5, r6, r7, r8}
 8006a12:	4770      	bx	lr

08006a14 <TIM_OC2Init>:
 8006a14:	e92d 03f0 	stmdb	sp!, {r4, r5, r6, r7, r8, r9}
 8006a18:	8c04      	ldrh	r4, [r0, #32]
 8006a1a:	898d      	ldrh	r5, [r1, #12]
 8006a1c:	f8b1 c000 	ldrh.w	ip, [r1]
 8006a20:	884f      	ldrh	r7, [r1, #2]
 8006a22:	f024 0410 	bic.w	r4, r4, #16
 8006a26:	0424      	lsls	r4, r4, #16
 8006a28:	0c24      	lsrs	r4, r4, #16
 8006a2a:	8404      	strh	r4, [r0, #32]
 8006a2c:	8c02      	ldrh	r2, [r0, #32]
 8006a2e:	8884      	ldrh	r4, [r0, #4]
 8006a30:	8b03      	ldrh	r3, [r0, #24]
 8006a32:	f022 0220 	bic.w	r2, r2, #32
 8006a36:	0412      	lsls	r2, r2, #16
 8006a38:	0c12      	lsrs	r2, r2, #16
 8006a3a:	f423 43e6 	bic.w	r3, r3, #29440	; 0x7300
 8006a3e:	041b      	lsls	r3, r3, #16
 8006a40:	ea42 1205 	orr.w	r2, r2, r5, lsl #4
 8006a44:	f44f 6680 	mov.w	r6, #1024	; 0x400
 8006a48:	2500      	movs	r5, #0
 8006a4a:	0c1b      	lsrs	r3, r3, #16
 8006a4c:	f2c4 0601 	movt	r6, #16385	; 0x4001
 8006a50:	f2c4 0501 	movt	r5, #16385	; 0x4001
 8006a54:	ea43 230c 	orr.w	r3, r3, ip, lsl #8
 8006a58:	ea42 1207 	orr.w	r2, r2, r7, lsl #4
 8006a5c:	42a8      	cmp	r0, r5
 8006a5e:	bf18      	it	ne
 8006a60:	42b0      	cmpne	r0, r6
 8006a62:	b2a4      	uxth	r4, r4
 8006a64:	b29b      	uxth	r3, r3
 8006a66:	b292      	uxth	r2, r2
 8006a68:	d119      	bne.n	8006a9e <TIM_OC2Init+0x8a>
 8006a6a:	f64f 767f 	movw	r6, #65407	; 0xff7f
 8006a6e:	f8b1 900e 	ldrh.w	r9, [r1, #14]
 8006a72:	f8b1 8010 	ldrh.w	r8, [r1, #16]
 8006a76:	f8b1 c004 	ldrh.w	ip, [r1, #4]
 8006a7a:	8a4f      	ldrh	r7, [r1, #18]
 8006a7c:	4016      	ands	r6, r2
 8006a7e:	f24f 35ff 	movw	r5, #62463	; 0xf3ff
 8006a82:	4025      	ands	r5, r4
 8006a84:	ea46 1609 	orr.w	r6, r6, r9, lsl #4
 8006a88:	f64f 72bf 	movw	r2, #65471	; 0xffbf
 8006a8c:	4032      	ands	r2, r6
 8006a8e:	ea45 0488 	orr.w	r4, r5, r8, lsl #2
 8006a92:	ea42 120c 	orr.w	r2, r2, ip, lsl #4
 8006a96:	ea44 0487 	orr.w	r4, r4, r7, lsl #2
 8006a9a:	b292      	uxth	r2, r2
 8006a9c:	b2a4      	uxth	r4, r4
 8006a9e:	6889      	ldr	r1, [r1, #8]
 8006aa0:	8084      	strh	r4, [r0, #4]
 8006aa2:	8303      	strh	r3, [r0, #24]
 8006aa4:	6381      	str	r1, [r0, #56]	; 0x38
 8006aa6:	8402      	strh	r2, [r0, #32]
 8006aa8:	e8bd 03f0 	ldmia.w	sp!, {r4, r5, r6, r7, r8, r9}
 8006aac:	4770      	bx	lr
 8006aae:	bf00      	nop

08006ab0 <TIM_OC3Init>:
 8006ab0:	e92d 03f0 	stmdb	sp!, {r4, r5, r6, r7, r8, r9}
 8006ab4:	8c04      	ldrh	r4, [r0, #32]
 8006ab6:	898d      	ldrh	r5, [r1, #12]
 8006ab8:	f8b1 c002 	ldrh.w	ip, [r1, #2]
 8006abc:	880f      	ldrh	r7, [r1, #0]
 8006abe:	f424 7480 	bic.w	r4, r4, #256	; 0x100
 8006ac2:	0424      	lsls	r4, r4, #16
 8006ac4:	0c24      	lsrs	r4, r4, #16
 8006ac6:	8404      	strh	r4, [r0, #32]
 8006ac8:	8c02      	ldrh	r2, [r0, #32]
 8006aca:	8884      	ldrh	r4, [r0, #4]
 8006acc:	8b83      	ldrh	r3, [r0, #28]
 8006ace:	f422 7200 	bic.w	r2, r2, #512	; 0x200
 8006ad2:	0412      	lsls	r2, r2, #16
 8006ad4:	0c12      	lsrs	r2, r2, #16
 8006ad6:	ea42 2205 	orr.w	r2, r2, r5, lsl #8
 8006ada:	f023 0373 	bic.w	r3, r3, #115	; 0x73
 8006ade:	2500      	movs	r5, #0
 8006ae0:	f44f 6680 	mov.w	r6, #1024	; 0x400
 8006ae4:	041b      	lsls	r3, r3, #16
 8006ae6:	f2c4 0601 	movt	r6, #16385	; 0x4001
 8006aea:	f2c4 0501 	movt	r5, #16385	; 0x4001
 8006aee:	0c1b      	lsrs	r3, r3, #16
 8006af0:	ea42 220c 	orr.w	r2, r2, ip, lsl #8
 8006af4:	42a8      	cmp	r0, r5
 8006af6:	bf18      	it	ne
 8006af8:	42b0      	cmpne	r0, r6
 8006afa:	b2a4      	uxth	r4, r4
 8006afc:	ea43 0307 	orr.w	r3, r3, r7
 8006b00:	b292      	uxth	r2, r2
 8006b02:	d119      	bne.n	8006b38 <TIM_OC3Init+0x88>
 8006b04:	f24f 76ff 	movw	r6, #63487	; 0xf7ff
 8006b08:	f8b1 900e 	ldrh.w	r9, [r1, #14]
 8006b0c:	f8b1 8010 	ldrh.w	r8, [r1, #16]
 8006b10:	f8b1 c004 	ldrh.w	ip, [r1, #4]
 8006b14:	8a4f      	ldrh	r7, [r1, #18]
 8006b16:	4016      	ands	r6, r2
 8006b18:	f64c 75ff 	movw	r5, #53247	; 0xcfff
 8006b1c:	4025      	ands	r5, r4
 8006b1e:	ea46 2609 	orr.w	r6, r6, r9, lsl #8
 8006b22:	f64f 32ff 	movw	r2, #64511	; 0xfbff
 8006b26:	4032      	ands	r2, r6
 8006b28:	ea45 1408 	orr.w	r4, r5, r8, lsl #4
 8006b2c:	ea42 220c 	orr.w	r2, r2, ip, lsl #8
 8006b30:	ea44 1407 	orr.w	r4, r4, r7, lsl #4
 8006b34:	b292      	uxth	r2, r2
 8006b36:	b2a4      	uxth	r4, r4
 8006b38:	6889      	ldr	r1, [r1, #8]
 8006b3a:	8084      	strh	r4, [r0, #4]
 8006b3c:	8383      	strh	r3, [r0, #28]
 8006b3e:	63c1      	str	r1, [r0, #60]	; 0x3c
 8006b40:	8402      	strh	r2, [r0, #32]
 8006b42:	e8bd 03f0 	ldmia.w	sp!, {r4, r5, r6, r7, r8, r9}
 8006b46:	4770      	bx	lr

08006b48 <TIM_OC4Init>:
 8006b48:	b4f0      	push	{r4, r5, r6, r7}
 8006b4a:	8c04      	ldrh	r4, [r0, #32]
 8006b4c:	898d      	ldrh	r5, [r1, #12]
 8006b4e:	f8b1 c000 	ldrh.w	ip, [r1]
 8006b52:	884f      	ldrh	r7, [r1, #2]
 8006b54:	f424 5480 	bic.w	r4, r4, #4096	; 0x1000
 8006b58:	0424      	lsls	r4, r4, #16
 8006b5a:	0c24      	lsrs	r4, r4, #16
 8006b5c:	8404      	strh	r4, [r0, #32]
 8006b5e:	8c02      	ldrh	r2, [r0, #32]
 8006b60:	8884      	ldrh	r4, [r0, #4]
 8006b62:	8b83      	ldrh	r3, [r0, #28]
 8006b64:	f422 5200 	bic.w	r2, r2, #8192	; 0x2000
 8006b68:	0412      	lsls	r2, r2, #16
 8006b6a:	0c12      	lsrs	r2, r2, #16
 8006b6c:	ea42 3205 	orr.w	r2, r2, r5, lsl #12
 8006b70:	f423 43e6 	bic.w	r3, r3, #29440	; 0x7300
 8006b74:	2500      	movs	r5, #0
 8006b76:	f44f 6680 	mov.w	r6, #1024	; 0x400
 8006b7a:	f2c4 0501 	movt	r5, #16385	; 0x4001
 8006b7e:	f2c4 0601 	movt	r6, #16385	; 0x4001
 8006b82:	041b      	lsls	r3, r3, #16
 8006b84:	0c1b      	lsrs	r3, r3, #16
 8006b86:	42a8      	cmp	r0, r5
 8006b88:	bf18      	it	ne
 8006b8a:	42b0      	cmpne	r0, r6
 8006b8c:	bf08      	it	eq
 8006b8e:	8a0e      	ldrheq	r6, [r1, #16]
 8006b90:	6889      	ldr	r1, [r1, #8]
 8006b92:	b2a4      	uxth	r4, r4
 8006b94:	bf02      	ittt	eq
 8006b96:	f64b 75ff 	movweq	r5, #49151	; 0xbfff
 8006b9a:	4025      	andeq	r5, r4
 8006b9c:	ea45 1486 	orreq.w	r4, r5, r6, lsl #6
 8006ba0:	ea43 230c 	orr.w	r3, r3, ip, lsl #8
 8006ba4:	ea42 3207 	orr.w	r2, r2, r7, lsl #12
 8006ba8:	b29b      	uxth	r3, r3
 8006baa:	b292      	uxth	r2, r2
 8006bac:	bf08      	it	eq
 8006bae:	b2a4      	uxtheq	r4, r4
 8006bb0:	8084      	strh	r4, [r0, #4]
 8006bb2:	8383      	strh	r3, [r0, #28]
 8006bb4:	6401      	str	r1, [r0, #64]	; 0x40
 8006bb6:	8402      	strh	r2, [r0, #32]
 8006bb8:	bcf0      	pop	{r4, r5, r6, r7}
 8006bba:	4770      	bx	lr

08006bbc <TIM_OCStructInit>:
 8006bbc:	2300      	movs	r3, #0
 8006bbe:	8003      	strh	r3, [r0, #0]
 8006bc0:	8043      	strh	r3, [r0, #2]
 8006bc2:	8083      	strh	r3, [r0, #4]
 8006bc4:	6083      	str	r3, [r0, #8]
 8006bc6:	8183      	strh	r3, [r0, #12]
 8006bc8:	81c3      	strh	r3, [r0, #14]
 8006bca:	8203      	strh	r3, [r0, #16]
 8006bcc:	8243      	strh	r3, [r0, #18]
 8006bce:	4770      	bx	lr

08006bd0 <TIM_SelectOCxM>:
 8006bd0:	b410      	push	{r4}
 8006bd2:	8c04      	ldrh	r4, [r0, #32]
 8006bd4:	2301      	movs	r3, #1
 8006bd6:	408b      	lsls	r3, r1
 8006bd8:	b2a4      	uxth	r4, r4
 8006bda:	ea24 0303 	bic.w	r3, r4, r3
 8006bde:	8403      	strh	r3, [r0, #32]
 8006be0:	3018      	adds	r0, #24
 8006be2:	2900      	cmp	r1, #0
 8006be4:	bf18      	it	ne
 8006be6:	2908      	cmpne	r1, #8
 8006be8:	d00e      	beq.n	8006c08 <TIM_SelectOCxM+0x38>
 8006bea:	3904      	subs	r1, #4
 8006bec:	f3c1 014e 	ubfx	r1, r1, #1, #15
 8006bf0:	f648 73ff 	movw	r3, #36863	; 0x8fff
 8006bf4:	580c      	ldr	r4, [r1, r0]
 8006bf6:	4023      	ands	r3, r4
 8006bf8:	500b      	str	r3, [r1, r0]
 8006bfa:	0212      	lsls	r2, r2, #8
 8006bfc:	580b      	ldr	r3, [r1, r0]
 8006bfe:	b292      	uxth	r2, r2
 8006c00:	431a      	orrs	r2, r3
 8006c02:	500a      	str	r2, [r1, r0]
 8006c04:	bc10      	pop	{r4}
 8006c06:	4770      	bx	lr
 8006c08:	0849      	lsrs	r1, r1, #1
 8006c0a:	f64f 738f 	movw	r3, #65423	; 0xff8f
 8006c0e:	580c      	ldr	r4, [r1, r0]
 8006c10:	4023      	ands	r3, r4
 8006c12:	500b      	str	r3, [r1, r0]
 8006c14:	580b      	ldr	r3, [r1, r0]
 8006c16:	431a      	orrs	r2, r3
 8006c18:	500a      	str	r2, [r1, r0]
 8006c1a:	e7f3      	b.n	8006c04 <TIM_SelectOCxM+0x34>

08006c1c <TIM_SetCompare1>:
 8006c1c:	6341      	str	r1, [r0, #52]	; 0x34
 8006c1e:	4770      	bx	lr

08006c20 <TIM_SetCompare2>:
 8006c20:	6381      	str	r1, [r0, #56]	; 0x38
 8006c22:	4770      	bx	lr

08006c24 <TIM_SetCompare3>:
 8006c24:	63c1      	str	r1, [r0, #60]	; 0x3c
 8006c26:	4770      	bx	lr

08006c28 <TIM_SetCompare4>:
 8006c28:	6401      	str	r1, [r0, #64]	; 0x40
 8006c2a:	4770      	bx	lr

08006c2c <TIM_ForcedOC1Config>:
 8006c2c:	8b03      	ldrh	r3, [r0, #24]
 8006c2e:	f023 0370 	bic.w	r3, r3, #112	; 0x70
 8006c32:	041b      	lsls	r3, r3, #16
 8006c34:	0c1b      	lsrs	r3, r3, #16
 8006c36:	430b      	orrs	r3, r1
 8006c38:	8303      	strh	r3, [r0, #24]
 8006c3a:	4770      	bx	lr

08006c3c <TIM_ForcedOC2Config>:
 8006c3c:	8b03      	ldrh	r3, [r0, #24]
 8006c3e:	f423 43e0 	bic.w	r3, r3, #28672	; 0x7000
 8006c42:	041b      	lsls	r3, r3, #16
 8006c44:	0c1b      	lsrs	r3, r3, #16
 8006c46:	ea43 2301 	orr.w	r3, r3, r1, lsl #8
 8006c4a:	b29b      	uxth	r3, r3
 8006c4c:	8303      	strh	r3, [r0, #24]
 8006c4e:	4770      	bx	lr

08006c50 <TIM_ForcedOC3Config>:
 8006c50:	8b83      	ldrh	r3, [r0, #28]
 8006c52:	f023 0370 	bic.w	r3, r3, #112	; 0x70
 8006c56:	041b      	lsls	r3, r3, #16
 8006c58:	0c1b      	lsrs	r3, r3, #16
 8006c5a:	430b      	orrs	r3, r1
 8006c5c:	8383      	strh	r3, [r0, #28]
 8006c5e:	4770      	bx	lr

08006c60 <TIM_ForcedOC4Config>:
 8006c60:	8b83      	ldrh	r3, [r0, #28]
 8006c62:	f423 43e0 	bic.w	r3, r3, #28672	; 0x7000
 8006c66:	041b      	lsls	r3, r3, #16
 8006c68:	0c1b      	lsrs	r3, r3, #16
 8006c6a:	ea43 2301 	orr.w	r3, r3, r1, lsl #8
 8006c6e:	b29b      	uxth	r3, r3
 8006c70:	8383      	strh	r3, [r0, #28]
 8006c72:	4770      	bx	lr

08006c74 <TIM_OC1PreloadConfig>:
 8006c74:	8b03      	ldrh	r3, [r0, #24]
 8006c76:	f023 0308 	bic.w	r3, r3, #8
 8006c7a:	041b      	lsls	r3, r3, #16
 8006c7c:	0c1b      	lsrs	r3, r3, #16
 8006c7e:	430b      	orrs	r3, r1
 8006c80:	8303      	strh	r3, [r0, #24]
 8006c82:	4770      	bx	lr

08006c84 <TIM_OC2PreloadConfig>:
 8006c84:	8b03      	ldrh	r3, [r0, #24]
 8006c86:	f423 6300 	bic.w	r3, r3, #2048	; 0x800
 8006c8a:	041b      	lsls	r3, r3, #16
 8006c8c:	0c1b      	lsrs	r3, r3, #16
 8006c8e:	ea43 2301 	orr.w	r3, r3, r1, lsl #8
 8006c92:	b29b      	uxth	r3, r3
 8006c94:	8303      	strh	r3, [r0, #24]
 8006c96:	4770      	bx	lr

08006c98 <TIM_OC3PreloadConfig>:
 8006c98:	8b83      	ldrh	r3, [r0, #28]
 8006c9a:	f023 0308 	bic.w	r3, r3, #8
 8006c9e:	041b      	lsls	r3, r3, #16
 8006ca0:	0c1b      	lsrs	r3, r3, #16
 8006ca2:	430b      	orrs	r3, r1
 8006ca4:	8383      	strh	r3, [r0, #28]
 8006ca6:	4770      	bx	lr

08006ca8 <TIM_OC4PreloadConfig>:
 8006ca8:	8b83      	ldrh	r3, [r0, #28]
 8006caa:	f423 6300 	bic.w	r3, r3, #2048	; 0x800
 8006cae:	041b      	lsls	r3, r3, #16
 8006cb0:	0c1b      	lsrs	r3, r3, #16
 8006cb2:	ea43 2301 	orr.w	r3, r3, r1, lsl #8
 8006cb6:	b29b      	uxth	r3, r3
 8006cb8:	8383      	strh	r3, [r0, #28]
 8006cba:	4770      	bx	lr

08006cbc <TIM_OC1FastConfig>:
 8006cbc:	8b03      	ldrh	r3, [r0, #24]
 8006cbe:	f023 0304 	bic.w	r3, r3, #4
 8006cc2:	041b      	lsls	r3, r3, #16
 8006cc4:	0c1b      	lsrs	r3, r3, #16
 8006cc6:	430b      	orrs	r3, r1
 8006cc8:	8303      	strh	r3, [r0, #24]
 8006cca:	4770      	bx	lr

08006ccc <TIM_OC2FastConfig>:
 8006ccc:	8b03      	ldrh	r3, [r0, #24]
 8006cce:	f423 6380 	bic.w	r3, r3, #1024	; 0x400
 8006cd2:	041b      	lsls	r3, r3, #16
 8006cd4:	0c1b      	lsrs	r3, r3, #16
 8006cd6:	ea43 2301 	orr.w	r3, r3, r1, lsl #8
 8006cda:	b29b      	uxth	r3, r3
 8006cdc:	8303      	strh	r3, [r0, #24]
 8006cde:	4770      	bx	lr

08006ce0 <TIM_OC3FastConfig>:
 8006ce0:	8b83      	ldrh	r3, [r0, #28]
 8006ce2:	f023 0304 	bic.w	r3, r3, #4
 8006ce6:	041b      	lsls	r3, r3, #16
 8006ce8:	0c1b      	lsrs	r3, r3, #16
 8006cea:	430b      	orrs	r3, r1
 8006cec:	8383      	strh	r3, [r0, #28]
 8006cee:	4770      	bx	lr

08006cf0 <TIM_OC4FastConfig>:
 8006cf0:	8b83      	ldrh	r3, [r0, #28]
 8006cf2:	f423 6380 	bic.w	r3, r3, #1024	; 0x400
 8006cf6:	041b      	lsls	r3, r3, #16
 8006cf8:	0c1b      	lsrs	r3, r3, #16
 8006cfa:	ea43 2301 	orr.w	r3, r3, r1, lsl #8
 8006cfe:	b29b      	uxth	r3, r3
 8006d00:	8383      	strh	r3, [r0, #28]
 8006d02:	4770      	bx	lr

08006d04 <TIM_ClearOC1Ref>:
 8006d04:	8b03      	ldrh	r3, [r0, #24]
 8006d06:	f023 0380 	bic.w	r3, r3, #128	; 0x80
 8006d0a:	041b      	lsls	r3, r3, #16
 8006d0c:	0c1b      	lsrs	r3, r3, #16
 8006d0e:	430b      	orrs	r3, r1
 8006d10:	8303      	strh	r3, [r0, #24]
 8006d12:	4770      	bx	lr

08006d14 <TIM_ClearOC2Ref>:
 8006d14:	8b03      	ldrh	r3, [r0, #24]
 8006d16:	045b      	lsls	r3, r3, #17
 8006d18:	0c5b      	lsrs	r3, r3, #17
 8006d1a:	ea43 2301 	orr.w	r3, r3, r1, lsl #8
 8006d1e:	b29b      	uxth	r3, r3
 8006d20:	8303      	strh	r3, [r0, #24]
 8006d22:	4770      	bx	lr

08006d24 <TIM_ClearOC3Ref>:
 8006d24:	8b83      	ldrh	r3, [r0, #28]
 8006d26:	f023 0380 	bic.w	r3, r3, #128	; 0x80
 8006d2a:	041b      	lsls	r3, r3, #16
 8006d2c:	0c1b      	lsrs	r3, r3, #16
 8006d2e:	430b      	orrs	r3, r1
 8006d30:	8383      	strh	r3, [r0, #28]
 8006d32:	4770      	bx	lr

08006d34 <TIM_ClearOC4Ref>:
 8006d34:	8b83      	ldrh	r3, [r0, #28]
 8006d36:	045b      	lsls	r3, r3, #17
 8006d38:	0c5b      	lsrs	r3, r3, #17
 8006d3a:	ea43 2301 	orr.w	r3, r3, r1, lsl #8
 8006d3e:	b29b      	uxth	r3, r3
 8006d40:	8383      	strh	r3, [r0, #28]
 8006d42:	4770      	bx	lr

08006d44 <TIM_OC1PolarityConfig>:
 8006d44:	8c03      	ldrh	r3, [r0, #32]
 8006d46:	f023 0302 	bic.w	r3, r3, #2
 8006d4a:	041b      	lsls	r3, r3, #16
 8006d4c:	0c1b      	lsrs	r3, r3, #16
 8006d4e:	430b      	orrs	r3, r1
 8006d50:	8403      	strh	r3, [r0, #32]
 8006d52:	4770      	bx	lr

08006d54 <TIM_OC1NPolarityConfig>:
 8006d54:	8c03      	ldrh	r3, [r0, #32]
 8006d56:	f023 0308 	bic.w	r3, r3, #8
 8006d5a:	041b      	lsls	r3, r3, #16
 8006d5c:	0c1b      	lsrs	r3, r3, #16
 8006d5e:	430b      	orrs	r3, r1
 8006d60:	8403      	strh	r3, [r0, #32]
 8006d62:	4770      	bx	lr

08006d64 <TIM_OC2PolarityConfig>:
 8006d64:	8c03      	ldrh	r3, [r0, #32]
 8006d66:	f023 0320 	bic.w	r3, r3, #32
 8006d6a:	041b      	lsls	r3, r3, #16
 8006d6c:	0c1b      	lsrs	r3, r3, #16
 8006d6e:	ea43 1301 	orr.w	r3, r3, r1, lsl #4
 8006d72:	b29b      	uxth	r3, r3
 8006d74:	8403      	strh	r3, [r0, #32]
 8006d76:	4770      	bx	lr

08006d78 <TIM_OC2NPolarityConfig>:
 8006d78:	8c03      	ldrh	r3, [r0, #32]
 8006d7a:	f023 0380 	bic.w	r3, r3, #128	; 0x80
 8006d7e:	041b      	lsls	r3, r3, #16
 8006d80:	0c1b      	lsrs	r3, r3, #16
 8006d82:	ea43 1301 	orr.w	r3, r3, r1, lsl #4
 8006d86:	b29b      	uxth	r3, r3
 8006d88:	8403      	strh	r3, [r0, #32]
 8006d8a:	4770      	bx	lr

08006d8c <TIM_OC3PolarityConfig>:
 8006d8c:	8c03      	ldrh	r3, [r0, #32]
 8006d8e:	f423 7300 	bic.w	r3, r3, #512	; 0x200
 8006d92:	041b      	lsls	r3, r3, #16
 8006d94:	0c1b      	lsrs	r3, r3, #16
 8006d96:	ea43 2301 	orr.w	r3, r3, r1, lsl #8
 8006d9a:	b29b      	uxth	r3, r3
 8006d9c:	8403      	strh	r3, [r0, #32]
 8006d9e:	4770      	bx	lr

08006da0 <TIM_OC3NPolarityConfig>:
 8006da0:	8c03      	ldrh	r3, [r0, #32]
 8006da2:	f423 6300 	bic.w	r3, r3, #2048	; 0x800
 8006da6:	041b      	lsls	r3, r3, #16
 8006da8:	0c1b      	lsrs	r3, r3, #16
 8006daa:	ea43 2301 	orr.w	r3, r3, r1, lsl #8
 8006dae:	b29b      	uxth	r3, r3
 8006db0:	8403      	strh	r3, [r0, #32]
 8006db2:	4770      	bx	lr

08006db4 <TIM_OC4PolarityConfig>:
 8006db4:	8c03      	ldrh	r3, [r0, #32]
 8006db6:	f423 5300 	bic.w	r3, r3, #8192	; 0x2000
 8006dba:	041b      	lsls	r3, r3, #16
 8006dbc:	0c1b      	lsrs	r3, r3, #16
 8006dbe:	ea43 3301 	orr.w	r3, r3, r1, lsl #12
 8006dc2:	b29b      	uxth	r3, r3
 8006dc4:	8403      	strh	r3, [r0, #32]
 8006dc6:	4770      	bx	lr

08006dc8 <TIM_CCxCmd>:
 8006dc8:	b410      	push	{r4}
 8006dca:	8c04      	ldrh	r4, [r0, #32]
 8006dcc:	2301      	movs	r3, #1
 8006dce:	408b      	lsls	r3, r1
 8006dd0:	b2a4      	uxth	r4, r4
 8006dd2:	ea24 0303 	bic.w	r3, r4, r3
 8006dd6:	8403      	strh	r3, [r0, #32]
 8006dd8:	8c03      	ldrh	r3, [r0, #32]
 8006dda:	fa12 f101 	lsls.w	r1, r2, r1
 8006dde:	430b      	orrs	r3, r1
 8006de0:	b29b      	uxth	r3, r3
 8006de2:	8403      	strh	r3, [r0, #32]
 8006de4:	bc10      	pop	{r4}
 8006de6:	4770      	bx	lr

08006de8 <TIM_CCxNCmd>:
 8006de8:	b410      	push	{r4}
 8006dea:	8c04      	ldrh	r4, [r0, #32]
 8006dec:	2304      	movs	r3, #4
 8006dee:	408b      	lsls	r3, r1
 8006df0:	b2a4      	uxth	r4, r4
 8006df2:	ea24 0303 	bic.w	r3, r4, r3
 8006df6:	8403      	strh	r3, [r0, #32]
 8006df8:	8c03      	ldrh	r3, [r0, #32]
 8006dfa:	fa12 f101 	lsls.w	r1, r2, r1
 8006dfe:	430b      	orrs	r3, r1
 8006e00:	b29b      	uxth	r3, r3
 8006e02:	8403      	strh	r3, [r0, #32]
 8006e04:	bc10      	pop	{r4}
 8006e06:	4770      	bx	lr

08006e08 <TIM_ICInit>:
 8006e08:	880b      	ldrh	r3, [r1, #0]
 8006e0a:	b4f0      	push	{r4, r5, r6, r7}
 8006e0c:	2b00      	cmp	r3, #0
 8006e0e:	d032      	beq.n	8006e76 <TIM_ICInit+0x6e>
 8006e10:	2b04      	cmp	r3, #4
 8006e12:	d058      	beq.n	8006ec6 <TIM_ICInit+0xbe>
 8006e14:	2b08      	cmp	r3, #8
 8006e16:	884e      	ldrh	r6, [r1, #2]
 8006e18:	8c03      	ldrh	r3, [r0, #32]
 8006e1a:	f000 8082 	beq.w	8006f22 <TIM_ICInit+0x11a>
 8006e1e:	888f      	ldrh	r7, [r1, #4]
 8006e20:	890d      	ldrh	r5, [r1, #8]
 8006e22:	88cc      	ldrh	r4, [r1, #6]
 8006e24:	f423 5180 	bic.w	r1, r3, #4096	; 0x1000
 8006e28:	0409      	lsls	r1, r1, #16
 8006e2a:	0c09      	lsrs	r1, r1, #16
 8006e2c:	8401      	strh	r1, [r0, #32]
 8006e2e:	8b82      	ldrh	r2, [r0, #28]
 8006e30:	8c03      	ldrh	r3, [r0, #32]
 8006e32:	f422 7240 	bic.w	r2, r2, #768	; 0x300
 8006e36:	f423 5300 	bic.w	r3, r3, #8192	; 0x2000
 8006e3a:	0512      	lsls	r2, r2, #20
 8006e3c:	045b      	lsls	r3, r3, #17
 8006e3e:	0d12      	lsrs	r2, r2, #20
 8006e40:	0c5b      	lsrs	r3, r3, #17
 8006e42:	ea42 2207 	orr.w	r2, r2, r7, lsl #8
 8006e46:	ea43 3306 	orr.w	r3, r3, r6, lsl #12
 8006e4a:	ea42 3205 	orr.w	r2, r2, r5, lsl #12
 8006e4e:	b29b      	uxth	r3, r3
 8006e50:	f443 5380 	orr.w	r3, r3, #4096	; 0x1000
 8006e54:	b292      	uxth	r2, r2
 8006e56:	8382      	strh	r2, [r0, #28]
 8006e58:	8403      	strh	r3, [r0, #32]
 8006e5a:	8b83      	ldrh	r3, [r0, #28]
 8006e5c:	f423 6340 	bic.w	r3, r3, #3072	; 0xc00
 8006e60:	041b      	lsls	r3, r3, #16
 8006e62:	0c1b      	lsrs	r3, r3, #16
 8006e64:	8383      	strh	r3, [r0, #28]
 8006e66:	8b83      	ldrh	r3, [r0, #28]
 8006e68:	b29b      	uxth	r3, r3
 8006e6a:	ea43 2304 	orr.w	r3, r3, r4, lsl #8
 8006e6e:	b29b      	uxth	r3, r3
 8006e70:	8383      	strh	r3, [r0, #28]
 8006e72:	bcf0      	pop	{r4, r5, r6, r7}
 8006e74:	4770      	bx	lr
 8006e76:	8c03      	ldrh	r3, [r0, #32]
 8006e78:	884e      	ldrh	r6, [r1, #2]
 8006e7a:	888d      	ldrh	r5, [r1, #4]
 8006e7c:	890f      	ldrh	r7, [r1, #8]
 8006e7e:	88cc      	ldrh	r4, [r1, #6]
 8006e80:	f023 0101 	bic.w	r1, r3, #1
 8006e84:	0409      	lsls	r1, r1, #16
 8006e86:	0c09      	lsrs	r1, r1, #16
 8006e88:	8401      	strh	r1, [r0, #32]
 8006e8a:	8b02      	ldrh	r2, [r0, #24]
 8006e8c:	8c03      	ldrh	r3, [r0, #32]
 8006e8e:	f022 02f3 	bic.w	r2, r2, #243	; 0xf3
 8006e92:	0412      	lsls	r2, r2, #16
 8006e94:	0c12      	lsrs	r2, r2, #16
 8006e96:	f023 030a 	bic.w	r3, r3, #10
 8006e9a:	ea42 1207 	orr.w	r2, r2, r7, lsl #4
 8006e9e:	041b      	lsls	r3, r3, #16
 8006ea0:	b292      	uxth	r2, r2
 8006ea2:	0c1b      	lsrs	r3, r3, #16
 8006ea4:	f046 0101 	orr.w	r1, r6, #1
 8006ea8:	430b      	orrs	r3, r1
 8006eaa:	432a      	orrs	r2, r5
 8006eac:	8302      	strh	r2, [r0, #24]
 8006eae:	8403      	strh	r3, [r0, #32]
 8006eb0:	8b03      	ldrh	r3, [r0, #24]
 8006eb2:	f023 030c 	bic.w	r3, r3, #12
 8006eb6:	041b      	lsls	r3, r3, #16
 8006eb8:	0c1b      	lsrs	r3, r3, #16
 8006eba:	8303      	strh	r3, [r0, #24]
 8006ebc:	8b03      	ldrh	r3, [r0, #24]
 8006ebe:	b29b      	uxth	r3, r3
 8006ec0:	4323      	orrs	r3, r4
 8006ec2:	8303      	strh	r3, [r0, #24]
 8006ec4:	e7d5      	b.n	8006e72 <TIM_ICInit+0x6a>
 8006ec6:	8c03      	ldrh	r3, [r0, #32]
 8006ec8:	884e      	ldrh	r6, [r1, #2]
 8006eca:	888d      	ldrh	r5, [r1, #4]
 8006ecc:	890f      	ldrh	r7, [r1, #8]
 8006ece:	88cc      	ldrh	r4, [r1, #6]
 8006ed0:	f023 0110 	bic.w	r1, r3, #16
 8006ed4:	0409      	lsls	r1, r1, #16
 8006ed6:	0c09      	lsrs	r1, r1, #16
 8006ed8:	8401      	strh	r1, [r0, #32]
 8006eda:	8b02      	ldrh	r2, [r0, #24]
 8006edc:	8c03      	ldrh	r3, [r0, #32]
 8006ede:	f422 7240 	bic.w	r2, r2, #768	; 0x300
 8006ee2:	0512      	lsls	r2, r2, #20
 8006ee4:	f023 03a0 	bic.w	r3, r3, #160	; 0xa0
 8006ee8:	0d12      	lsrs	r2, r2, #20
 8006eea:	041b      	lsls	r3, r3, #16
 8006eec:	ea42 3207 	orr.w	r2, r2, r7, lsl #12
 8006ef0:	0c1b      	lsrs	r3, r3, #16
 8006ef2:	b292      	uxth	r2, r2
 8006ef4:	ea43 1306 	orr.w	r3, r3, r6, lsl #4
 8006ef8:	ea42 2205 	orr.w	r2, r2, r5, lsl #8
 8006efc:	b29b      	uxth	r3, r3
 8006efe:	f043 0310 	orr.w	r3, r3, #16
 8006f02:	b292      	uxth	r2, r2
 8006f04:	8302      	strh	r2, [r0, #24]
 8006f06:	8403      	strh	r3, [r0, #32]
 8006f08:	8b03      	ldrh	r3, [r0, #24]
 8006f0a:	f423 6340 	bic.w	r3, r3, #3072	; 0xc00
 8006f0e:	041b      	lsls	r3, r3, #16
 8006f10:	0c1b      	lsrs	r3, r3, #16
 8006f12:	8303      	strh	r3, [r0, #24]
 8006f14:	8b03      	ldrh	r3, [r0, #24]
 8006f16:	b29b      	uxth	r3, r3
 8006f18:	ea43 2304 	orr.w	r3, r3, r4, lsl #8
 8006f1c:	b29b      	uxth	r3, r3
 8006f1e:	8303      	strh	r3, [r0, #24]
 8006f20:	e7a7      	b.n	8006e72 <TIM_ICInit+0x6a>
 8006f22:	888d      	ldrh	r5, [r1, #4]
 8006f24:	890f      	ldrh	r7, [r1, #8]
 8006f26:	88cc      	ldrh	r4, [r1, #6]
 8006f28:	f423 7180 	bic.w	r1, r3, #256	; 0x100
 8006f2c:	0409      	lsls	r1, r1, #16
 8006f2e:	0c09      	lsrs	r1, r1, #16
 8006f30:	8401      	strh	r1, [r0, #32]
 8006f32:	8b82      	ldrh	r2, [r0, #28]
 8006f34:	8c03      	ldrh	r3, [r0, #32]
 8006f36:	f022 02f3 	bic.w	r2, r2, #243	; 0xf3
 8006f3a:	f423 6320 	bic.w	r3, r3, #2560	; 0xa00
 8006f3e:	0412      	lsls	r2, r2, #16
 8006f40:	041b      	lsls	r3, r3, #16
 8006f42:	0c12      	lsrs	r2, r2, #16
 8006f44:	0c1b      	lsrs	r3, r3, #16
 8006f46:	ea42 1207 	orr.w	r2, r2, r7, lsl #4
 8006f4a:	ea43 2306 	orr.w	r3, r3, r6, lsl #8
 8006f4e:	b292      	uxth	r2, r2
 8006f50:	b29b      	uxth	r3, r3
 8006f52:	f443 7380 	orr.w	r3, r3, #256	; 0x100
 8006f56:	432a      	orrs	r2, r5
 8006f58:	8382      	strh	r2, [r0, #28]
 8006f5a:	8403      	strh	r3, [r0, #32]
 8006f5c:	8b83      	ldrh	r3, [r0, #28]
 8006f5e:	f023 030c 	bic.w	r3, r3, #12
 8006f62:	041b      	lsls	r3, r3, #16
 8006f64:	0c1b      	lsrs	r3, r3, #16
 8006f66:	8383      	strh	r3, [r0, #28]
 8006f68:	8b83      	ldrh	r3, [r0, #28]
 8006f6a:	b29b      	uxth	r3, r3
 8006f6c:	4323      	orrs	r3, r4
 8006f6e:	8383      	strh	r3, [r0, #28]
 8006f70:	e77f      	b.n	8006e72 <TIM_ICInit+0x6a>
 8006f72:	bf00      	nop

08006f74 <TIM_ICStructInit>:
 8006f74:	2300      	movs	r3, #0
 8006f76:	2201      	movs	r2, #1
 8006f78:	8003      	strh	r3, [r0, #0]
 8006f7a:	8043      	strh	r3, [r0, #2]
 8006f7c:	8082      	strh	r2, [r0, #4]
 8006f7e:	80c3      	strh	r3, [r0, #6]
 8006f80:	8103      	strh	r3, [r0, #8]
 8006f82:	4770      	bx	lr

08006f84 <TIM_PWMIConfig>:
 8006f84:	e92d 01f0 	stmdb	sp!, {r4, r5, r6, r7, r8}
 8006f88:	888a      	ldrh	r2, [r1, #4]
 8006f8a:	f8b1 8002 	ldrh.w	r8, [r1, #2]
 8006f8e:	880b      	ldrh	r3, [r1, #0]
 8006f90:	f1b8 0f00 	cmp.w	r8, #0
 8006f94:	bf0c      	ite	eq
 8006f96:	2502      	moveq	r5, #2
 8006f98:	2500      	movne	r5, #0
 8006f9a:	2a01      	cmp	r2, #1
 8006f9c:	bf14      	ite	ne
 8006f9e:	f44f 7480 	movne.w	r4, #256	; 0x100
 8006fa2:	f44f 7400 	moveq.w	r4, #512	; 0x200
 8006fa6:	bf14      	ite	ne
 8006fa8:	f04f 0c01 	movne.w	ip, #1
 8006fac:	f04f 0c02 	moveq.w	ip, #2
 8006fb0:	2b00      	cmp	r3, #0
 8006fb2:	d052      	beq.n	800705a <TIM_PWMIConfig+0xd6>
 8006fb4:	8c03      	ldrh	r3, [r0, #32]
 8006fb6:	890f      	ldrh	r7, [r1, #8]
 8006fb8:	88ce      	ldrh	r6, [r1, #6]
 8006fba:	f023 0310 	bic.w	r3, r3, #16
 8006fbe:	041b      	lsls	r3, r3, #16
 8006fc0:	0c1b      	lsrs	r3, r3, #16
 8006fc2:	8403      	strh	r3, [r0, #32]
 8006fc4:	8b04      	ldrh	r4, [r0, #24]
 8006fc6:	8c01      	ldrh	r1, [r0, #32]
 8006fc8:	f424 7440 	bic.w	r4, r4, #768	; 0x300
 8006fcc:	0524      	lsls	r4, r4, #20
 8006fce:	f021 01a0 	bic.w	r1, r1, #160	; 0xa0
 8006fd2:	0d24      	lsrs	r4, r4, #20
 8006fd4:	0409      	lsls	r1, r1, #16
 8006fd6:	ea44 3407 	orr.w	r4, r4, r7, lsl #12
 8006fda:	0c09      	lsrs	r1, r1, #16
 8006fdc:	b2a4      	uxth	r4, r4
 8006fde:	ea41 1108 	orr.w	r1, r1, r8, lsl #4
 8006fe2:	ea44 2202 	orr.w	r2, r4, r2, lsl #8
 8006fe6:	b289      	uxth	r1, r1
 8006fe8:	b292      	uxth	r2, r2
 8006fea:	f041 0110 	orr.w	r1, r1, #16
 8006fee:	8302      	strh	r2, [r0, #24]
 8006ff0:	8401      	strh	r1, [r0, #32]
 8006ff2:	8b01      	ldrh	r1, [r0, #24]
 8006ff4:	f421 6140 	bic.w	r1, r1, #3072	; 0xc00
 8006ff8:	0409      	lsls	r1, r1, #16
 8006ffa:	0c09      	lsrs	r1, r1, #16
 8006ffc:	8301      	strh	r1, [r0, #24]
 8006ffe:	8b03      	ldrh	r3, [r0, #24]
 8007000:	b29b      	uxth	r3, r3
 8007002:	ea43 2306 	orr.w	r3, r3, r6, lsl #8
 8007006:	b29b      	uxth	r3, r3
 8007008:	8303      	strh	r3, [r0, #24]
 800700a:	8c01      	ldrh	r1, [r0, #32]
 800700c:	f021 0101 	bic.w	r1, r1, #1
 8007010:	0409      	lsls	r1, r1, #16
 8007012:	0c09      	lsrs	r1, r1, #16
 8007014:	8401      	strh	r1, [r0, #32]
 8007016:	8b02      	ldrh	r2, [r0, #24]
 8007018:	8c03      	ldrh	r3, [r0, #32]
 800701a:	f022 02f3 	bic.w	r2, r2, #243	; 0xf3
 800701e:	0412      	lsls	r2, r2, #16
 8007020:	f023 030a 	bic.w	r3, r3, #10
 8007024:	0c12      	lsrs	r2, r2, #16
 8007026:	041b      	lsls	r3, r3, #16
 8007028:	ea42 1207 	orr.w	r2, r2, r7, lsl #4
 800702c:	0c1b      	lsrs	r3, r3, #16
 800702e:	f043 0301 	orr.w	r3, r3, #1
 8007032:	b292      	uxth	r2, r2
 8007034:	431d      	orrs	r5, r3
 8007036:	ea42 0c0c 	orr.w	ip, r2, ip
 800703a:	f8a0 c018 	strh.w	ip, [r0, #24]
 800703e:	8405      	strh	r5, [r0, #32]
 8007040:	8b03      	ldrh	r3, [r0, #24]
 8007042:	f023 030c 	bic.w	r3, r3, #12
 8007046:	041b      	lsls	r3, r3, #16
 8007048:	0c1b      	lsrs	r3, r3, #16
 800704a:	8303      	strh	r3, [r0, #24]
 800704c:	8b03      	ldrh	r3, [r0, #24]
 800704e:	b29b      	uxth	r3, r3
 8007050:	431e      	orrs	r6, r3
 8007052:	8306      	strh	r6, [r0, #24]
 8007054:	e8bd 01f0 	ldmia.w	sp!, {r4, r5, r6, r7, r8}
 8007058:	4770      	bx	lr
 800705a:	8c03      	ldrh	r3, [r0, #32]
 800705c:	890f      	ldrh	r7, [r1, #8]
 800705e:	88ce      	ldrh	r6, [r1, #6]
 8007060:	f023 0301 	bic.w	r3, r3, #1
 8007064:	041b      	lsls	r3, r3, #16
 8007066:	0c1b      	lsrs	r3, r3, #16
 8007068:	8403      	strh	r3, [r0, #32]
 800706a:	8b01      	ldrh	r1, [r0, #24]
 800706c:	8c03      	ldrh	r3, [r0, #32]
 800706e:	f021 01f3 	bic.w	r1, r1, #243	; 0xf3
 8007072:	0409      	lsls	r1, r1, #16
 8007074:	0c09      	lsrs	r1, r1, #16
 8007076:	f023 030a 	bic.w	r3, r3, #10
 800707a:	ea41 1107 	orr.w	r1, r1, r7, lsl #4
 800707e:	041b      	lsls	r3, r3, #16
 8007080:	b289      	uxth	r1, r1
 8007082:	0c1b      	lsrs	r3, r3, #16
 8007084:	f048 0801 	orr.w	r8, r8, #1
 8007088:	430a      	orrs	r2, r1
 800708a:	ea43 0308 	orr.w	r3, r3, r8
 800708e:	8302      	strh	r2, [r0, #24]
 8007090:	8403      	strh	r3, [r0, #32]
 8007092:	8b03      	ldrh	r3, [r0, #24]
 8007094:	f023 030c 	bic.w	r3, r3, #12
 8007098:	041b      	lsls	r3, r3, #16
 800709a:	0c1b      	lsrs	r3, r3, #16
 800709c:	8303      	strh	r3, [r0, #24]
 800709e:	8b03      	ldrh	r3, [r0, #24]
 80070a0:	b29b      	uxth	r3, r3
 80070a2:	4333      	orrs	r3, r6
 80070a4:	8303      	strh	r3, [r0, #24]
 80070a6:	8c03      	ldrh	r3, [r0, #32]
 80070a8:	f023 0310 	bic.w	r3, r3, #16
 80070ac:	041b      	lsls	r3, r3, #16
 80070ae:	0c1b      	lsrs	r3, r3, #16
 80070b0:	8403      	strh	r3, [r0, #32]
 80070b2:	8b02      	ldrh	r2, [r0, #24]
 80070b4:	8c03      	ldrh	r3, [r0, #32]
 80070b6:	f422 7240 	bic.w	r2, r2, #768	; 0x300
 80070ba:	0512      	lsls	r2, r2, #20
 80070bc:	f023 03a0 	bic.w	r3, r3, #160	; 0xa0
 80070c0:	0d12      	lsrs	r2, r2, #20
 80070c2:	041b      	lsls	r3, r3, #16
 80070c4:	ea42 3207 	orr.w	r2, r2, r7, lsl #12
 80070c8:	0c1b      	lsrs	r3, r3, #16
 80070ca:	f043 0310 	orr.w	r3, r3, #16
 80070ce:	b292      	uxth	r2, r2
 80070d0:	ea43 1505 	orr.w	r5, r3, r5, lsl #4
 80070d4:	4314      	orrs	r4, r2
 80070d6:	8304      	strh	r4, [r0, #24]
 80070d8:	8405      	strh	r5, [r0, #32]
 80070da:	8b03      	ldrh	r3, [r0, #24]
 80070dc:	f423 6340 	bic.w	r3, r3, #3072	; 0xc00
 80070e0:	041b      	lsls	r3, r3, #16
 80070e2:	0c1b      	lsrs	r3, r3, #16
 80070e4:	8303      	strh	r3, [r0, #24]
 80070e6:	8b03      	ldrh	r3, [r0, #24]
 80070e8:	b29b      	uxth	r3, r3
 80070ea:	ea43 2606 	orr.w	r6, r3, r6, lsl #8
 80070ee:	b2b6      	uxth	r6, r6
 80070f0:	8306      	strh	r6, [r0, #24]
 80070f2:	e7af      	b.n	8007054 <TIM_PWMIConfig+0xd0>

080070f4 <TIM_GetCapture1>:
 80070f4:	6b40      	ldr	r0, [r0, #52]	; 0x34
 80070f6:	4770      	bx	lr

080070f8 <TIM_GetCapture2>:
 80070f8:	6b80      	ldr	r0, [r0, #56]	; 0x38
 80070fa:	4770      	bx	lr

080070fc <TIM_GetCapture3>:
 80070fc:	6bc0      	ldr	r0, [r0, #60]	; 0x3c
 80070fe:	4770      	bx	lr

08007100 <TIM_GetCapture4>:
 8007100:	6c00      	ldr	r0, [r0, #64]	; 0x40
 8007102:	4770      	bx	lr

08007104 <TIM_SetIC1Prescaler>:
 8007104:	8b03      	ldrh	r3, [r0, #24]
 8007106:	f023 030c 	bic.w	r3, r3, #12
 800710a:	041b      	lsls	r3, r3, #16
 800710c:	0c1b      	lsrs	r3, r3, #16
 800710e:	8303      	strh	r3, [r0, #24]
 8007110:	8b03      	ldrh	r3, [r0, #24]
 8007112:	b29b      	uxth	r3, r3
 8007114:	430b      	orrs	r3, r1
 8007116:	8303      	strh	r3, [r0, #24]
 8007118:	4770      	bx	lr
 800711a:	bf00      	nop

0800711c <TIM_SetIC2Prescaler>:
 800711c:	8b03      	ldrh	r3, [r0, #24]
 800711e:	f423 6340 	bic.w	r3, r3, #3072	; 0xc00
 8007122:	041b      	lsls	r3, r3, #16
 8007124:	0c1b      	lsrs	r3, r3, #16
 8007126:	8303      	strh	r3, [r0, #24]
 8007128:	8b03      	ldrh	r3, [r0, #24]
 800712a:	b29b      	uxth	r3, r3
 800712c:	ea43 2301 	orr.w	r3, r3, r1, lsl #8
 8007130:	b29b      	uxth	r3, r3
 8007132:	8303      	strh	r3, [r0, #24]
 8007134:	4770      	bx	lr
 8007136:	bf00      	nop

08007138 <TIM_SetIC3Prescaler>:
 8007138:	8b83      	ldrh	r3, [r0, #28]
 800713a:	f023 030c 	bic.w	r3, r3, #12
 800713e:	041b      	lsls	r3, r3, #16
 8007140:	0c1b      	lsrs	r3, r3, #16
 8007142:	8383      	strh	r3, [r0, #28]
 8007144:	8b83      	ldrh	r3, [r0, #28]
 8007146:	b29b      	uxth	r3, r3
 8007148:	430b      	orrs	r3, r1
 800714a:	8383      	strh	r3, [r0, #28]
 800714c:	4770      	bx	lr
 800714e:	bf00      	nop

08007150 <TIM_SetIC4Prescaler>:
 8007150:	8b83      	ldrh	r3, [r0, #28]
 8007152:	f423 6340 	bic.w	r3, r3, #3072	; 0xc00
 8007156:	041b      	lsls	r3, r3, #16
 8007158:	0c1b      	lsrs	r3, r3, #16
 800715a:	8383      	strh	r3, [r0, #28]
 800715c:	8b83      	ldrh	r3, [r0, #28]
 800715e:	b29b      	uxth	r3, r3
 8007160:	ea43 2301 	orr.w	r3, r3, r1, lsl #8
 8007164:	b29b      	uxth	r3, r3
 8007166:	8383      	strh	r3, [r0, #28]
 8007168:	4770      	bx	lr
 800716a:	bf00      	nop

0800716c <TIM_BDTRConfig>:
 800716c:	f8b1 c002 	ldrh.w	ip, [r1, #2]
 8007170:	880b      	ldrh	r3, [r1, #0]
 8007172:	898a      	ldrh	r2, [r1, #12]
 8007174:	b4f0      	push	{r4, r5, r6, r7}
 8007176:	888f      	ldrh	r7, [r1, #4]
 8007178:	88ce      	ldrh	r6, [r1, #6]
 800717a:	890d      	ldrh	r5, [r1, #8]
 800717c:	894c      	ldrh	r4, [r1, #10]
 800717e:	ea4c 0303 	orr.w	r3, ip, r3
 8007182:	433b      	orrs	r3, r7
 8007184:	4333      	orrs	r3, r6
 8007186:	432b      	orrs	r3, r5
 8007188:	4323      	orrs	r3, r4
 800718a:	4313      	orrs	r3, r2
 800718c:	b29b      	uxth	r3, r3
 800718e:	f8a0 3044 	strh.w	r3, [r0, #68]	; 0x44
 8007192:	bcf0      	pop	{r4, r5, r6, r7}
 8007194:	4770      	bx	lr
 8007196:	bf00      	nop

08007198 <TIM_BDTRStructInit>:
 8007198:	2300      	movs	r3, #0
 800719a:	8003      	strh	r3, [r0, #0]
 800719c:	8043      	strh	r3, [r0, #2]
 800719e:	8083      	strh	r3, [r0, #4]
 80071a0:	80c3      	strh	r3, [r0, #6]
 80071a2:	8103      	strh	r3, [r0, #8]
 80071a4:	8143      	strh	r3, [r0, #10]
 80071a6:	8183      	strh	r3, [r0, #12]
 80071a8:	4770      	bx	lr
 80071aa:	bf00      	nop

080071ac <TIM_CtrlPWMOutputs>:
 80071ac:	f8b0 3044 	ldrh.w	r3, [r0, #68]	; 0x44
 80071b0:	b921      	cbnz	r1, 80071bc <TIM_CtrlPWMOutputs+0x10>
 80071b2:	045b      	lsls	r3, r3, #17
 80071b4:	0c5b      	lsrs	r3, r3, #17
 80071b6:	f8a0 3044 	strh.w	r3, [r0, #68]	; 0x44
 80071ba:	4770      	bx	lr
 80071bc:	ea6f 4343 	mvn.w	r3, r3, lsl #17
 80071c0:	ea6f 4353 	mvn.w	r3, r3, lsr #17
 80071c4:	b29b      	uxth	r3, r3
 80071c6:	f8a0 3044 	strh.w	r3, [r0, #68]	; 0x44
 80071ca:	4770      	bx	lr

080071cc <TIM_SelectCOM>:
 80071cc:	8883      	ldrh	r3, [r0, #4]
 80071ce:	b929      	cbnz	r1, 80071dc <TIM_SelectCOM+0x10>
 80071d0:	f023 0304 	bic.w	r3, r3, #4
 80071d4:	041b      	lsls	r3, r3, #16
 80071d6:	0c1b      	lsrs	r3, r3, #16
 80071d8:	8083      	strh	r3, [r0, #4]
 80071da:	4770      	bx	lr
 80071dc:	b29b      	uxth	r3, r3
 80071de:	f043 0304 	orr.w	r3, r3, #4
 80071e2:	8083      	strh	r3, [r0, #4]
 80071e4:	4770      	bx	lr
 80071e6:	bf00      	nop

080071e8 <TIM_CCPreloadControl>:
 80071e8:	8883      	ldrh	r3, [r0, #4]
 80071ea:	b929      	cbnz	r1, 80071f8 <TIM_CCPreloadControl+0x10>
 80071ec:	f023 0301 	bic.w	r3, r3, #1
 80071f0:	041b      	lsls	r3, r3, #16
 80071f2:	0c1b      	lsrs	r3, r3, #16
 80071f4:	8083      	strh	r3, [r0, #4]
 80071f6:	4770      	bx	lr
 80071f8:	b29b      	uxth	r3, r3
 80071fa:	f043 0301 	orr.w	r3, r3, #1
 80071fe:	8083      	strh	r3, [r0, #4]
 8007200:	4770      	bx	lr
 8007202:	bf00      	nop

08007204 <TIM_ITConfig>:
 8007204:	8983      	ldrh	r3, [r0, #12]
 8007206:	b29b      	uxth	r3, r3
 8007208:	b91a      	cbnz	r2, 8007212 <TIM_ITConfig+0xe>
 800720a:	ea23 0101 	bic.w	r1, r3, r1
 800720e:	8181      	strh	r1, [r0, #12]
 8007210:	4770      	bx	lr
 8007212:	4319      	orrs	r1, r3
 8007214:	8181      	strh	r1, [r0, #12]
 8007216:	4770      	bx	lr

08007218 <TIM_GenerateEvent>:
 8007218:	8281      	strh	r1, [r0, #20]
 800721a:	4770      	bx	lr

0800721c <TIM_GetFlagStatus>:
 800721c:	8a03      	ldrh	r3, [r0, #16]
 800721e:	4219      	tst	r1, r3
 8007220:	bf0c      	ite	eq
 8007222:	2000      	moveq	r0, #0
 8007224:	2001      	movne	r0, #1
 8007226:	4770      	bx	lr

08007228 <TIM_ClearFlag>:
 8007228:	43c9      	mvns	r1, r1
 800722a:	b289      	uxth	r1, r1
 800722c:	8201      	strh	r1, [r0, #16]
 800722e:	4770      	bx	lr

08007230 <TIM_GetITStatus>:
 8007230:	8a03      	ldrh	r3, [r0, #16]
 8007232:	8982      	ldrh	r2, [r0, #12]
 8007234:	4211      	tst	r1, r2
 8007236:	bf0c      	ite	eq
 8007238:	2000      	moveq	r0, #0
 800723a:	2001      	movne	r0, #1
 800723c:	4219      	tst	r1, r3
 800723e:	bf0c      	ite	eq
 8007240:	2000      	moveq	r0, #0
 8007242:	f000 0001 	andne.w	r0, r0, #1
 8007246:	4770      	bx	lr

08007248 <TIM_ClearITPendingBit>:
 8007248:	43c9      	mvns	r1, r1
 800724a:	b289      	uxth	r1, r1
 800724c:	8201      	strh	r1, [r0, #16]
 800724e:	4770      	bx	lr

08007250 <TIM_DMAConfig>:
 8007250:	430a      	orrs	r2, r1
 8007252:	f8a0 2048 	strh.w	r2, [r0, #72]	; 0x48
 8007256:	4770      	bx	lr

08007258 <TIM_DMACmd>:
 8007258:	8983      	ldrh	r3, [r0, #12]
 800725a:	b29b      	uxth	r3, r3
 800725c:	b91a      	cbnz	r2, 8007266 <TIM_DMACmd+0xe>
 800725e:	ea23 0101 	bic.w	r1, r3, r1
 8007262:	8181      	strh	r1, [r0, #12]
 8007264:	4770      	bx	lr
 8007266:	4319      	orrs	r1, r3
 8007268:	8181      	strh	r1, [r0, #12]
 800726a:	4770      	bx	lr

0800726c <TIM_SelectCCDMA>:
 800726c:	8883      	ldrh	r3, [r0, #4]
 800726e:	b929      	cbnz	r1, 800727c <TIM_SelectCCDMA+0x10>
 8007270:	f023 0308 	bic.w	r3, r3, #8
 8007274:	041b      	lsls	r3, r3, #16
 8007276:	0c1b      	lsrs	r3, r3, #16
 8007278:	8083      	strh	r3, [r0, #4]
 800727a:	4770      	bx	lr
 800727c:	b29b      	uxth	r3, r3
 800727e:	f043 0308 	orr.w	r3, r3, #8
 8007282:	8083      	strh	r3, [r0, #4]
 8007284:	4770      	bx	lr
 8007286:	bf00      	nop

08007288 <TIM_InternalClockConfig>:
 8007288:	8903      	ldrh	r3, [r0, #8]
 800728a:	f023 0307 	bic.w	r3, r3, #7
 800728e:	041b      	lsls	r3, r3, #16
 8007290:	0c1b      	lsrs	r3, r3, #16
 8007292:	8103      	strh	r3, [r0, #8]
 8007294:	4770      	bx	lr
 8007296:	bf00      	nop

08007298 <TIM_ITRxExternalClockConfig>:
 8007298:	8903      	ldrh	r3, [r0, #8]
 800729a:	f023 0370 	bic.w	r3, r3, #112	; 0x70
 800729e:	041b      	lsls	r3, r3, #16
 80072a0:	0c1b      	lsrs	r3, r3, #16
 80072a2:	430b      	orrs	r3, r1
 80072a4:	8103      	strh	r3, [r0, #8]
 80072a6:	8903      	ldrh	r3, [r0, #8]
 80072a8:	b29b      	uxth	r3, r3
 80072aa:	f043 0307 	orr.w	r3, r3, #7
 80072ae:	8103      	strh	r3, [r0, #8]
 80072b0:	4770      	bx	lr
 80072b2:	bf00      	nop

080072b4 <TIM_TIxExternalClockConfig>:
 80072b4:	2960      	cmp	r1, #96	; 0x60
 80072b6:	b430      	push	{r4, r5}
 80072b8:	8c04      	ldrh	r4, [r0, #32]
 80072ba:	d026      	beq.n	800730a <TIM_TIxExternalClockConfig+0x56>
 80072bc:	f024 0401 	bic.w	r4, r4, #1
 80072c0:	0424      	lsls	r4, r4, #16
 80072c2:	0c24      	lsrs	r4, r4, #16
 80072c4:	8404      	strh	r4, [r0, #32]
 80072c6:	8b05      	ldrh	r5, [r0, #24]
 80072c8:	8c04      	ldrh	r4, [r0, #32]
 80072ca:	f025 05f3 	bic.w	r5, r5, #243	; 0xf3
 80072ce:	042d      	lsls	r5, r5, #16
 80072d0:	f024 040a 	bic.w	r4, r4, #10
 80072d4:	0c2d      	lsrs	r5, r5, #16
 80072d6:	0424      	lsls	r4, r4, #16
 80072d8:	f045 0501 	orr.w	r5, r5, #1
 80072dc:	0c24      	lsrs	r4, r4, #16
 80072de:	ea45 1303 	orr.w	r3, r5, r3, lsl #4
 80072e2:	f044 0401 	orr.w	r4, r4, #1
 80072e6:	b29b      	uxth	r3, r3
 80072e8:	4322      	orrs	r2, r4
 80072ea:	8303      	strh	r3, [r0, #24]
 80072ec:	8402      	strh	r2, [r0, #32]
 80072ee:	8903      	ldrh	r3, [r0, #8]
 80072f0:	f023 0370 	bic.w	r3, r3, #112	; 0x70
 80072f4:	041b      	lsls	r3, r3, #16
 80072f6:	0c1b      	lsrs	r3, r3, #16
 80072f8:	4319      	orrs	r1, r3
 80072fa:	8101      	strh	r1, [r0, #8]
 80072fc:	8903      	ldrh	r3, [r0, #8]
 80072fe:	b29b      	uxth	r3, r3
 8007300:	f043 0307 	orr.w	r3, r3, #7
 8007304:	8103      	strh	r3, [r0, #8]
 8007306:	bc30      	pop	{r4, r5}
 8007308:	4770      	bx	lr
 800730a:	f024 0410 	bic.w	r4, r4, #16
 800730e:	0424      	lsls	r4, r4, #16
 8007310:	0c24      	lsrs	r4, r4, #16
 8007312:	8404      	strh	r4, [r0, #32]
 8007314:	8b05      	ldrh	r5, [r0, #24]
 8007316:	8c04      	ldrh	r4, [r0, #32]
 8007318:	f425 7540 	bic.w	r5, r5, #768	; 0x300
 800731c:	f024 04a0 	bic.w	r4, r4, #160	; 0xa0
 8007320:	052d      	lsls	r5, r5, #20
 8007322:	0424      	lsls	r4, r4, #16
 8007324:	0d2d      	lsrs	r5, r5, #20
 8007326:	0c24      	lsrs	r4, r4, #16
 8007328:	f445 7580 	orr.w	r5, r5, #256	; 0x100
 800732c:	f044 0410 	orr.w	r4, r4, #16
 8007330:	ea45 3303 	orr.w	r3, r5, r3, lsl #12
 8007334:	ea44 1202 	orr.w	r2, r4, r2, lsl #4
 8007338:	b29b      	uxth	r3, r3
 800733a:	b292      	uxth	r2, r2
 800733c:	8303      	strh	r3, [r0, #24]
 800733e:	8402      	strh	r2, [r0, #32]
 8007340:	e7d5      	b.n	80072ee <TIM_TIxExternalClockConfig+0x3a>
 8007342:	bf00      	nop

08007344 <TIM_ETRClockMode1Config>:
 8007344:	b410      	push	{r4}
 8007346:	8904      	ldrh	r4, [r0, #8]
 8007348:	b2e4      	uxtb	r4, r4
 800734a:	430c      	orrs	r4, r1
 800734c:	4314      	orrs	r4, r2
 800734e:	ea44 2403 	orr.w	r4, r4, r3, lsl #8
 8007352:	b2a4      	uxth	r4, r4
 8007354:	8104      	strh	r4, [r0, #8]
 8007356:	8903      	ldrh	r3, [r0, #8]
 8007358:	f023 0377 	bic.w	r3, r3, #119	; 0x77
 800735c:	041b      	lsls	r3, r3, #16
 800735e:	0c1b      	lsrs	r3, r3, #16
 8007360:	f043 0377 	orr.w	r3, r3, #119	; 0x77
 8007364:	8103      	strh	r3, [r0, #8]
 8007366:	bc10      	pop	{r4}
 8007368:	4770      	bx	lr
 800736a:	bf00      	nop

0800736c <TIM_ETRClockMode2Config>:
 800736c:	b410      	push	{r4}
 800736e:	8904      	ldrh	r4, [r0, #8]
 8007370:	b2e4      	uxtb	r4, r4
 8007372:	430c      	orrs	r4, r1
 8007374:	4314      	orrs	r4, r2
 8007376:	ea44 2403 	orr.w	r4, r4, r3, lsl #8
 800737a:	b2a4      	uxth	r4, r4
 800737c:	8104      	strh	r4, [r0, #8]
 800737e:	8903      	ldrh	r3, [r0, #8]
 8007380:	b29b      	uxth	r3, r3
 8007382:	f443 4380 	orr.w	r3, r3, #16384	; 0x4000
 8007386:	8103      	strh	r3, [r0, #8]
 8007388:	bc10      	pop	{r4}
 800738a:	4770      	bx	lr

0800738c <TIM_SelectInputTrigger>:
 800738c:	8903      	ldrh	r3, [r0, #8]
 800738e:	f023 0370 	bic.w	r3, r3, #112	; 0x70
 8007392:	041b      	lsls	r3, r3, #16
 8007394:	0c1b      	lsrs	r3, r3, #16
 8007396:	430b      	orrs	r3, r1
 8007398:	8103      	strh	r3, [r0, #8]
 800739a:	4770      	bx	lr

0800739c <TIM_SelectOutputTrigger>:
 800739c:	8883      	ldrh	r3, [r0, #4]
 800739e:	f023 0370 	bic.w	r3, r3, #112	; 0x70
 80073a2:	041b      	lsls	r3, r3, #16
 80073a4:	0c1b      	lsrs	r3, r3, #16
 80073a6:	8083      	strh	r3, [r0, #4]
 80073a8:	8883      	ldrh	r3, [r0, #4]
 80073aa:	b29b      	uxth	r3, r3
 80073ac:	430b      	orrs	r3, r1
 80073ae:	8083      	strh	r3, [r0, #4]
 80073b0:	4770      	bx	lr
 80073b2:	bf00      	nop

080073b4 <TIM_SelectSlaveMode>:
 80073b4:	8903      	ldrh	r3, [r0, #8]
 80073b6:	f023 0307 	bic.w	r3, r3, #7
 80073ba:	041b      	lsls	r3, r3, #16
 80073bc:	0c1b      	lsrs	r3, r3, #16
 80073be:	8103      	strh	r3, [r0, #8]
 80073c0:	8903      	ldrh	r3, [r0, #8]
 80073c2:	b29b      	uxth	r3, r3
 80073c4:	430b      	orrs	r3, r1
 80073c6:	8103      	strh	r3, [r0, #8]
 80073c8:	4770      	bx	lr
 80073ca:	bf00      	nop

080073cc <TIM_SelectMasterSlaveMode>:
 80073cc:	8903      	ldrh	r3, [r0, #8]
 80073ce:	f023 0380 	bic.w	r3, r3, #128	; 0x80
 80073d2:	041b      	lsls	r3, r3, #16
 80073d4:	0c1b      	lsrs	r3, r3, #16
 80073d6:	8103      	strh	r3, [r0, #8]
 80073d8:	8903      	ldrh	r3, [r0, #8]
 80073da:	b29b      	uxth	r3, r3
 80073dc:	430b      	orrs	r3, r1
 80073de:	8103      	strh	r3, [r0, #8]
 80073e0:	4770      	bx	lr
 80073e2:	bf00      	nop

080073e4 <TIM_ETRConfig>:
 80073e4:	b410      	push	{r4}
 80073e6:	8904      	ldrh	r4, [r0, #8]
 80073e8:	b2e4      	uxtb	r4, r4
 80073ea:	430c      	orrs	r4, r1
 80073ec:	4314      	orrs	r4, r2
 80073ee:	ea44 2403 	orr.w	r4, r4, r3, lsl #8
 80073f2:	b2a4      	uxth	r4, r4
 80073f4:	8104      	strh	r4, [r0, #8]
 80073f6:	bc10      	pop	{r4}
 80073f8:	4770      	bx	lr
 80073fa:	bf00      	nop

080073fc <TIM_EncoderInterfaceConfig>:
 80073fc:	b470      	push	{r4, r5, r6}
 80073fe:	8905      	ldrh	r5, [r0, #8]
 8007400:	8b04      	ldrh	r4, [r0, #24]
 8007402:	8c06      	ldrh	r6, [r0, #32]
 8007404:	f424 7440 	bic.w	r4, r4, #768	; 0x300
 8007408:	f026 0622 	bic.w	r6, r6, #34	; 0x22
 800740c:	f024 0403 	bic.w	r4, r4, #3
 8007410:	0436      	lsls	r6, r6, #16
 8007412:	f025 0507 	bic.w	r5, r5, #7
 8007416:	0424      	lsls	r4, r4, #16
 8007418:	0c36      	lsrs	r6, r6, #16
 800741a:	042d      	lsls	r5, r5, #16
 800741c:	0c24      	lsrs	r4, r4, #16
 800741e:	4316      	orrs	r6, r2
 8007420:	0c2d      	lsrs	r5, r5, #16
 8007422:	f444 7480 	orr.w	r4, r4, #256	; 0x100
 8007426:	ea46 1603 	orr.w	r6, r6, r3, lsl #4
 800742a:	4329      	orrs	r1, r5
 800742c:	f044 0401 	orr.w	r4, r4, #1
 8007430:	b2b6      	uxth	r6, r6
 8007432:	8101      	strh	r1, [r0, #8]
 8007434:	8304      	strh	r4, [r0, #24]
 8007436:	8406      	strh	r6, [r0, #32]
 8007438:	bc70      	pop	{r4, r5, r6}
 800743a:	4770      	bx	lr

0800743c <TIM_SelectHallSensor>:
 800743c:	8883      	ldrh	r3, [r0, #4]
 800743e:	b929      	cbnz	r1, 800744c <TIM_SelectHallSensor+0x10>
 8007440:	f023 0380 	bic.w	r3, r3, #128	; 0x80
 8007444:	041b      	lsls	r3, r3, #16
 8007446:	0c1b      	lsrs	r3, r3, #16
 8007448:	8083      	strh	r3, [r0, #4]
 800744a:	4770      	bx	lr
 800744c:	b29b      	uxth	r3, r3
 800744e:	f043 0380 	orr.w	r3, r3, #128	; 0x80
 8007452:	8083      	strh	r3, [r0, #4]
 8007454:	4770      	bx	lr
 8007456:	bf00      	nop

08007458 <TIM_RemapConfig>:
 8007458:	f8a0 1050 	strh.w	r1, [r0, #80]	; 0x50
 800745c:	4770      	bx	lr
 800745e:	bf00      	nop

08007460 <USART_DeInit>:
 8007460:	b508      	push	{r3, lr}
 8007462:	f44f 5380 	mov.w	r3, #4096	; 0x1000
 8007466:	f2c4 0301 	movt	r3, #16385	; 0x4001
 800746a:	4298      	cmp	r0, r3
 800746c:	d028      	beq.n	80074c0 <USART_DeInit+0x60>
 800746e:	f44f 4388 	mov.w	r3, #17408	; 0x4400
 8007472:	f2c4 0300 	movt	r3, #16384	; 0x4000
 8007476:	4298      	cmp	r0, r3
 8007478:	d02c      	beq.n	80074d4 <USART_DeInit+0x74>
 800747a:	f44f 4390 	mov.w	r3, #18432	; 0x4800
 800747e:	f2c4 0300 	movt	r3, #16384	; 0x4000
 8007482:	4298      	cmp	r0, r3
 8007484:	d032      	beq.n	80074ec <USART_DeInit+0x8c>
 8007486:	f44f 4398 	mov.w	r3, #19456	; 0x4c00
 800748a:	f2c4 0300 	movt	r3, #16384	; 0x4000
 800748e:	4298      	cmp	r0, r3
 8007490:	d038      	beq.n	8007504 <USART_DeInit+0xa4>
 8007492:	f44f 43a0 	mov.w	r3, #20480	; 0x5000
 8007496:	f2c4 0300 	movt	r3, #16384	; 0x4000
 800749a:	4298      	cmp	r0, r3
 800749c:	d03e      	beq.n	800751c <USART_DeInit+0xbc>
 800749e:	f44f 53a0 	mov.w	r3, #5120	; 0x1400
 80074a2:	f2c4 0301 	movt	r3, #16385	; 0x4001
 80074a6:	4298      	cmp	r0, r3
 80074a8:	d000      	beq.n	80074ac <USART_DeInit+0x4c>
 80074aa:	bd08      	pop	{r3, pc}
 80074ac:	2020      	movs	r0, #32
 80074ae:	2101      	movs	r1, #1
 80074b0:	f7fd fcd8 	bl	8004e64 <RCC_APB2PeriphResetCmd>
 80074b4:	2020      	movs	r0, #32
 80074b6:	2100      	movs	r1, #0
 80074b8:	e8bd 4008 	ldmia.w	sp!, {r3, lr}
 80074bc:	f7fd bcd2 	b.w	8004e64 <RCC_APB2PeriphResetCmd>
 80074c0:	2010      	movs	r0, #16
 80074c2:	2101      	movs	r1, #1
 80074c4:	f7fd fcce 	bl	8004e64 <RCC_APB2PeriphResetCmd>
 80074c8:	2010      	movs	r0, #16
 80074ca:	2100      	movs	r1, #0
 80074cc:	e8bd 4008 	ldmia.w	sp!, {r3, lr}
 80074d0:	f7fd bcc8 	b.w	8004e64 <RCC_APB2PeriphResetCmd>
 80074d4:	2101      	movs	r1, #1
 80074d6:	f44f 3000 	mov.w	r0, #131072	; 0x20000
 80074da:	f7fd fcb5 	bl	8004e48 <RCC_APB1PeriphResetCmd>
 80074de:	f44f 3000 	mov.w	r0, #131072	; 0x20000
 80074e2:	2100      	movs	r1, #0
 80074e4:	e8bd 4008 	ldmia.w	sp!, {r3, lr}
 80074e8:	f7fd bcae 	b.w	8004e48 <RCC_APB1PeriphResetCmd>
 80074ec:	2101      	movs	r1, #1
 80074ee:	f44f 2080 	mov.w	r0, #262144	; 0x40000
 80074f2:	f7fd fca9 	bl	8004e48 <RCC_APB1PeriphResetCmd>
 80074f6:	f44f 2080 	mov.w	r0, #262144	; 0x40000
 80074fa:	2100      	movs	r1, #0
 80074fc:	e8bd 4008 	ldmia.w	sp!, {r3, lr}
 8007500:	f7fd bca2 	b.w	8004e48 <RCC_APB1PeriphResetCmd>
 8007504:	2101      	movs	r1, #1
 8007506:	f44f 2000 	mov.w	r0, #524288	; 0x80000
 800750a:	f7fd fc9d 	bl	8004e48 <RCC_APB1PeriphResetCmd>
 800750e:	f44f 2000 	mov.w	r0, #524288	; 0x80000
 8007512:	2100      	movs	r1, #0
 8007514:	e8bd 4008 	ldmia.w	sp!, {r3, lr}
 8007518:	f7fd bc96 	b.w	8004e48 <RCC_APB1PeriphResetCmd>
 800751c:	2101      	movs	r1, #1
 800751e:	f44f 1080 	mov.w	r0, #1048576	; 0x100000
 8007522:	f7fd fc91 	bl	8004e48 <RCC_APB1PeriphResetCmd>
 8007526:	f44f 1080 	mov.w	r0, #1048576	; 0x100000
 800752a:	2100      	movs	r1, #0
 800752c:	e8bd 4008 	ldmia.w	sp!, {r3, lr}
 8007530:	f7fd bc8a 	b.w	8004e48 <RCC_APB1PeriphResetCmd>

08007534 <USART_Init>:
 8007534:	8a02      	ldrh	r2, [r0, #16]
 8007536:	88cb      	ldrh	r3, [r1, #6]
 8007538:	f422 5240 	bic.w	r2, r2, #12288	; 0x3000
 800753c:	0412      	lsls	r2, r2, #16
 800753e:	b5f0      	push	{r4, r5, r6, r7, lr}
 8007540:	0c12      	lsrs	r2, r2, #16
 8007542:	4604      	mov	r4, r0
 8007544:	431a      	orrs	r2, r3
 8007546:	8948      	ldrh	r0, [r1, #10]
 8007548:	890f      	ldrh	r7, [r1, #8]
 800754a:	888e      	ldrh	r6, [r1, #4]
 800754c:	460d      	mov	r5, r1
 800754e:	8989      	ldrh	r1, [r1, #12]
 8007550:	8222      	strh	r2, [r4, #16]
 8007552:	89a3      	ldrh	r3, [r4, #12]
 8007554:	f423 53b0 	bic.w	r3, r3, #5632	; 0x1600
 8007558:	f023 030c 	bic.w	r3, r3, #12
 800755c:	ea47 0206 	orr.w	r2, r7, r6
 8007560:	041b      	lsls	r3, r3, #16
 8007562:	4302      	orrs	r2, r0
 8007564:	b292      	uxth	r2, r2
 8007566:	0c1b      	lsrs	r3, r3, #16
 8007568:	4313      	orrs	r3, r2
 800756a:	81a3      	strh	r3, [r4, #12]
 800756c:	8aa3      	ldrh	r3, [r4, #20]
 800756e:	f423 7340 	bic.w	r3, r3, #768	; 0x300
 8007572:	041b      	lsls	r3, r3, #16
 8007574:	0c1b      	lsrs	r3, r3, #16
 8007576:	b085      	sub	sp, #20
 8007578:	430b      	orrs	r3, r1
 800757a:	82a3      	strh	r3, [r4, #20]
 800757c:	4668      	mov	r0, sp
 800757e:	f7fd fb6f 	bl	8004c60 <RCC_GetClocksFreq>
 8007582:	f44f 52a0 	mov.w	r2, #5120	; 0x1400
 8007586:	f44f 5380 	mov.w	r3, #4096	; 0x1000
 800758a:	f2c4 0301 	movt	r3, #16385	; 0x4001
 800758e:	f2c4 0201 	movt	r2, #16385	; 0x4001
 8007592:	429c      	cmp	r4, r3
 8007594:	bf18      	it	ne
 8007596:	4294      	cmpne	r4, r2
 8007598:	89a2      	ldrh	r2, [r4, #12]
 800759a:	bf0c      	ite	eq
 800759c:	9b03      	ldreq	r3, [sp, #12]
 800759e:	9b02      	ldrne	r3, [sp, #8]
 80075a0:	b212      	sxth	r2, r2
 80075a2:	2a00      	cmp	r2, #0
 80075a4:	db21      	blt.n	80075ea <USART_Init+0xb6>
 80075a6:	6828      	ldr	r0, [r5, #0]
 80075a8:	eb03 0383 	add.w	r3, r3, r3, lsl #2
 80075ac:	eb03 0383 	add.w	r3, r3, r3, lsl #2
 80075b0:	0080      	lsls	r0, r0, #2
 80075b2:	fbb3 f1f0 	udiv	r1, r3, r0
 80075b6:	f248 531f 	movw	r3, #34079	; 0x851f
 80075ba:	89a0      	ldrh	r0, [r4, #12]
 80075bc:	f2c5 13eb 	movt	r3, #20971	; 0x51eb
 80075c0:	fba3 5201 	umull	r5, r2, r3, r1
 80075c4:	0952      	lsrs	r2, r2, #5
 80075c6:	b200      	sxth	r0, r0
 80075c8:	0116      	lsls	r6, r2, #4
 80075ca:	2564      	movs	r5, #100	; 0x64
 80075cc:	2800      	cmp	r0, #0
 80075ce:	fb02 1215 	mls	r2, r2, r5, r1
 80075d2:	db13      	blt.n	80075fc <USART_Init+0xc8>
 80075d4:	0112      	lsls	r2, r2, #4
 80075d6:	3232      	adds	r2, #50	; 0x32
 80075d8:	fba3 5302 	umull	r5, r3, r3, r2
 80075dc:	f3c3 1343 	ubfx	r3, r3, #5, #4
 80075e0:	4333      	orrs	r3, r6
 80075e2:	b29b      	uxth	r3, r3
 80075e4:	8123      	strh	r3, [r4, #8]
 80075e6:	b005      	add	sp, #20
 80075e8:	bdf0      	pop	{r4, r5, r6, r7, pc}
 80075ea:	682a      	ldr	r2, [r5, #0]
 80075ec:	eb03 0383 	add.w	r3, r3, r3, lsl #2
 80075f0:	eb03 0383 	add.w	r3, r3, r3, lsl #2
 80075f4:	0052      	lsls	r2, r2, #1
 80075f6:	fbb3 f1f2 	udiv	r1, r3, r2
 80075fa:	e7dc      	b.n	80075b6 <USART_Init+0x82>
 80075fc:	00d2      	lsls	r2, r2, #3
 80075fe:	3232      	adds	r2, #50	; 0x32
 8007600:	fba3 1302 	umull	r1, r3, r3, r2
 8007604:	f3c3 1342 	ubfx	r3, r3, #5, #3
 8007608:	4333      	orrs	r3, r6
 800760a:	e7ea      	b.n	80075e2 <USART_Init+0xae>

0800760c <USART_StructInit>:
 800760c:	f44f 5216 	mov.w	r2, #9600	; 0x2580
 8007610:	2300      	movs	r3, #0
 8007612:	6002      	str	r2, [r0, #0]
 8007614:	220c      	movs	r2, #12
 8007616:	8083      	strh	r3, [r0, #4]
 8007618:	80c3      	strh	r3, [r0, #6]
 800761a:	8103      	strh	r3, [r0, #8]
 800761c:	8142      	strh	r2, [r0, #10]
 800761e:	8183      	strh	r3, [r0, #12]
 8007620:	4770      	bx	lr
 8007622:	bf00      	nop

08007624 <USART_ClockInit>:
 8007624:	880a      	ldrh	r2, [r1, #0]
 8007626:	8a03      	ldrh	r3, [r0, #16]
 8007628:	b430      	push	{r4, r5}
 800762a:	884d      	ldrh	r5, [r1, #2]
 800762c:	888c      	ldrh	r4, [r1, #4]
 800762e:	88c9      	ldrh	r1, [r1, #6]
 8007630:	432a      	orrs	r2, r5
 8007632:	f423 6370 	bic.w	r3, r3, #3840	; 0xf00
 8007636:	4322      	orrs	r2, r4
 8007638:	041b      	lsls	r3, r3, #16
 800763a:	430a      	orrs	r2, r1
 800763c:	0c1b      	lsrs	r3, r3, #16
 800763e:	b292      	uxth	r2, r2
 8007640:	4313      	orrs	r3, r2
 8007642:	8203      	strh	r3, [r0, #16]
 8007644:	bc30      	pop	{r4, r5}
 8007646:	4770      	bx	lr

08007648 <USART_ClockStructInit>:
 8007648:	2300      	movs	r3, #0
 800764a:	8003      	strh	r3, [r0, #0]
 800764c:	8043      	strh	r3, [r0, #2]
 800764e:	8083      	strh	r3, [r0, #4]
 8007650:	80c3      	strh	r3, [r0, #6]
 8007652:	4770      	bx	lr

08007654 <USART_Cmd>:
 8007654:	8983      	ldrh	r3, [r0, #12]
 8007656:	b929      	cbnz	r1, 8007664 <USART_Cmd+0x10>
 8007658:	f423 5300 	bic.w	r3, r3, #8192	; 0x2000
 800765c:	041b      	lsls	r3, r3, #16
 800765e:	0c1b      	lsrs	r3, r3, #16
 8007660:	8183      	strh	r3, [r0, #12]
 8007662:	4770      	bx	lr
 8007664:	b29b      	uxth	r3, r3
 8007666:	f443 5300 	orr.w	r3, r3, #8192	; 0x2000
 800766a:	8183      	strh	r3, [r0, #12]
 800766c:	4770      	bx	lr
 800766e:	bf00      	nop

08007670 <USART_SetPrescaler>:
 8007670:	8b03      	ldrh	r3, [r0, #24]
 8007672:	f403 437f 	and.w	r3, r3, #65280	; 0xff00
 8007676:	8303      	strh	r3, [r0, #24]
 8007678:	8b03      	ldrh	r3, [r0, #24]
 800767a:	b29b      	uxth	r3, r3
 800767c:	430b      	orrs	r3, r1
 800767e:	8303      	strh	r3, [r0, #24]
 8007680:	4770      	bx	lr
 8007682:	bf00      	nop

08007684 <USART_OverSampling8Cmd>:
 8007684:	8983      	ldrh	r3, [r0, #12]
 8007686:	b919      	cbnz	r1, 8007690 <USART_OverSampling8Cmd+0xc>
 8007688:	045b      	lsls	r3, r3, #17
 800768a:	0c5b      	lsrs	r3, r3, #17
 800768c:	8183      	strh	r3, [r0, #12]
 800768e:	4770      	bx	lr
 8007690:	ea6f 4343 	mvn.w	r3, r3, lsl #17
 8007694:	ea6f 4353 	mvn.w	r3, r3, lsr #17
 8007698:	b29b      	uxth	r3, r3
 800769a:	8183      	strh	r3, [r0, #12]
 800769c:	4770      	bx	lr
 800769e:	bf00      	nop

080076a0 <USART_OneBitMethodCmd>:
 80076a0:	8a83      	ldrh	r3, [r0, #20]
 80076a2:	b929      	cbnz	r1, 80076b0 <USART_OneBitMethodCmd+0x10>
 80076a4:	f423 6300 	bic.w	r3, r3, #2048	; 0x800
 80076a8:	041b      	lsls	r3, r3, #16
 80076aa:	0c1b      	lsrs	r3, r3, #16
 80076ac:	8283      	strh	r3, [r0, #20]
 80076ae:	4770      	bx	lr
 80076b0:	b29b      	uxth	r3, r3
 80076b2:	f443 6300 	orr.w	r3, r3, #2048	; 0x800
 80076b6:	8283      	strh	r3, [r0, #20]
 80076b8:	4770      	bx	lr
 80076ba:	bf00      	nop

080076bc <USART_SendData>:
 80076bc:	05c9      	lsls	r1, r1, #23
 80076be:	0dc9      	lsrs	r1, r1, #23
 80076c0:	8081      	strh	r1, [r0, #4]
 80076c2:	4770      	bx	lr

080076c4 <USART_ReceiveData>:
 80076c4:	8880      	ldrh	r0, [r0, #4]
 80076c6:	05c0      	lsls	r0, r0, #23
 80076c8:	0dc0      	lsrs	r0, r0, #23
 80076ca:	4770      	bx	lr

080076cc <USART_SetAddress>:
 80076cc:	8a03      	ldrh	r3, [r0, #16]
 80076ce:	f023 030f 	bic.w	r3, r3, #15
 80076d2:	041b      	lsls	r3, r3, #16
 80076d4:	0c1b      	lsrs	r3, r3, #16
 80076d6:	8203      	strh	r3, [r0, #16]
 80076d8:	8a03      	ldrh	r3, [r0, #16]
 80076da:	b29b      	uxth	r3, r3
 80076dc:	430b      	orrs	r3, r1
 80076de:	8203      	strh	r3, [r0, #16]
 80076e0:	4770      	bx	lr
 80076e2:	bf00      	nop

080076e4 <USART_ReceiverWakeUpCmd>:
 80076e4:	8983      	ldrh	r3, [r0, #12]
 80076e6:	b929      	cbnz	r1, 80076f4 <USART_ReceiverWakeUpCmd+0x10>
 80076e8:	f023 0302 	bic.w	r3, r3, #2
 80076ec:	041b      	lsls	r3, r3, #16
 80076ee:	0c1b      	lsrs	r3, r3, #16
 80076f0:	8183      	strh	r3, [r0, #12]
 80076f2:	4770      	bx	lr
 80076f4:	b29b      	uxth	r3, r3
 80076f6:	f043 0302 	orr.w	r3, r3, #2
 80076fa:	8183      	strh	r3, [r0, #12]
 80076fc:	4770      	bx	lr
 80076fe:	bf00      	nop

08007700 <USART_WakeUpConfig>:
 8007700:	8983      	ldrh	r3, [r0, #12]
 8007702:	f423 6300 	bic.w	r3, r3, #2048	; 0x800
 8007706:	041b      	lsls	r3, r3, #16
 8007708:	0c1b      	lsrs	r3, r3, #16
 800770a:	8183      	strh	r3, [r0, #12]
 800770c:	8983      	ldrh	r3, [r0, #12]
 800770e:	b29b      	uxth	r3, r3
 8007710:	430b      	orrs	r3, r1
 8007712:	8183      	strh	r3, [r0, #12]
 8007714:	4770      	bx	lr
 8007716:	bf00      	nop

08007718 <USART_LINBreakDetectLengthConfig>:
 8007718:	8a03      	ldrh	r3, [r0, #16]
 800771a:	f023 0320 	bic.w	r3, r3, #32
 800771e:	041b      	lsls	r3, r3, #16
 8007720:	0c1b      	lsrs	r3, r3, #16
 8007722:	8203      	strh	r3, [r0, #16]
 8007724:	8a03      	ldrh	r3, [r0, #16]
 8007726:	b29b      	uxth	r3, r3
 8007728:	430b      	orrs	r3, r1
 800772a:	8203      	strh	r3, [r0, #16]
 800772c:	4770      	bx	lr
 800772e:	bf00      	nop

08007730 <USART_LINCmd>:
 8007730:	8a03      	ldrh	r3, [r0, #16]
 8007732:	b929      	cbnz	r1, 8007740 <USART_LINCmd+0x10>
 8007734:	f423 4380 	bic.w	r3, r3, #16384	; 0x4000
 8007738:	041b      	lsls	r3, r3, #16
 800773a:	0c1b      	lsrs	r3, r3, #16
 800773c:	8203      	strh	r3, [r0, #16]
 800773e:	4770      	bx	lr
 8007740:	b29b      	uxth	r3, r3
 8007742:	f443 4380 	orr.w	r3, r3, #16384	; 0x4000
 8007746:	8203      	strh	r3, [r0, #16]
 8007748:	4770      	bx	lr
 800774a:	bf00      	nop

0800774c <USART_SendBreak>:
 800774c:	8983      	ldrh	r3, [r0, #12]
 800774e:	b29b      	uxth	r3, r3
 8007750:	f043 0301 	orr.w	r3, r3, #1
 8007754:	8183      	strh	r3, [r0, #12]
 8007756:	4770      	bx	lr

08007758 <USART_HalfDuplexCmd>:
 8007758:	8a83      	ldrh	r3, [r0, #20]
 800775a:	b929      	cbnz	r1, 8007768 <USART_HalfDuplexCmd+0x10>
 800775c:	f023 0308 	bic.w	r3, r3, #8
 8007760:	041b      	lsls	r3, r3, #16
 8007762:	0c1b      	lsrs	r3, r3, #16
 8007764:	8283      	strh	r3, [r0, #20]
 8007766:	4770      	bx	lr
 8007768:	b29b      	uxth	r3, r3
 800776a:	f043 0308 	orr.w	r3, r3, #8
 800776e:	8283      	strh	r3, [r0, #20]
 8007770:	4770      	bx	lr
 8007772:	bf00      	nop

08007774 <USART_SetGuardTime>:
 8007774:	8b03      	ldrh	r3, [r0, #24]
 8007776:	b2db      	uxtb	r3, r3
 8007778:	8303      	strh	r3, [r0, #24]
 800777a:	8b03      	ldrh	r3, [r0, #24]
 800777c:	b29b      	uxth	r3, r3
 800777e:	ea43 2301 	orr.w	r3, r3, r1, lsl #8
 8007782:	8303      	strh	r3, [r0, #24]
 8007784:	4770      	bx	lr
 8007786:	bf00      	nop

08007788 <USART_SmartCardCmd>:
 8007788:	8a83      	ldrh	r3, [r0, #20]
 800778a:	b929      	cbnz	r1, 8007798 <USART_SmartCardCmd+0x10>
 800778c:	f023 0320 	bic.w	r3, r3, #32
 8007790:	041b      	lsls	r3, r3, #16
 8007792:	0c1b      	lsrs	r3, r3, #16
 8007794:	8283      	strh	r3, [r0, #20]
 8007796:	4770      	bx	lr
 8007798:	b29b      	uxth	r3, r3
 800779a:	f043 0320 	orr.w	r3, r3, #32
 800779e:	8283      	strh	r3, [r0, #20]
 80077a0:	4770      	bx	lr
 80077a2:	bf00      	nop

080077a4 <USART_SmartCardNACKCmd>:
 80077a4:	8a83      	ldrh	r3, [r0, #20]
 80077a6:	b929      	cbnz	r1, 80077b4 <USART_SmartCardNACKCmd+0x10>
 80077a8:	f023 0310 	bic.w	r3, r3, #16
 80077ac:	041b      	lsls	r3, r3, #16
 80077ae:	0c1b      	lsrs	r3, r3, #16
 80077b0:	8283      	strh	r3, [r0, #20]
 80077b2:	4770      	bx	lr
 80077b4:	b29b      	uxth	r3, r3
 80077b6:	f043 0310 	orr.w	r3, r3, #16
 80077ba:	8283      	strh	r3, [r0, #20]
 80077bc:	4770      	bx	lr
 80077be:	bf00      	nop

080077c0 <USART_IrDAConfig>:
 80077c0:	8a83      	ldrh	r3, [r0, #20]
 80077c2:	f023 0304 	bic.w	r3, r3, #4
 80077c6:	041b      	lsls	r3, r3, #16
 80077c8:	0c1b      	lsrs	r3, r3, #16
 80077ca:	8283      	strh	r3, [r0, #20]
 80077cc:	8a83      	ldrh	r3, [r0, #20]
 80077ce:	b29b      	uxth	r3, r3
 80077d0:	430b      	orrs	r3, r1
 80077d2:	8283      	strh	r3, [r0, #20]
 80077d4:	4770      	bx	lr
 80077d6:	bf00      	nop

080077d8 <USART_IrDACmd>:
 80077d8:	8a83      	ldrh	r3, [r0, #20]
 80077da:	b929      	cbnz	r1, 80077e8 <USART_IrDACmd+0x10>
 80077dc:	f023 0302 	bic.w	r3, r3, #2
 80077e0:	041b      	lsls	r3, r3, #16
 80077e2:	0c1b      	lsrs	r3, r3, #16
 80077e4:	8283      	strh	r3, [r0, #20]
 80077e6:	4770      	bx	lr
 80077e8:	b29b      	uxth	r3, r3
 80077ea:	f043 0302 	orr.w	r3, r3, #2
 80077ee:	8283      	strh	r3, [r0, #20]
 80077f0:	4770      	bx	lr
 80077f2:	bf00      	nop

080077f4 <USART_DMACmd>:
 80077f4:	8a83      	ldrh	r3, [r0, #20]
 80077f6:	b29b      	uxth	r3, r3
 80077f8:	b91a      	cbnz	r2, 8007802 <USART_DMACmd+0xe>
 80077fa:	ea23 0101 	bic.w	r1, r3, r1
 80077fe:	8281      	strh	r1, [r0, #20]
 8007800:	4770      	bx	lr
 8007802:	4319      	orrs	r1, r3
 8007804:	8281      	strh	r1, [r0, #20]
 8007806:	4770      	bx	lr

08007808 <USART_ITConfig>:
 8007808:	f001 031f 	and.w	r3, r1, #31
 800780c:	b410      	push	{r4}
 800780e:	f3c1 1142 	ubfx	r1, r1, #5, #3
 8007812:	2401      	movs	r4, #1
 8007814:	fa14 f303 	lsls.w	r3, r4, r3
 8007818:	42a1      	cmp	r1, r4
 800781a:	d00d      	beq.n	8007838 <USART_ITConfig+0x30>
 800781c:	2902      	cmp	r1, #2
 800781e:	d00d      	beq.n	800783c <USART_ITConfig+0x34>
 8007820:	3014      	adds	r0, #20
 8007822:	b92a      	cbnz	r2, 8007830 <USART_ITConfig+0x28>
 8007824:	6802      	ldr	r2, [r0, #0]
 8007826:	ea22 0303 	bic.w	r3, r2, r3
 800782a:	6003      	str	r3, [r0, #0]
 800782c:	bc10      	pop	{r4}
 800782e:	4770      	bx	lr
 8007830:	6802      	ldr	r2, [r0, #0]
 8007832:	4313      	orrs	r3, r2
 8007834:	6003      	str	r3, [r0, #0]
 8007836:	e7f9      	b.n	800782c <USART_ITConfig+0x24>
 8007838:	300c      	adds	r0, #12
 800783a:	e7f2      	b.n	8007822 <USART_ITConfig+0x1a>
 800783c:	3010      	adds	r0, #16
 800783e:	e7f0      	b.n	8007822 <USART_ITConfig+0x1a>

08007840 <USART_GetFlagStatus>:
 8007840:	8803      	ldrh	r3, [r0, #0]
 8007842:	4219      	tst	r1, r3
 8007844:	bf0c      	ite	eq
 8007846:	2000      	moveq	r0, #0
 8007848:	2001      	movne	r0, #1
 800784a:	4770      	bx	lr

0800784c <USART_ClearFlag>:
 800784c:	43c9      	mvns	r1, r1
 800784e:	b289      	uxth	r1, r1
 8007850:	8001      	strh	r1, [r0, #0]
 8007852:	4770      	bx	lr

08007854 <USART_GetITStatus>:
 8007854:	b410      	push	{r4}
 8007856:	f001 021f 	and.w	r2, r1, #31
 800785a:	2401      	movs	r4, #1
 800785c:	f3c1 1342 	ubfx	r3, r1, #5, #3
 8007860:	4094      	lsls	r4, r2
 8007862:	2b01      	cmp	r3, #1
 8007864:	d016      	beq.n	8007894 <USART_GetITStatus+0x40>
 8007866:	2b02      	cmp	r3, #2
 8007868:	bf0c      	ite	eq
 800786a:	8a02      	ldrheq	r2, [r0, #16]
 800786c:	8a82      	ldrhne	r2, [r0, #20]
 800786e:	b292      	uxth	r2, r2
 8007870:	4022      	ands	r2, r4
 8007872:	8803      	ldrh	r3, [r0, #0]
 8007874:	2401      	movs	r4, #1
 8007876:	0a09      	lsrs	r1, r1, #8
 8007878:	fa14 f101 	lsls.w	r1, r4, r1
 800787c:	b29b      	uxth	r3, r3
 800787e:	4219      	tst	r1, r3
 8007880:	bf0c      	ite	eq
 8007882:	2300      	moveq	r3, #0
 8007884:	2301      	movne	r3, #1
 8007886:	2a00      	cmp	r2, #0
 8007888:	bf0c      	ite	eq
 800788a:	2000      	moveq	r0, #0
 800788c:	f003 0001 	andne.w	r0, r3, #1
 8007890:	bc10      	pop	{r4}
 8007892:	4770      	bx	lr
 8007894:	8982      	ldrh	r2, [r0, #12]
 8007896:	b292      	uxth	r2, r2
 8007898:	4022      	ands	r2, r4
 800789a:	e7ea      	b.n	8007872 <USART_GetITStatus+0x1e>

0800789c <USART_ClearITPendingBit>:
 800789c:	0a09      	lsrs	r1, r1, #8
 800789e:	2301      	movs	r3, #1
 80078a0:	fa13 f101 	lsls.w	r1, r3, r1
 80078a4:	43c9      	mvns	r1, r1
 80078a6:	b289      	uxth	r1, r1
 80078a8:	8001      	strh	r1, [r0, #0]
 80078aa:	4770      	bx	lr

080078ac <WWDG_DeInit>:
 80078ac:	b508      	push	{r3, lr}
 80078ae:	2101      	movs	r1, #1
 80078b0:	f44f 6000 	mov.w	r0, #2048	; 0x800
 80078b4:	f7fd fac8 	bl	8004e48 <RCC_APB1PeriphResetCmd>
 80078b8:	f44f 6000 	mov.w	r0, #2048	; 0x800
 80078bc:	2100      	movs	r1, #0
 80078be:	e8bd 4008 	ldmia.w	sp!, {r3, lr}
 80078c2:	f7fd bac1 	b.w	8004e48 <RCC_APB1PeriphResetCmd>
 80078c6:	bf00      	nop

080078c8 <WWDG_SetPrescaler>:
 80078c8:	f44f 5330 	mov.w	r3, #11264	; 0x2c00
 80078cc:	f2c4 0300 	movt	r3, #16384	; 0x4000
 80078d0:	685a      	ldr	r2, [r3, #4]
 80078d2:	f422 72c0 	bic.w	r2, r2, #384	; 0x180
 80078d6:	4302      	orrs	r2, r0
 80078d8:	605a      	str	r2, [r3, #4]
 80078da:	4770      	bx	lr

080078dc <WWDG_SetWindowValue>:
 80078dc:	b082      	sub	sp, #8
 80078de:	f44f 5330 	mov.w	r3, #11264	; 0x2c00
 80078e2:	f2c4 0300 	movt	r3, #16384	; 0x4000
 80078e6:	2200      	movs	r2, #0
 80078e8:	9201      	str	r2, [sp, #4]
 80078ea:	685a      	ldr	r2, [r3, #4]
 80078ec:	f022 027f 	bic.w	r2, r2, #127	; 0x7f
 80078f0:	9201      	str	r2, [sp, #4]
 80078f2:	9a01      	ldr	r2, [sp, #4]
 80078f4:	f000 007f 	and.w	r0, r0, #127	; 0x7f
 80078f8:	4302      	orrs	r2, r0
 80078fa:	9201      	str	r2, [sp, #4]
 80078fc:	9a01      	ldr	r2, [sp, #4]
 80078fe:	605a      	str	r2, [r3, #4]
 8007900:	b002      	add	sp, #8
 8007902:	4770      	bx	lr

08007904 <WWDG_EnableIT>:
 8007904:	f248 03a4 	movw	r3, #32932	; 0x80a4
 8007908:	f2c4 2305 	movt	r3, #16901	; 0x4205
 800790c:	2201      	movs	r2, #1
 800790e:	601a      	str	r2, [r3, #0]
 8007910:	4770      	bx	lr
 8007912:	bf00      	nop

08007914 <WWDG_SetCounter>:
 8007914:	f44f 5330 	mov.w	r3, #11264	; 0x2c00
 8007918:	f2c4 0300 	movt	r3, #16384	; 0x4000
 800791c:	f000 007f 	and.w	r0, r0, #127	; 0x7f
 8007920:	6018      	str	r0, [r3, #0]
 8007922:	4770      	bx	lr

08007924 <WWDG_Enable>:
 8007924:	f44f 5330 	mov.w	r3, #11264	; 0x2c00
 8007928:	f2c4 0300 	movt	r3, #16384	; 0x4000
 800792c:	f040 0080 	orr.w	r0, r0, #128	; 0x80
 8007930:	6018      	str	r0, [r3, #0]
 8007932:	4770      	bx	lr

08007934 <WWDG_GetFlagStatus>:
 8007934:	f44f 5330 	mov.w	r3, #11264	; 0x2c00
 8007938:	f2c4 0300 	movt	r3, #16384	; 0x4000
 800793c:	6898      	ldr	r0, [r3, #8]
 800793e:	3000      	adds	r0, #0
 8007940:	bf18      	it	ne
 8007942:	2001      	movne	r0, #1
 8007944:	4770      	bx	lr
 8007946:	bf00      	nop

08007948 <WWDG_ClearFlag>:
 8007948:	f44f 5330 	mov.w	r3, #11264	; 0x2c00
 800794c:	f2c4 0300 	movt	r3, #16384	; 0x4000
 8007950:	2200      	movs	r2, #0
 8007952:	609a      	str	r2, [r3, #8]
 8007954:	4770      	bx	lr
 8007956:	bf00      	nop

08007958 <malloc>:
 8007958:	f240 4350 	movw	r3, #1104	; 0x450
 800795c:	f2c2 0300 	movt	r3, #8192	; 0x2000
 8007960:	4601      	mov	r1, r0
 8007962:	6818      	ldr	r0, [r3, #0]
 8007964:	f000 b808 	b.w	8007978 <_malloc_r>

08007968 <free>:
 8007968:	f240 4350 	movw	r3, #1104	; 0x450
 800796c:	f2c2 0300 	movt	r3, #8192	; 0x2000
 8007970:	4601      	mov	r1, r0
 8007972:	6818      	ldr	r0, [r3, #0]
 8007974:	f000 bb86 	b.w	8008084 <_free_r>

08007978 <_malloc_r>:
 8007978:	e92d 4ff8 	stmdb	sp!, {r3, r4, r5, r6, r7, r8, r9, sl, fp, lr}
 800797c:	f101 040b 	add.w	r4, r1, #11
 8007980:	2c16      	cmp	r4, #22
 8007982:	4605      	mov	r5, r0
 8007984:	d92a      	bls.n	80079dc <_malloc_r+0x64>
 8007986:	f024 0407 	bic.w	r4, r4, #7
 800798a:	0fe3      	lsrs	r3, r4, #31
 800798c:	428c      	cmp	r4, r1
 800798e:	bf2c      	ite	cs
 8007990:	4619      	movcs	r1, r3
 8007992:	f043 0101 	orrcc.w	r1, r3, #1
 8007996:	bb51      	cbnz	r1, 80079ee <_malloc_r+0x76>
 8007998:	4628      	mov	r0, r5
 800799a:	f7f9 fa2b 	bl	8000df4 <__malloc_lock>
 800799e:	f5b4 7ffc 	cmp.w	r4, #504	; 0x1f8
 80079a2:	d22a      	bcs.n	80079fa <_malloc_r+0x82>
 80079a4:	4e7d      	ldr	r6, [pc, #500]	; (8007b9c <_malloc_r+0x224>)
 80079a6:	ea4f 0ed4 	mov.w	lr, r4, lsr #3
 80079aa:	eb06 03ce 	add.w	r3, r6, lr, lsl #3
 80079ae:	68df      	ldr	r7, [r3, #12]
 80079b0:	429f      	cmp	r7, r3
 80079b2:	f000 8235 	beq.w	8007e20 <_malloc_r+0x4a8>
 80079b6:	687b      	ldr	r3, [r7, #4]
 80079b8:	68fa      	ldr	r2, [r7, #12]
 80079ba:	68b9      	ldr	r1, [r7, #8]
 80079bc:	f023 0303 	bic.w	r3, r3, #3
 80079c0:	18fb      	adds	r3, r7, r3
 80079c2:	60ca      	str	r2, [r1, #12]
 80079c4:	6858      	ldr	r0, [r3, #4]
 80079c6:	6091      	str	r1, [r2, #8]
 80079c8:	f040 0201 	orr.w	r2, r0, #1
 80079cc:	605a      	str	r2, [r3, #4]
 80079ce:	4628      	mov	r0, r5
 80079d0:	f7f9 fa1a 	bl	8000e08 <__malloc_unlock>
 80079d4:	3708      	adds	r7, #8
 80079d6:	4638      	mov	r0, r7
 80079d8:	e8bd 8ff8 	ldmia.w	sp!, {r3, r4, r5, r6, r7, r8, r9, sl, fp, pc}
 80079dc:	2300      	movs	r3, #0
 80079de:	2410      	movs	r4, #16
 80079e0:	428c      	cmp	r4, r1
 80079e2:	bf2c      	ite	cs
 80079e4:	4619      	movcs	r1, r3
 80079e6:	f043 0101 	orrcc.w	r1, r3, #1
 80079ea:	2900      	cmp	r1, #0
 80079ec:	d0d4      	beq.n	8007998 <_malloc_r+0x20>
 80079ee:	230c      	movs	r3, #12
 80079f0:	2700      	movs	r7, #0
 80079f2:	602b      	str	r3, [r5, #0]
 80079f4:	4638      	mov	r0, r7
 80079f6:	e8bd 8ff8 	ldmia.w	sp!, {r3, r4, r5, r6, r7, r8, r9, sl, fp, pc}
 80079fa:	ea5f 2e54 	movs.w	lr, r4, lsr #9
 80079fe:	bf04      	itt	eq
 8007a00:	ea4f 0ed4 	moveq.w	lr, r4, lsr #3
 8007a04:	ea4f 01ce 	moveq.w	r1, lr, lsl #3
 8007a08:	f040 8081 	bne.w	8007b0e <_malloc_r+0x196>
 8007a0c:	4e63      	ldr	r6, [pc, #396]	; (8007b9c <_malloc_r+0x224>)
 8007a0e:	1871      	adds	r1, r6, r1
 8007a10:	68cf      	ldr	r7, [r1, #12]
 8007a12:	42b9      	cmp	r1, r7
 8007a14:	d106      	bne.n	8007a24 <_malloc_r+0xac>
 8007a16:	e00d      	b.n	8007a34 <_malloc_r+0xbc>
 8007a18:	2b00      	cmp	r3, #0
 8007a1a:	f280 8169 	bge.w	8007cf0 <_malloc_r+0x378>
 8007a1e:	68ff      	ldr	r7, [r7, #12]
 8007a20:	42b9      	cmp	r1, r7
 8007a22:	d007      	beq.n	8007a34 <_malloc_r+0xbc>
 8007a24:	687a      	ldr	r2, [r7, #4]
 8007a26:	f022 0203 	bic.w	r2, r2, #3
 8007a2a:	1b13      	subs	r3, r2, r4
 8007a2c:	2b0f      	cmp	r3, #15
 8007a2e:	ddf3      	ble.n	8007a18 <_malloc_r+0xa0>
 8007a30:	f10e 3eff 	add.w	lr, lr, #4294967295	; 0xffffffff
 8007a34:	f10e 0e01 	add.w	lr, lr, #1
 8007a38:	4a58      	ldr	r2, [pc, #352]	; (8007b9c <_malloc_r+0x224>)
 8007a3a:	6937      	ldr	r7, [r6, #16]
 8007a3c:	f102 0c08 	add.w	ip, r2, #8
 8007a40:	4567      	cmp	r7, ip
 8007a42:	bf08      	it	eq
 8007a44:	6853      	ldreq	r3, [r2, #4]
 8007a46:	d023      	beq.n	8007a90 <_malloc_r+0x118>
 8007a48:	687b      	ldr	r3, [r7, #4]
 8007a4a:	f023 0303 	bic.w	r3, r3, #3
 8007a4e:	1b19      	subs	r1, r3, r4
 8007a50:	290f      	cmp	r1, #15
 8007a52:	f300 81b4 	bgt.w	8007dbe <_malloc_r+0x446>
 8007a56:	2900      	cmp	r1, #0
 8007a58:	f8c2 c014 	str.w	ip, [r2, #20]
 8007a5c:	f8c2 c010 	str.w	ip, [r2, #16]
 8007a60:	f280 808f 	bge.w	8007b82 <_malloc_r+0x20a>
 8007a64:	f5b3 7f00 	cmp.w	r3, #512	; 0x200
 8007a68:	f080 8161 	bcs.w	8007d2e <_malloc_r+0x3b6>
 8007a6c:	08db      	lsrs	r3, r3, #3
 8007a6e:	eb02 01c3 	add.w	r1, r2, r3, lsl #3
 8007a72:	f8d2 8004 	ldr.w	r8, [r2, #4]
 8007a76:	6888      	ldr	r0, [r1, #8]
 8007a78:	60f9      	str	r1, [r7, #12]
 8007a7a:	109b      	asrs	r3, r3, #2
 8007a7c:	f04f 0901 	mov.w	r9, #1
 8007a80:	fa09 f303 	lsl.w	r3, r9, r3
 8007a84:	ea43 0308 	orr.w	r3, r3, r8
 8007a88:	60b8      	str	r0, [r7, #8]
 8007a8a:	6053      	str	r3, [r2, #4]
 8007a8c:	608f      	str	r7, [r1, #8]
 8007a8e:	60c7      	str	r7, [r0, #12]
 8007a90:	2001      	movs	r0, #1
 8007a92:	ea4f 02ae 	mov.w	r2, lr, asr #2
 8007a96:	4090      	lsls	r0, r2
 8007a98:	4298      	cmp	r0, r3
 8007a9a:	f200 8081 	bhi.w	8007ba0 <_malloc_r+0x228>
 8007a9e:	4203      	tst	r3, r0
 8007aa0:	d106      	bne.n	8007ab0 <_malloc_r+0x138>
 8007aa2:	f02e 0e03 	bic.w	lr, lr, #3
 8007aa6:	0040      	lsls	r0, r0, #1
 8007aa8:	4203      	tst	r3, r0
 8007aaa:	f10e 0e04 	add.w	lr, lr, #4
 8007aae:	d0fa      	beq.n	8007aa6 <_malloc_r+0x12e>
 8007ab0:	eb06 09ce 	add.w	r9, r6, lr, lsl #3
 8007ab4:	464f      	mov	r7, r9
 8007ab6:	46f0      	mov	r8, lr
 8007ab8:	68fb      	ldr	r3, [r7, #12]
 8007aba:	429f      	cmp	r7, r3
 8007abc:	d107      	bne.n	8007ace <_malloc_r+0x156>
 8007abe:	e191      	b.n	8007de4 <_malloc_r+0x46c>
 8007ac0:	2a00      	cmp	r2, #0
 8007ac2:	f280 81b7 	bge.w	8007e34 <_malloc_r+0x4bc>
 8007ac6:	68db      	ldr	r3, [r3, #12]
 8007ac8:	429f      	cmp	r7, r3
 8007aca:	f000 818b 	beq.w	8007de4 <_malloc_r+0x46c>
 8007ace:	6859      	ldr	r1, [r3, #4]
 8007ad0:	f021 0103 	bic.w	r1, r1, #3
 8007ad4:	1b0a      	subs	r2, r1, r4
 8007ad6:	2a0f      	cmp	r2, #15
 8007ad8:	ddf2      	ble.n	8007ac0 <_malloc_r+0x148>
 8007ada:	461f      	mov	r7, r3
 8007adc:	1919      	adds	r1, r3, r4
 8007ade:	68d8      	ldr	r0, [r3, #12]
 8007ae0:	f857 ef08 	ldr.w	lr, [r7, #8]!
 8007ae4:	508a      	str	r2, [r1, r2]
 8007ae6:	f044 0401 	orr.w	r4, r4, #1
 8007aea:	f042 0201 	orr.w	r2, r2, #1
 8007aee:	f8ce 000c 	str.w	r0, [lr, #12]
 8007af2:	f8c0 e008 	str.w	lr, [r0, #8]
 8007af6:	605c      	str	r4, [r3, #4]
 8007af8:	6171      	str	r1, [r6, #20]
 8007afa:	6131      	str	r1, [r6, #16]
 8007afc:	f8c1 c00c 	str.w	ip, [r1, #12]
 8007b00:	f8c1 c008 	str.w	ip, [r1, #8]
 8007b04:	604a      	str	r2, [r1, #4]
 8007b06:	4628      	mov	r0, r5
 8007b08:	f7f9 f97e 	bl	8000e08 <__malloc_unlock>
 8007b0c:	e763      	b.n	80079d6 <_malloc_r+0x5e>
 8007b0e:	f1be 0f04 	cmp.w	lr, #4
 8007b12:	bf9e      	ittt	ls
 8007b14:	ea4f 1e94 	movls.w	lr, r4, lsr #6
 8007b18:	f10e 0e38 	addls.w	lr, lr, #56	; 0x38
 8007b1c:	ea4f 01ce 	movls.w	r1, lr, lsl #3
 8007b20:	f67f af74 	bls.w	8007a0c <_malloc_r+0x94>
 8007b24:	f1be 0f14 	cmp.w	lr, #20
 8007b28:	bf9c      	itt	ls
 8007b2a:	f10e 0e5b 	addls.w	lr, lr, #91	; 0x5b
 8007b2e:	ea4f 01ce 	movls.w	r1, lr, lsl #3
 8007b32:	f67f af6b 	bls.w	8007a0c <_malloc_r+0x94>
 8007b36:	f1be 0f54 	cmp.w	lr, #84	; 0x54
 8007b3a:	bf9e      	ittt	ls
 8007b3c:	ea4f 3e14 	movls.w	lr, r4, lsr #12
 8007b40:	f10e 0e6e 	addls.w	lr, lr, #110	; 0x6e
 8007b44:	ea4f 01ce 	movls.w	r1, lr, lsl #3
 8007b48:	f67f af60 	bls.w	8007a0c <_malloc_r+0x94>
 8007b4c:	f5be 7faa 	cmp.w	lr, #340	; 0x154
 8007b50:	bf9e      	ittt	ls
 8007b52:	ea4f 3ed4 	movls.w	lr, r4, lsr #15
 8007b56:	f10e 0e77 	addls.w	lr, lr, #119	; 0x77
 8007b5a:	ea4f 01ce 	movls.w	r1, lr, lsl #3
 8007b5e:	f67f af55 	bls.w	8007a0c <_malloc_r+0x94>
 8007b62:	f240 5354 	movw	r3, #1364	; 0x554
 8007b66:	459e      	cmp	lr, r3
 8007b68:	bf9d      	ittte	ls
 8007b6a:	ea4f 4e94 	movls.w	lr, r4, lsr #18
 8007b6e:	f10e 0e7c 	addls.w	lr, lr, #124	; 0x7c
 8007b72:	ea4f 01ce 	movls.w	r1, lr, lsl #3
 8007b76:	f44f 717c 	movhi.w	r1, #1008	; 0x3f0
 8007b7a:	bf88      	it	hi
 8007b7c:	f04f 0e7e 	movhi.w	lr, #126	; 0x7e
 8007b80:	e744      	b.n	8007a0c <_malloc_r+0x94>
 8007b82:	18fb      	adds	r3, r7, r3
 8007b84:	4628      	mov	r0, r5
 8007b86:	685a      	ldr	r2, [r3, #4]
 8007b88:	f042 0201 	orr.w	r2, r2, #1
 8007b8c:	605a      	str	r2, [r3, #4]
 8007b8e:	3708      	adds	r7, #8
 8007b90:	f7f9 f93a 	bl	8000e08 <__malloc_unlock>
 8007b94:	4638      	mov	r0, r7
 8007b96:	e8bd 8ff8 	ldmia.w	sp!, {r3, r4, r5, r6, r7, r8, r9, sl, fp, pc}
 8007b9a:	bf00      	nop
 8007b9c:	2000003c 	.word	0x2000003c
 8007ba0:	68b7      	ldr	r7, [r6, #8]
 8007ba2:	687b      	ldr	r3, [r7, #4]
 8007ba4:	f023 0803 	bic.w	r8, r3, #3
 8007ba8:	4544      	cmp	r4, r8
 8007baa:	ebc4 0208 	rsb	r2, r4, r8
 8007bae:	bf94      	ite	ls
 8007bb0:	2300      	movls	r3, #0
 8007bb2:	2301      	movhi	r3, #1
 8007bb4:	2a0f      	cmp	r2, #15
 8007bb6:	bfd8      	it	le
 8007bb8:	f043 0301 	orrle.w	r3, r3, #1
 8007bbc:	2b00      	cmp	r3, #0
 8007bbe:	f000 80a7 	beq.w	8007d10 <_malloc_r+0x398>
 8007bc2:	4bb3      	ldr	r3, [pc, #716]	; (8007e90 <_malloc_r+0x518>)
 8007bc4:	f8df a2cc 	ldr.w	sl, [pc, #716]	; 8007e94 <_malloc_r+0x51c>
 8007bc8:	f8d3 2408 	ldr.w	r2, [r3, #1032]	; 0x408
 8007bcc:	f8da 3000 	ldr.w	r3, [sl]
 8007bd0:	3201      	adds	r2, #1
 8007bd2:	4423      	add	r3, r4
 8007bd4:	bf08      	it	eq
 8007bd6:	f103 0b10 	addeq.w	fp, r3, #16
 8007bda:	d006      	beq.n	8007bea <_malloc_r+0x272>
 8007bdc:	f503 5380 	add.w	r3, r3, #4096	; 0x1000
 8007be0:	330f      	adds	r3, #15
 8007be2:	f423 637f 	bic.w	r3, r3, #4080	; 0xff0
 8007be6:	f023 0b0f 	bic.w	fp, r3, #15
 8007bea:	4628      	mov	r0, r5
 8007bec:	4659      	mov	r1, fp
 8007bee:	f000 f9bb 	bl	8007f68 <_sbrk_r>
 8007bf2:	f1b0 3fff 	cmp.w	r0, #4294967295	; 0xffffffff
 8007bf6:	4681      	mov	r9, r0
 8007bf8:	f000 8144 	beq.w	8007e84 <_malloc_r+0x50c>
 8007bfc:	eb07 0208 	add.w	r2, r7, r8
 8007c00:	4282      	cmp	r2, r0
 8007c02:	f200 8126 	bhi.w	8007e52 <_malloc_r+0x4da>
 8007c06:	f8da 3004 	ldr.w	r3, [sl, #4]
 8007c0a:	454a      	cmp	r2, r9
 8007c0c:	445b      	add	r3, fp
 8007c0e:	f8ca 3004 	str.w	r3, [sl, #4]
 8007c12:	f000 8141 	beq.w	8007e98 <_malloc_r+0x520>
 8007c16:	f8d6 1408 	ldr.w	r1, [r6, #1032]	; 0x408
 8007c1a:	3101      	adds	r1, #1
 8007c1c:	bf15      	itete	ne
 8007c1e:	ebc2 0209 	rsbne	r2, r2, r9
 8007c22:	4b9b      	ldreq	r3, [pc, #620]	; (8007e90 <_malloc_r+0x518>)
 8007c24:	189b      	addne	r3, r3, r2
 8007c26:	f8c3 9408 	streq.w	r9, [r3, #1032]	; 0x408
 8007c2a:	bf18      	it	ne
 8007c2c:	f8ca 3004 	strne.w	r3, [sl, #4]
 8007c30:	f019 0307 	ands.w	r3, r9, #7
 8007c34:	bf1f      	itttt	ne
 8007c36:	f1c3 0208 	rsbne	r2, r3, #8
 8007c3a:	4491      	addne	r9, r2
 8007c3c:	f5c3 5380 	rsbne	r3, r3, #4096	; 0x1000
 8007c40:	f103 0208 	addne.w	r2, r3, #8
 8007c44:	eb09 030b 	add.w	r3, r9, fp
 8007c48:	bf08      	it	eq
 8007c4a:	f44f 5280 	moveq.w	r2, #4096	; 0x1000
 8007c4e:	051b      	lsls	r3, r3, #20
 8007c50:	0d1b      	lsrs	r3, r3, #20
 8007c52:	ebc3 0b02 	rsb	fp, r3, r2
 8007c56:	4628      	mov	r0, r5
 8007c58:	4659      	mov	r1, fp
 8007c5a:	f000 f985 	bl	8007f68 <_sbrk_r>
 8007c5e:	1c43      	adds	r3, r0, #1
 8007c60:	f000 8126 	beq.w	8007eb0 <_malloc_r+0x538>
 8007c64:	ebc9 0200 	rsb	r2, r9, r0
 8007c68:	445a      	add	r2, fp
 8007c6a:	f042 0201 	orr.w	r2, r2, #1
 8007c6e:	f8da 3004 	ldr.w	r3, [sl, #4]
 8007c72:	f8c6 9008 	str.w	r9, [r6, #8]
 8007c76:	445b      	add	r3, fp
 8007c78:	42b7      	cmp	r7, r6
 8007c7a:	f8ca 3004 	str.w	r3, [sl, #4]
 8007c7e:	f8c9 2004 	str.w	r2, [r9, #4]
 8007c82:	d015      	beq.n	8007cb0 <_malloc_r+0x338>
 8007c84:	f1b8 0f0f 	cmp.w	r8, #15
 8007c88:	f240 80f6 	bls.w	8007e78 <_malloc_r+0x500>
 8007c8c:	6878      	ldr	r0, [r7, #4]
 8007c8e:	f1a8 020c 	sub.w	r2, r8, #12
 8007c92:	f022 0207 	bic.w	r2, r2, #7
 8007c96:	18b9      	adds	r1, r7, r2
 8007c98:	f000 0e01 	and.w	lr, r0, #1
 8007c9c:	ea42 0e0e 	orr.w	lr, r2, lr
 8007ca0:	2005      	movs	r0, #5
 8007ca2:	2a0f      	cmp	r2, #15
 8007ca4:	f8c7 e004 	str.w	lr, [r7, #4]
 8007ca8:	6048      	str	r0, [r1, #4]
 8007caa:	6088      	str	r0, [r1, #8]
 8007cac:	f200 8104 	bhi.w	8007eb8 <_malloc_r+0x540>
 8007cb0:	f8da 202c 	ldr.w	r2, [sl, #44]	; 0x2c
 8007cb4:	68b7      	ldr	r7, [r6, #8]
 8007cb6:	4293      	cmp	r3, r2
 8007cb8:	bf84      	itt	hi
 8007cba:	4a76      	ldrhi	r2, [pc, #472]	; (8007e94 <_malloc_r+0x51c>)
 8007cbc:	62d3      	strhi	r3, [r2, #44]	; 0x2c
 8007cbe:	f8da 2030 	ldr.w	r2, [sl, #48]	; 0x30
 8007cc2:	4293      	cmp	r3, r2
 8007cc4:	bf84      	itt	hi
 8007cc6:	4a73      	ldrhi	r2, [pc, #460]	; (8007e94 <_malloc_r+0x51c>)
 8007cc8:	6313      	strhi	r3, [r2, #48]	; 0x30
 8007cca:	687b      	ldr	r3, [r7, #4]
 8007ccc:	f023 0303 	bic.w	r3, r3, #3
 8007cd0:	429c      	cmp	r4, r3
 8007cd2:	ebc4 0203 	rsb	r2, r4, r3
 8007cd6:	bf94      	ite	ls
 8007cd8:	2300      	movls	r3, #0
 8007cda:	2301      	movhi	r3, #1
 8007cdc:	2a0f      	cmp	r2, #15
 8007cde:	bfd8      	it	le
 8007ce0:	f043 0301 	orrle.w	r3, r3, #1
 8007ce4:	b1a3      	cbz	r3, 8007d10 <_malloc_r+0x398>
 8007ce6:	4628      	mov	r0, r5
 8007ce8:	f7f9 f88e 	bl	8000e08 <__malloc_unlock>
 8007cec:	2700      	movs	r7, #0
 8007cee:	e672      	b.n	80079d6 <_malloc_r+0x5e>
 8007cf0:	18ba      	adds	r2, r7, r2
 8007cf2:	68fb      	ldr	r3, [r7, #12]
 8007cf4:	6850      	ldr	r0, [r2, #4]
 8007cf6:	68b9      	ldr	r1, [r7, #8]
 8007cf8:	f040 0001 	orr.w	r0, r0, #1
 8007cfc:	6050      	str	r0, [r2, #4]
 8007cfe:	60cb      	str	r3, [r1, #12]
 8007d00:	4628      	mov	r0, r5
 8007d02:	6099      	str	r1, [r3, #8]
 8007d04:	3708      	adds	r7, #8
 8007d06:	f7f9 f87f 	bl	8000e08 <__malloc_unlock>
 8007d0a:	4638      	mov	r0, r7
 8007d0c:	e8bd 8ff8 	ldmia.w	sp!, {r3, r4, r5, r6, r7, r8, r9, sl, fp, pc}
 8007d10:	193b      	adds	r3, r7, r4
 8007d12:	f042 0201 	orr.w	r2, r2, #1
 8007d16:	f044 0401 	orr.w	r4, r4, #1
 8007d1a:	607c      	str	r4, [r7, #4]
 8007d1c:	4628      	mov	r0, r5
 8007d1e:	605a      	str	r2, [r3, #4]
 8007d20:	3708      	adds	r7, #8
 8007d22:	60b3      	str	r3, [r6, #8]
 8007d24:	f7f9 f870 	bl	8000e08 <__malloc_unlock>
 8007d28:	4638      	mov	r0, r7
 8007d2a:	e8bd 8ff8 	ldmia.w	sp!, {r3, r4, r5, r6, r7, r8, r9, sl, fp, pc}
 8007d2e:	0a5a      	lsrs	r2, r3, #9
 8007d30:	2a04      	cmp	r2, #4
 8007d32:	bf9e      	ittt	ls
 8007d34:	ea4f 1893 	movls.w	r8, r3, lsr #6
 8007d38:	f108 0838 	addls.w	r8, r8, #56	; 0x38
 8007d3c:	ea4f 00c8 	movls.w	r0, r8, lsl #3
 8007d40:	d928      	bls.n	8007d94 <_malloc_r+0x41c>
 8007d42:	2a14      	cmp	r2, #20
 8007d44:	bf9c      	itt	ls
 8007d46:	f102 085b 	addls.w	r8, r2, #91	; 0x5b
 8007d4a:	ea4f 00c8 	movls.w	r0, r8, lsl #3
 8007d4e:	d921      	bls.n	8007d94 <_malloc_r+0x41c>
 8007d50:	2a54      	cmp	r2, #84	; 0x54
 8007d52:	bf9e      	ittt	ls
 8007d54:	ea4f 3813 	movls.w	r8, r3, lsr #12
 8007d58:	f108 086e 	addls.w	r8, r8, #110	; 0x6e
 8007d5c:	ea4f 00c8 	movls.w	r0, r8, lsl #3
 8007d60:	d918      	bls.n	8007d94 <_malloc_r+0x41c>
 8007d62:	f5b2 7faa 	cmp.w	r2, #340	; 0x154
 8007d66:	bf9e      	ittt	ls
 8007d68:	ea4f 38d3 	movls.w	r8, r3, lsr #15
 8007d6c:	f108 0877 	addls.w	r8, r8, #119	; 0x77
 8007d70:	ea4f 00c8 	movls.w	r0, r8, lsl #3
 8007d74:	d90e      	bls.n	8007d94 <_malloc_r+0x41c>
 8007d76:	f240 5154 	movw	r1, #1364	; 0x554
 8007d7a:	428a      	cmp	r2, r1
 8007d7c:	bf9d      	ittte	ls
 8007d7e:	ea4f 4893 	movls.w	r8, r3, lsr #18
 8007d82:	f108 087c 	addls.w	r8, r8, #124	; 0x7c
 8007d86:	ea4f 00c8 	movls.w	r0, r8, lsl #3
 8007d8a:	f44f 707c 	movhi.w	r0, #1008	; 0x3f0
 8007d8e:	bf88      	it	hi
 8007d90:	f04f 087e 	movhi.w	r8, #126	; 0x7e
 8007d94:	1830      	adds	r0, r6, r0
 8007d96:	493e      	ldr	r1, [pc, #248]	; (8007e90 <_malloc_r+0x518>)
 8007d98:	6882      	ldr	r2, [r0, #8]
 8007d9a:	4282      	cmp	r2, r0
 8007d9c:	d103      	bne.n	8007da6 <_malloc_r+0x42e>
 8007d9e:	e061      	b.n	8007e64 <_malloc_r+0x4ec>
 8007da0:	6892      	ldr	r2, [r2, #8]
 8007da2:	4290      	cmp	r0, r2
 8007da4:	d004      	beq.n	8007db0 <_malloc_r+0x438>
 8007da6:	6851      	ldr	r1, [r2, #4]
 8007da8:	f021 0103 	bic.w	r1, r1, #3
 8007dac:	428b      	cmp	r3, r1
 8007dae:	d3f7      	bcc.n	8007da0 <_malloc_r+0x428>
 8007db0:	68d1      	ldr	r1, [r2, #12]
 8007db2:	6873      	ldr	r3, [r6, #4]
 8007db4:	60f9      	str	r1, [r7, #12]
 8007db6:	60ba      	str	r2, [r7, #8]
 8007db8:	60d7      	str	r7, [r2, #12]
 8007dba:	608f      	str	r7, [r1, #8]
 8007dbc:	e668      	b.n	8007a90 <_malloc_r+0x118>
 8007dbe:	193b      	adds	r3, r7, r4
 8007dc0:	f041 0001 	orr.w	r0, r1, #1
 8007dc4:	f044 0401 	orr.w	r4, r4, #1
 8007dc8:	607c      	str	r4, [r7, #4]
 8007dca:	6153      	str	r3, [r2, #20]
 8007dcc:	6113      	str	r3, [r2, #16]
 8007dce:	6058      	str	r0, [r3, #4]
 8007dd0:	f8c3 c00c 	str.w	ip, [r3, #12]
 8007dd4:	f8c3 c008 	str.w	ip, [r3, #8]
 8007dd8:	5059      	str	r1, [r3, r1]
 8007dda:	4628      	mov	r0, r5
 8007ddc:	f7f9 f814 	bl	8000e08 <__malloc_unlock>
 8007de0:	3708      	adds	r7, #8
 8007de2:	e5f8      	b.n	80079d6 <_malloc_r+0x5e>
 8007de4:	f108 0801 	add.w	r8, r8, #1
 8007de8:	3708      	adds	r7, #8
 8007dea:	f018 0f03 	tst.w	r8, #3
 8007dee:	f47f ae63 	bne.w	8007ab8 <_malloc_r+0x140>
 8007df2:	464b      	mov	r3, r9
 8007df4:	f01e 0f03 	tst.w	lr, #3
 8007df8:	f1a3 0208 	sub.w	r2, r3, #8
 8007dfc:	f10e 3eff 	add.w	lr, lr, #4294967295	; 0xffffffff
 8007e00:	d062      	beq.n	8007ec8 <_malloc_r+0x550>
 8007e02:	681b      	ldr	r3, [r3, #0]
 8007e04:	4293      	cmp	r3, r2
 8007e06:	d0f5      	beq.n	8007df4 <_malloc_r+0x47c>
 8007e08:	6873      	ldr	r3, [r6, #4]
 8007e0a:	0040      	lsls	r0, r0, #1
 8007e0c:	4298      	cmp	r0, r3
 8007e0e:	f63f aec7 	bhi.w	8007ba0 <_malloc_r+0x228>
 8007e12:	2800      	cmp	r0, #0
 8007e14:	f43f aec4 	beq.w	8007ba0 <_malloc_r+0x228>
 8007e18:	4218      	tst	r0, r3
 8007e1a:	d05a      	beq.n	8007ed2 <_malloc_r+0x55a>
 8007e1c:	46c6      	mov	lr, r8
 8007e1e:	e647      	b.n	8007ab0 <_malloc_r+0x138>
 8007e20:	f107 0308 	add.w	r3, r7, #8
 8007e24:	697f      	ldr	r7, [r7, #20]
 8007e26:	42bb      	cmp	r3, r7
 8007e28:	bf08      	it	eq
 8007e2a:	f10e 0e02 	addeq.w	lr, lr, #2
 8007e2e:	f43f ae03 	beq.w	8007a38 <_malloc_r+0xc0>
 8007e32:	e5c0      	b.n	80079b6 <_malloc_r+0x3e>
 8007e34:	1859      	adds	r1, r3, r1
 8007e36:	461f      	mov	r7, r3
 8007e38:	6848      	ldr	r0, [r1, #4]
 8007e3a:	68db      	ldr	r3, [r3, #12]
 8007e3c:	f857 2f08 	ldr.w	r2, [r7, #8]!
 8007e40:	f040 0001 	orr.w	r0, r0, #1
 8007e44:	6048      	str	r0, [r1, #4]
 8007e46:	60d3      	str	r3, [r2, #12]
 8007e48:	609a      	str	r2, [r3, #8]
 8007e4a:	4628      	mov	r0, r5
 8007e4c:	f7f8 ffdc 	bl	8000e08 <__malloc_unlock>
 8007e50:	e5c1      	b.n	80079d6 <_malloc_r+0x5e>
 8007e52:	42b7      	cmp	r7, r6
 8007e54:	f43f aed7 	beq.w	8007c06 <_malloc_r+0x28e>
 8007e58:	4b0d      	ldr	r3, [pc, #52]	; (8007e90 <_malloc_r+0x518>)
 8007e5a:	689f      	ldr	r7, [r3, #8]
 8007e5c:	687b      	ldr	r3, [r7, #4]
 8007e5e:	f023 0303 	bic.w	r3, r3, #3
 8007e62:	e735      	b.n	8007cd0 <_malloc_r+0x358>
 8007e64:	684b      	ldr	r3, [r1, #4]
 8007e66:	ea4f 08a8 	mov.w	r8, r8, asr #2
 8007e6a:	2001      	movs	r0, #1
 8007e6c:	fa00 f008 	lsl.w	r0, r0, r8
 8007e70:	4303      	orrs	r3, r0
 8007e72:	604b      	str	r3, [r1, #4]
 8007e74:	4611      	mov	r1, r2
 8007e76:	e79d      	b.n	8007db4 <_malloc_r+0x43c>
 8007e78:	2301      	movs	r3, #1
 8007e7a:	f8c9 3004 	str.w	r3, [r9, #4]
 8007e7e:	464f      	mov	r7, r9
 8007e80:	2300      	movs	r3, #0
 8007e82:	e725      	b.n	8007cd0 <_malloc_r+0x358>
 8007e84:	68b7      	ldr	r7, [r6, #8]
 8007e86:	687b      	ldr	r3, [r7, #4]
 8007e88:	f023 0303 	bic.w	r3, r3, #3
 8007e8c:	e720      	b.n	8007cd0 <_malloc_r+0x358>
 8007e8e:	bf00      	nop
 8007e90:	2000003c 	.word	0x2000003c
 8007e94:	200008b8 	.word	0x200008b8
 8007e98:	0511      	lsls	r1, r2, #20
 8007e9a:	0d09      	lsrs	r1, r1, #20
 8007e9c:	2900      	cmp	r1, #0
 8007e9e:	f47f aeba 	bne.w	8007c16 <_malloc_r+0x29e>
 8007ea2:	68b2      	ldr	r2, [r6, #8]
 8007ea4:	eb0b 0108 	add.w	r1, fp, r8
 8007ea8:	f041 0101 	orr.w	r1, r1, #1
 8007eac:	6051      	str	r1, [r2, #4]
 8007eae:	e6ff      	b.n	8007cb0 <_malloc_r+0x338>
 8007eb0:	2201      	movs	r2, #1
 8007eb2:	f04f 0b00 	mov.w	fp, #0
 8007eb6:	e6da      	b.n	8007c6e <_malloc_r+0x2f6>
 8007eb8:	4628      	mov	r0, r5
 8007eba:	f107 0108 	add.w	r1, r7, #8
 8007ebe:	f000 f8e1 	bl	8008084 <_free_r>
 8007ec2:	4b06      	ldr	r3, [pc, #24]	; (8007edc <_malloc_r+0x564>)
 8007ec4:	685b      	ldr	r3, [r3, #4]
 8007ec6:	e6f3      	b.n	8007cb0 <_malloc_r+0x338>
 8007ec8:	6873      	ldr	r3, [r6, #4]
 8007eca:	ea23 0300 	bic.w	r3, r3, r0
 8007ece:	6073      	str	r3, [r6, #4]
 8007ed0:	e79b      	b.n	8007e0a <_malloc_r+0x492>
 8007ed2:	0040      	lsls	r0, r0, #1
 8007ed4:	f108 0804 	add.w	r8, r8, #4
 8007ed8:	e79e      	b.n	8007e18 <_malloc_r+0x4a0>
 8007eda:	bf00      	nop
 8007edc:	200008b8 	.word	0x200008b8

08007ee0 <memcpy>:
 8007ee0:	2a0f      	cmp	r2, #15
 8007ee2:	b4f0      	push	{r4, r5, r6, r7}
 8007ee4:	bf98      	it	ls
 8007ee6:	4603      	movls	r3, r0
 8007ee8:	d931      	bls.n	8007f4e <memcpy+0x6e>
 8007eea:	ea41 0300 	orr.w	r3, r1, r0
 8007eee:	079b      	lsls	r3, r3, #30
 8007ef0:	d137      	bne.n	8007f62 <memcpy+0x82>
 8007ef2:	460c      	mov	r4, r1
 8007ef4:	4603      	mov	r3, r0
 8007ef6:	4615      	mov	r5, r2
 8007ef8:	6826      	ldr	r6, [r4, #0]
 8007efa:	601e      	str	r6, [r3, #0]
 8007efc:	6866      	ldr	r6, [r4, #4]
 8007efe:	605e      	str	r6, [r3, #4]
 8007f00:	68a6      	ldr	r6, [r4, #8]
 8007f02:	609e      	str	r6, [r3, #8]
 8007f04:	68e6      	ldr	r6, [r4, #12]
 8007f06:	3d10      	subs	r5, #16
 8007f08:	60de      	str	r6, [r3, #12]
 8007f0a:	3410      	adds	r4, #16
 8007f0c:	3310      	adds	r3, #16
 8007f0e:	2d0f      	cmp	r5, #15
 8007f10:	d8f2      	bhi.n	8007ef8 <memcpy+0x18>
 8007f12:	f1a2 0410 	sub.w	r4, r2, #16
 8007f16:	f024 040f 	bic.w	r4, r4, #15
 8007f1a:	f002 020f 	and.w	r2, r2, #15
 8007f1e:	3410      	adds	r4, #16
 8007f20:	2a03      	cmp	r2, #3
 8007f22:	eb00 0304 	add.w	r3, r0, r4
 8007f26:	4421      	add	r1, r4
 8007f28:	d911      	bls.n	8007f4e <memcpy+0x6e>
 8007f2a:	1f0e      	subs	r6, r1, #4
 8007f2c:	461d      	mov	r5, r3
 8007f2e:	4614      	mov	r4, r2
 8007f30:	f856 7f04 	ldr.w	r7, [r6, #4]!
 8007f34:	3c04      	subs	r4, #4
 8007f36:	2c03      	cmp	r4, #3
 8007f38:	f845 7b04 	str.w	r7, [r5], #4
 8007f3c:	d8f8      	bhi.n	8007f30 <memcpy+0x50>
 8007f3e:	1f14      	subs	r4, r2, #4
 8007f40:	f024 0403 	bic.w	r4, r4, #3
 8007f44:	3404      	adds	r4, #4
 8007f46:	f002 0203 	and.w	r2, r2, #3
 8007f4a:	1909      	adds	r1, r1, r4
 8007f4c:	191b      	adds	r3, r3, r4
 8007f4e:	b132      	cbz	r2, 8007f5e <memcpy+0x7e>
 8007f50:	3901      	subs	r1, #1
 8007f52:	f811 4f01 	ldrb.w	r4, [r1, #1]!
 8007f56:	3a01      	subs	r2, #1
 8007f58:	f803 4b01 	strb.w	r4, [r3], #1
 8007f5c:	d1f9      	bne.n	8007f52 <memcpy+0x72>
 8007f5e:	bcf0      	pop	{r4, r5, r6, r7}
 8007f60:	4770      	bx	lr
 8007f62:	4603      	mov	r3, r0
 8007f64:	e7f4      	b.n	8007f50 <memcpy+0x70>
 8007f66:	bf00      	nop

08007f68 <_sbrk_r>:
 8007f68:	b538      	push	{r3, r4, r5, lr}
 8007f6a:	4c07      	ldr	r4, [pc, #28]	; (8007f88 <_sbrk_r+0x20>)
 8007f6c:	2300      	movs	r3, #0
 8007f6e:	4605      	mov	r5, r0
 8007f70:	4608      	mov	r0, r1
 8007f72:	6023      	str	r3, [r4, #0]
 8007f74:	f7f8 ff2a 	bl	8000dcc <_sbrk>
 8007f78:	1c43      	adds	r3, r0, #1
 8007f7a:	d000      	beq.n	8007f7e <_sbrk_r+0x16>
 8007f7c:	bd38      	pop	{r3, r4, r5, pc}
 8007f7e:	6823      	ldr	r3, [r4, #0]
 8007f80:	2b00      	cmp	r3, #0
 8007f82:	d0fb      	beq.n	8007f7c <_sbrk_r+0x14>
 8007f84:	602b      	str	r3, [r5, #0]
 8007f86:	bd38      	pop	{r3, r4, r5, pc}
 8007f88:	200009b0 	.word	0x200009b0

08007f8c <strlen>:
 8007f8c:	f020 0103 	bic.w	r1, r0, #3
 8007f90:	f010 0003 	ands.w	r0, r0, #3
 8007f94:	f1c0 0000 	rsb	r0, r0, #0
 8007f98:	f851 3b04 	ldr.w	r3, [r1], #4
 8007f9c:	f100 0c04 	add.w	ip, r0, #4
 8007fa0:	ea4f 0ccc 	mov.w	ip, ip, lsl #3
 8007fa4:	f06f 0200 	mvn.w	r2, #0
 8007fa8:	bf1c      	itt	ne
 8007faa:	fa22 f20c 	lsrne.w	r2, r2, ip
 8007fae:	4313      	orrne	r3, r2
 8007fb0:	f04f 0c01 	mov.w	ip, #1
 8007fb4:	ea4c 2c0c 	orr.w	ip, ip, ip, lsl #8
 8007fb8:	ea4c 4c0c 	orr.w	ip, ip, ip, lsl #16
 8007fbc:	eba3 020c 	sub.w	r2, r3, ip
 8007fc0:	ea22 0203 	bic.w	r2, r2, r3
 8007fc4:	ea12 12cc 	ands.w	r2, r2, ip, lsl #7
 8007fc8:	bf04      	itt	eq
 8007fca:	f851 3b04 	ldreq.w	r3, [r1], #4
 8007fce:	3004      	addeq	r0, #4
 8007fd0:	d0f4      	beq.n	8007fbc <strlen+0x30>
 8007fd2:	f013 0fff 	tst.w	r3, #255	; 0xff
 8007fd6:	bf1f      	itttt	ne
 8007fd8:	3001      	addne	r0, #1
 8007fda:	f413 4f7f 	tstne.w	r3, #65280	; 0xff00
 8007fde:	3001      	addne	r0, #1
 8007fe0:	f413 0f7f 	tstne.w	r3, #16711680	; 0xff0000
 8007fe4:	bf18      	it	ne
 8007fe6:	3001      	addne	r0, #1
 8007fe8:	4770      	bx	lr
 8007fea:	bf00      	nop

08007fec <_malloc_trim_r>:
 8007fec:	b5f8      	push	{r3, r4, r5, r6, r7, lr}
 8007fee:	4d22      	ldr	r5, [pc, #136]	; (8008078 <_malloc_trim_r+0x8c>)
 8007ff0:	460f      	mov	r7, r1
 8007ff2:	4604      	mov	r4, r0
 8007ff4:	f7f8 fefe 	bl	8000df4 <__malloc_lock>
 8007ff8:	68ab      	ldr	r3, [r5, #8]
 8007ffa:	685e      	ldr	r6, [r3, #4]
 8007ffc:	f026 0603 	bic.w	r6, r6, #3
 8008000:	f606 73ef 	addw	r3, r6, #4079	; 0xfef
 8008004:	1bdf      	subs	r7, r3, r7
 8008006:	0b3f      	lsrs	r7, r7, #12
 8008008:	3f01      	subs	r7, #1
 800800a:	033f      	lsls	r7, r7, #12
 800800c:	f5b7 5f80 	cmp.w	r7, #4096	; 0x1000
 8008010:	4620      	mov	r0, r4
 8008012:	db07      	blt.n	8008024 <_malloc_trim_r+0x38>
 8008014:	2100      	movs	r1, #0
 8008016:	f7ff ffa7 	bl	8007f68 <_sbrk_r>
 800801a:	68ab      	ldr	r3, [r5, #8]
 800801c:	199b      	adds	r3, r3, r6
 800801e:	4298      	cmp	r0, r3
 8008020:	4620      	mov	r0, r4
 8008022:	d003      	beq.n	800802c <_malloc_trim_r+0x40>
 8008024:	f7f8 fef0 	bl	8000e08 <__malloc_unlock>
 8008028:	2000      	movs	r0, #0
 800802a:	bdf8      	pop	{r3, r4, r5, r6, r7, pc}
 800802c:	4279      	negs	r1, r7
 800802e:	f7ff ff9b 	bl	8007f68 <_sbrk_r>
 8008032:	3001      	adds	r0, #1
 8008034:	d00d      	beq.n	8008052 <_malloc_trim_r+0x66>
 8008036:	4b11      	ldr	r3, [pc, #68]	; (800807c <_malloc_trim_r+0x90>)
 8008038:	68aa      	ldr	r2, [r5, #8]
 800803a:	6819      	ldr	r1, [r3, #0]
 800803c:	1bf6      	subs	r6, r6, r7
 800803e:	f046 0601 	orr.w	r6, r6, #1
 8008042:	1bcf      	subs	r7, r1, r7
 8008044:	4620      	mov	r0, r4
 8008046:	6056      	str	r6, [r2, #4]
 8008048:	601f      	str	r7, [r3, #0]
 800804a:	f7f8 fedd 	bl	8000e08 <__malloc_unlock>
 800804e:	2001      	movs	r0, #1
 8008050:	bdf8      	pop	{r3, r4, r5, r6, r7, pc}
 8008052:	2100      	movs	r1, #0
 8008054:	4620      	mov	r0, r4
 8008056:	f7ff ff87 	bl	8007f68 <_sbrk_r>
 800805a:	68ab      	ldr	r3, [r5, #8]
 800805c:	1ac2      	subs	r2, r0, r3
 800805e:	2a0f      	cmp	r2, #15
 8008060:	dd07      	ble.n	8008072 <_malloc_trim_r+0x86>
 8008062:	4907      	ldr	r1, [pc, #28]	; (8008080 <_malloc_trim_r+0x94>)
 8008064:	6809      	ldr	r1, [r1, #0]
 8008066:	1a40      	subs	r0, r0, r1
 8008068:	4904      	ldr	r1, [pc, #16]	; (800807c <_malloc_trim_r+0x90>)
 800806a:	f042 0201 	orr.w	r2, r2, #1
 800806e:	6008      	str	r0, [r1, #0]
 8008070:	605a      	str	r2, [r3, #4]
 8008072:	4620      	mov	r0, r4
 8008074:	e7d6      	b.n	8008024 <_malloc_trim_r+0x38>
 8008076:	bf00      	nop
 8008078:	2000003c 	.word	0x2000003c
 800807c:	200008bc 	.word	0x200008bc
 8008080:	20000444 	.word	0x20000444

08008084 <_free_r>:
 8008084:	e92d 41f0 	stmdb	sp!, {r4, r5, r6, r7, r8, lr}
 8008088:	460d      	mov	r5, r1
 800808a:	4604      	mov	r4, r0
 800808c:	2900      	cmp	r1, #0
 800808e:	d06f      	beq.n	8008170 <_free_r+0xec>
 8008090:	f7f8 feb0 	bl	8000df4 <__malloc_lock>
 8008094:	f855 0c04 	ldr.w	r0, [r5, #-4]
 8008098:	4e58      	ldr	r6, [pc, #352]	; (80081fc <_free_r+0x178>)
 800809a:	f1a5 0108 	sub.w	r1, r5, #8
 800809e:	f020 0301 	bic.w	r3, r0, #1
 80080a2:	18ca      	adds	r2, r1, r3
 80080a4:	f8d6 c008 	ldr.w	ip, [r6, #8]
 80080a8:	6857      	ldr	r7, [r2, #4]
 80080aa:	4594      	cmp	ip, r2
 80080ac:	f027 0703 	bic.w	r7, r7, #3
 80080b0:	d07c      	beq.n	80081ac <_free_r+0x128>
 80080b2:	f010 0001 	ands.w	r0, r0, #1
 80080b6:	6057      	str	r7, [r2, #4]
 80080b8:	d049      	beq.n	800814e <_free_r+0xca>
 80080ba:	2000      	movs	r0, #0
 80080bc:	19d5      	adds	r5, r2, r7
 80080be:	686d      	ldr	r5, [r5, #4]
 80080c0:	f015 0f01 	tst.w	r5, #1
 80080c4:	d106      	bne.n	80080d4 <_free_r+0x50>
 80080c6:	19db      	adds	r3, r3, r7
 80080c8:	6895      	ldr	r5, [r2, #8]
 80080ca:	2800      	cmp	r0, #0
 80080cc:	d062      	beq.n	8008194 <_free_r+0x110>
 80080ce:	68d2      	ldr	r2, [r2, #12]
 80080d0:	60ea      	str	r2, [r5, #12]
 80080d2:	6095      	str	r5, [r2, #8]
 80080d4:	f043 0201 	orr.w	r2, r3, #1
 80080d8:	604a      	str	r2, [r1, #4]
 80080da:	50cb      	str	r3, [r1, r3]
 80080dc:	bb90      	cbnz	r0, 8008144 <_free_r+0xc0>
 80080de:	f5b3 7f00 	cmp.w	r3, #512	; 0x200
 80080e2:	d347      	bcc.n	8008174 <_free_r+0xf0>
 80080e4:	099d      	lsrs	r5, r3, #6
 80080e6:	3538      	adds	r5, #56	; 0x38
 80080e8:	0a5a      	lsrs	r2, r3, #9
 80080ea:	00e8      	lsls	r0, r5, #3
 80080ec:	2a04      	cmp	r2, #4
 80080ee:	d916      	bls.n	800811e <_free_r+0x9a>
 80080f0:	f102 055b 	add.w	r5, r2, #91	; 0x5b
 80080f4:	00e8      	lsls	r0, r5, #3
 80080f6:	2a14      	cmp	r2, #20
 80080f8:	d911      	bls.n	800811e <_free_r+0x9a>
 80080fa:	0b1d      	lsrs	r5, r3, #12
 80080fc:	356e      	adds	r5, #110	; 0x6e
 80080fe:	00e8      	lsls	r0, r5, #3
 8008100:	2a54      	cmp	r2, #84	; 0x54
 8008102:	d90c      	bls.n	800811e <_free_r+0x9a>
 8008104:	0bdd      	lsrs	r5, r3, #15
 8008106:	3577      	adds	r5, #119	; 0x77
 8008108:	00e8      	lsls	r0, r5, #3
 800810a:	f5b2 7faa 	cmp.w	r2, #340	; 0x154
 800810e:	d906      	bls.n	800811e <_free_r+0x9a>
 8008110:	f240 5054 	movw	r0, #1364	; 0x554
 8008114:	4282      	cmp	r2, r0
 8008116:	d86d      	bhi.n	80081f4 <_free_r+0x170>
 8008118:	0c9d      	lsrs	r5, r3, #18
 800811a:	357c      	adds	r5, #124	; 0x7c
 800811c:	00e8      	lsls	r0, r5, #3
 800811e:	1986      	adds	r6, r0, r6
 8008120:	4836      	ldr	r0, [pc, #216]	; (80081fc <_free_r+0x178>)
 8008122:	68b2      	ldr	r2, [r6, #8]
 8008124:	42b2      	cmp	r2, r6
 8008126:	d103      	bne.n	8008130 <_free_r+0xac>
 8008128:	e05b      	b.n	80081e2 <_free_r+0x15e>
 800812a:	6892      	ldr	r2, [r2, #8]
 800812c:	4296      	cmp	r6, r2
 800812e:	d004      	beq.n	800813a <_free_r+0xb6>
 8008130:	6850      	ldr	r0, [r2, #4]
 8008132:	f020 0003 	bic.w	r0, r0, #3
 8008136:	4283      	cmp	r3, r0
 8008138:	d3f7      	bcc.n	800812a <_free_r+0xa6>
 800813a:	68d3      	ldr	r3, [r2, #12]
 800813c:	60cb      	str	r3, [r1, #12]
 800813e:	608a      	str	r2, [r1, #8]
 8008140:	60d1      	str	r1, [r2, #12]
 8008142:	6099      	str	r1, [r3, #8]
 8008144:	4620      	mov	r0, r4
 8008146:	e8bd 41f0 	ldmia.w	sp!, {r4, r5, r6, r7, r8, lr}
 800814a:	f7f8 be5d 	b.w	8000e08 <__malloc_unlock>
 800814e:	f855 cc08 	ldr.w	ip, [r5, #-8]
 8008152:	ebcc 0101 	rsb	r1, ip, r1
 8008156:	f106 0808 	add.w	r8, r6, #8
 800815a:	688d      	ldr	r5, [r1, #8]
 800815c:	4545      	cmp	r5, r8
 800815e:	4463      	add	r3, ip
 8008160:	d03d      	beq.n	80081de <_free_r+0x15a>
 8008162:	f8d1 c00c 	ldr.w	ip, [r1, #12]
 8008166:	f8c5 c00c 	str.w	ip, [r5, #12]
 800816a:	f8cc 5008 	str.w	r5, [ip, #8]
 800816e:	e7a5      	b.n	80080bc <_free_r+0x38>
 8008170:	e8bd 81f0 	ldmia.w	sp!, {r4, r5, r6, r7, r8, pc}
 8008174:	08db      	lsrs	r3, r3, #3
 8008176:	eb06 02c3 	add.w	r2, r6, r3, lsl #3
 800817a:	6875      	ldr	r5, [r6, #4]
 800817c:	6890      	ldr	r0, [r2, #8]
 800817e:	60ca      	str	r2, [r1, #12]
 8008180:	109b      	asrs	r3, r3, #2
 8008182:	2701      	movs	r7, #1
 8008184:	fa17 f303 	lsls.w	r3, r7, r3
 8008188:	432b      	orrs	r3, r5
 800818a:	6088      	str	r0, [r1, #8]
 800818c:	6073      	str	r3, [r6, #4]
 800818e:	6091      	str	r1, [r2, #8]
 8008190:	60c1      	str	r1, [r0, #12]
 8008192:	e7d7      	b.n	8008144 <_free_r+0xc0>
 8008194:	4f1a      	ldr	r7, [pc, #104]	; (8008200 <_free_r+0x17c>)
 8008196:	42bd      	cmp	r5, r7
 8008198:	d199      	bne.n	80080ce <_free_r+0x4a>
 800819a:	f043 0201 	orr.w	r2, r3, #1
 800819e:	6171      	str	r1, [r6, #20]
 80081a0:	6131      	str	r1, [r6, #16]
 80081a2:	60cd      	str	r5, [r1, #12]
 80081a4:	608d      	str	r5, [r1, #8]
 80081a6:	604a      	str	r2, [r1, #4]
 80081a8:	50cb      	str	r3, [r1, r3]
 80081aa:	e7cb      	b.n	8008144 <_free_r+0xc0>
 80081ac:	07c2      	lsls	r2, r0, #31
 80081ae:	443b      	add	r3, r7
 80081b0:	d407      	bmi.n	80081c2 <_free_r+0x13e>
 80081b2:	f855 2c08 	ldr.w	r2, [r5, #-8]
 80081b6:	1a89      	subs	r1, r1, r2
 80081b8:	189b      	adds	r3, r3, r2
 80081ba:	6888      	ldr	r0, [r1, #8]
 80081bc:	68ca      	ldr	r2, [r1, #12]
 80081be:	60c2      	str	r2, [r0, #12]
 80081c0:	6090      	str	r0, [r2, #8]
 80081c2:	4a10      	ldr	r2, [pc, #64]	; (8008204 <_free_r+0x180>)
 80081c4:	60b1      	str	r1, [r6, #8]
 80081c6:	6812      	ldr	r2, [r2, #0]
 80081c8:	f043 0001 	orr.w	r0, r3, #1
 80081cc:	4293      	cmp	r3, r2
 80081ce:	6048      	str	r0, [r1, #4]
 80081d0:	d3b8      	bcc.n	8008144 <_free_r+0xc0>
 80081d2:	4b0d      	ldr	r3, [pc, #52]	; (8008208 <_free_r+0x184>)
 80081d4:	4620      	mov	r0, r4
 80081d6:	6819      	ldr	r1, [r3, #0]
 80081d8:	f7ff ff08 	bl	8007fec <_malloc_trim_r>
 80081dc:	e7b2      	b.n	8008144 <_free_r+0xc0>
 80081de:	2001      	movs	r0, #1
 80081e0:	e76c      	b.n	80080bc <_free_r+0x38>
 80081e2:	6843      	ldr	r3, [r0, #4]
 80081e4:	10ad      	asrs	r5, r5, #2
 80081e6:	2601      	movs	r6, #1
 80081e8:	fa16 f505 	lsls.w	r5, r6, r5
 80081ec:	432b      	orrs	r3, r5
 80081ee:	6043      	str	r3, [r0, #4]
 80081f0:	4613      	mov	r3, r2
 80081f2:	e7a3      	b.n	800813c <_free_r+0xb8>
 80081f4:	f44f 707c 	mov.w	r0, #1008	; 0x3f0
 80081f8:	257e      	movs	r5, #126	; 0x7e
 80081fa:	e790      	b.n	800811e <_free_r+0x9a>
 80081fc:	2000003c 	.word	0x2000003c
 8008200:	20000044 	.word	0x20000044
 8008204:	20000448 	.word	0x20000448
 8008208:	200008b8 	.word	0x200008b8

0800820c <cleanup_glue>:
 800820c:	b538      	push	{r3, r4, r5, lr}
 800820e:	460c      	mov	r4, r1
 8008210:	6809      	ldr	r1, [r1, #0]
 8008212:	4605      	mov	r5, r0
 8008214:	b109      	cbz	r1, 800821a <cleanup_glue+0xe>
 8008216:	f7ff fff9 	bl	800820c <cleanup_glue>
 800821a:	4628      	mov	r0, r5
 800821c:	4621      	mov	r1, r4
 800821e:	e8bd 4038 	ldmia.w	sp!, {r3, r4, r5, lr}
 8008222:	f7ff bf2f 	b.w	8008084 <_free_r>
 8008226:	bf00      	nop

08008228 <_reclaim_reent>:
 8008228:	4b22      	ldr	r3, [pc, #136]	; (80082b4 <_reclaim_reent+0x8c>)
 800822a:	681b      	ldr	r3, [r3, #0]
 800822c:	4298      	cmp	r0, r3
 800822e:	b570      	push	{r4, r5, r6, lr}
 8008230:	4605      	mov	r5, r0
 8008232:	d032      	beq.n	800829a <_reclaim_reent+0x72>
 8008234:	6cc3      	ldr	r3, [r0, #76]	; 0x4c
 8008236:	b1ab      	cbz	r3, 8008264 <_reclaim_reent+0x3c>
 8008238:	2200      	movs	r2, #0
 800823a:	4616      	mov	r6, r2
 800823c:	f853 1022 	ldr.w	r1, [r3, r2, lsl #2]
 8008240:	b909      	cbnz	r1, 8008246 <_reclaim_reent+0x1e>
 8008242:	e007      	b.n	8008254 <_reclaim_reent+0x2c>
 8008244:	4621      	mov	r1, r4
 8008246:	680c      	ldr	r4, [r1, #0]
 8008248:	4628      	mov	r0, r5
 800824a:	f7ff ff1b 	bl	8008084 <_free_r>
 800824e:	2c00      	cmp	r4, #0
 8008250:	d1f8      	bne.n	8008244 <_reclaim_reent+0x1c>
 8008252:	6ceb      	ldr	r3, [r5, #76]	; 0x4c
 8008254:	3601      	adds	r6, #1
 8008256:	2e20      	cmp	r6, #32
 8008258:	4632      	mov	r2, r6
 800825a:	d1ef      	bne.n	800823c <_reclaim_reent+0x14>
 800825c:	4628      	mov	r0, r5
 800825e:	4619      	mov	r1, r3
 8008260:	f7ff ff10 	bl	8008084 <_free_r>
 8008264:	6c29      	ldr	r1, [r5, #64]	; 0x40
 8008266:	b111      	cbz	r1, 800826e <_reclaim_reent+0x46>
 8008268:	4628      	mov	r0, r5
 800826a:	f7ff ff0b 	bl	8008084 <_free_r>
 800826e:	f8d5 1148 	ldr.w	r1, [r5, #328]	; 0x148
 8008272:	b159      	cbz	r1, 800828c <_reclaim_reent+0x64>
 8008274:	f505 76a6 	add.w	r6, r5, #332	; 0x14c
 8008278:	42b1      	cmp	r1, r6
 800827a:	d101      	bne.n	8008280 <_reclaim_reent+0x58>
 800827c:	e006      	b.n	800828c <_reclaim_reent+0x64>
 800827e:	4621      	mov	r1, r4
 8008280:	680c      	ldr	r4, [r1, #0]
 8008282:	4628      	mov	r0, r5
 8008284:	f7ff fefe 	bl	8008084 <_free_r>
 8008288:	42a6      	cmp	r6, r4
 800828a:	d1f8      	bne.n	800827e <_reclaim_reent+0x56>
 800828c:	6d69      	ldr	r1, [r5, #84]	; 0x54
 800828e:	b111      	cbz	r1, 8008296 <_reclaim_reent+0x6e>
 8008290:	4628      	mov	r0, r5
 8008292:	f7ff fef7 	bl	8008084 <_free_r>
 8008296:	6bab      	ldr	r3, [r5, #56]	; 0x38
 8008298:	b903      	cbnz	r3, 800829c <_reclaim_reent+0x74>
 800829a:	bd70      	pop	{r4, r5, r6, pc}
 800829c:	6beb      	ldr	r3, [r5, #60]	; 0x3c
 800829e:	4628      	mov	r0, r5
 80082a0:	4798      	blx	r3
 80082a2:	f8d5 12e0 	ldr.w	r1, [r5, #736]	; 0x2e0
 80082a6:	2900      	cmp	r1, #0
 80082a8:	d0f7      	beq.n	800829a <_reclaim_reent+0x72>
 80082aa:	4628      	mov	r0, r5
 80082ac:	e8bd 4070 	ldmia.w	sp!, {r4, r5, r6, lr}
 80082b0:	e7ac      	b.n	800820c <cleanup_glue>
 80082b2:	bf00      	nop
 80082b4:	20000450 	.word	0x20000450

080082b8 <_wrapup_reent>:
 80082b8:	b5f8      	push	{r3, r4, r5, r6, r7, lr}
 80082ba:	4607      	mov	r7, r0
 80082bc:	b1b0      	cbz	r0, 80082ec <_wrapup_reent+0x34>
 80082be:	f8d7 6148 	ldr.w	r6, [r7, #328]	; 0x148
 80082c2:	b176      	cbz	r6, 80082e2 <_wrapup_reent+0x2a>
 80082c4:	6875      	ldr	r5, [r6, #4]
 80082c6:	1e6c      	subs	r4, r5, #1
 80082c8:	d408      	bmi.n	80082dc <_wrapup_reent+0x24>
 80082ca:	3502      	adds	r5, #2
 80082cc:	eb06 0585 	add.w	r5, r6, r5, lsl #2
 80082d0:	f855 3d04 	ldr.w	r3, [r5, #-4]!
 80082d4:	3c01      	subs	r4, #1
 80082d6:	4798      	blx	r3
 80082d8:	1c63      	adds	r3, r4, #1
 80082da:	d1f9      	bne.n	80082d0 <_wrapup_reent+0x18>
 80082dc:	6836      	ldr	r6, [r6, #0]
 80082de:	2e00      	cmp	r6, #0
 80082e0:	d1f0      	bne.n	80082c4 <_wrapup_reent+0xc>
 80082e2:	6bfb      	ldr	r3, [r7, #60]	; 0x3c
 80082e4:	b10b      	cbz	r3, 80082ea <_wrapup_reent+0x32>
 80082e6:	4638      	mov	r0, r7
 80082e8:	4798      	blx	r3
 80082ea:	bdf8      	pop	{r3, r4, r5, r6, r7, pc}
 80082ec:	4b01      	ldr	r3, [pc, #4]	; (80082f4 <_wrapup_reent+0x3c>)
 80082ee:	681f      	ldr	r7, [r3, #0]
 80082f0:	e7e5      	b.n	80082be <_wrapup_reent+0x6>
 80082f2:	bf00      	nop
 80082f4:	20000450 	.word	0x20000450

080082f8 <main>:
 80082f8:	b508      	push	{r3, lr}
 80082fa:	f7f8 fc8f 	bl	8000c1c <NVIC_Config>
 80082fe:	f7f8 f9d1 	bl	80006a4 <GPIO_Master_init>
 8008302:	2002      	movs	r0, #2
 8008304:	f7f7 ff6c 	bl	80001e0 <STM_EVAL_LEDInit>
 8008308:	2003      	movs	r0, #3
 800830a:	f7f7 ff69 	bl	80001e0 <STM_EVAL_LEDInit>
 800830e:	2001      	movs	r0, #1
 8008310:	f7f7 ff66 	bl	80001e0 <STM_EVAL_LEDInit>
 8008314:	2000      	movs	r0, #0
 8008316:	f7f7 ff63 	bl	80001e0 <STM_EVAL_LEDInit>
 800831a:	2000      	movs	r0, #0
 800831c:	4601      	mov	r1, r0
 800831e:	f7f7 ffb7 	bl	8000290 <STM_EVAL_PBInit>
 8008322:	f7f8 fc17 	bl	8000b54 <CAN_Config>
 8008326:	f7f8 fb57 	bl	80009d8 <master_main>
 800832a:	2000      	movs	r0, #0
 800832c:	bd08      	pop	{r3, pc}
 800832e:	bf00      	nop

08008330 <Reset_Handler>:
 8008330:	f8df d050 	ldr.w	sp, [pc, #80]	; 8008384 <LoopForever+0x4>
 8008334:	2100      	movs	r1, #0
 8008336:	e003      	b.n	8008340 <LoopCopyDataInit>

08008338 <CopyDataInit>:
 8008338:	4b13      	ldr	r3, [pc, #76]	; (8008388 <LoopForever+0x8>)
 800833a:	585b      	ldr	r3, [r3, r1]
 800833c:	5043      	str	r3, [r0, r1]
 800833e:	3104      	adds	r1, #4

08008340 <LoopCopyDataInit>:
 8008340:	4812      	ldr	r0, [pc, #72]	; (800838c <LoopForever+0xc>)
 8008342:	4b13      	ldr	r3, [pc, #76]	; (8008390 <LoopForever+0x10>)
 8008344:	1842      	adds	r2, r0, r1
 8008346:	429a      	cmp	r2, r3
 8008348:	d3f6      	bcc.n	8008338 <CopyDataInit>
 800834a:	4a12      	ldr	r2, [pc, #72]	; (8008394 <LoopForever+0x14>)
 800834c:	e002      	b.n	8008354 <LoopFillZerobss>

0800834e <FillZerobss>:
 800834e:	2300      	movs	r3, #0
 8008350:	f842 3b04 	str.w	r3, [r2], #4

08008354 <LoopFillZerobss>:
 8008354:	4b10      	ldr	r3, [pc, #64]	; (8008398 <LoopForever+0x18>)
 8008356:	429a      	cmp	r2, r3
 8008358:	d3f9      	bcc.n	800834e <FillZerobss>
 800835a:	f7f8 fd5f 	bl	8000e1c <SystemInit>

0800835e <call_ctors>:
 800835e:	480f      	ldr	r0, [pc, #60]	; (800839c <LoopForever+0x1c>)
 8008360:	490f      	ldr	r1, [pc, #60]	; (80083a0 <LoopForever+0x20>)
 8008362:	1a09      	subs	r1, r1, r0
 8008364:	d006      	beq.n	8008374 <call_main>

08008366 <ctors_loop>:
 8008366:	f850 2b04 	ldr.w	r2, [r0], #4
 800836a:	b403      	push	{r0, r1}
 800836c:	4790      	blx	r2
 800836e:	bc03      	pop	{r0, r1}
 8008370:	3904      	subs	r1, #4
 8008372:	dcf8      	bgt.n	8008366 <ctors_loop>

08008374 <call_main>:
 8008374:	f04f 0000 	mov.w	r0, #0
 8008378:	f04f 0100 	mov.w	r1, #0
 800837c:	f7ff ffbc 	bl	80082f8 <main>

08008380 <LoopForever>:
 8008380:	e7fe      	b.n	8008380 <LoopForever>
 8008382:	0000      	.short	0x0000
 8008384:	20020000 	.word	0x20020000
 8008388:	08008448 	.word	0x08008448
 800838c:	20000000 	.word	0x20000000
 8008390:	20000880 	.word	0x20000880
 8008394:	20000880 	.word	0x20000880
 8008398:	200009b4 	.word	0x200009b4
 800839c:	08008448 	.word	0x08008448
 80083a0:	08008448 	.word	0x08008448

080083a4 <ADC_IRQHandler>:
 80083a4:	e7fe      	b.n	80083a4 <ADC_IRQHandler>
	...

080083a8 <GPIO_CLK>:
 80083a8:	0008 0000 0008 0000 0008 0000 0008 0000     ................

080083b8 <GPIO_PIN>:
 80083b8:	1000 2000 4000 8000                         ... .@..

080083c0 <BUTTON_IRQn>:
 80083c0:	0006 0000                                   ....

080083c4 <BUTTON_PIN_SOURCE>:
 80083c4:	0000 0000                                   ....

080083c8 <BUTTON_PORT_SOURCE>:
 80083c8:	0000 0000                                   ....

080083cc <BUTTON_EXTI_LINE>:
 80083cc:	0001 0000                                   ....

080083d0 <BUTTON_CLK>:
 80083d0:	0001 0000                                   ....

080083d4 <BUTTON_PIN>:
 80083d4:	0001 0000 4641 4546 4641 4546               ....AFFEAFFE

080083e0 <_global_impure_ptr>:
 80083e0:	0458 2000 3130 3332 3534 3736 3938 0000     X.. 0123456789..
 80083f0:	3b20 0020 7830 0000 2023 614d 7473 7265      ; .0x..# Master
 8008400:	6f4e 6564 7520 0a70 0000 0000 2023 7845     Node up.....# Ex
 8008410:	6570 6972 656d 746e 7420 6d69 6f65 7475     periment timeout
 8008420:	000a 0000 6e55 7865 6570 7463 6465 5220     ....Unexpected R
 8008430:	6365 7065 6974 6e6f 6120 6f62 7472 6e69     eception abortin
 8008440:	0d67 000a 0043 0000                         g...C...
