   1              		.syntax unified
   2              		.cpu cortex-m4
   3              		.fpu softvfp
   4              		.eabi_attribute 20, 1
   5              		.eabi_attribute 21, 1
   6              		.eabi_attribute 23, 3
   7              		.eabi_attribute 24, 1
   8              		.eabi_attribute 25, 1
   9              		.eabi_attribute 26, 1
  10              		.eabi_attribute 30, 2
  11              		.eabi_attribute 18, 4
  12              		.thumb
  13              		.file	"main.c"
  14              		.text
  15              		.align	2
  16              		.global	CAN_Config
  17              		.thumb
  18              		.thumb_func
  20              	CAN_Config:
  21              		@ args = 0, pretend = 0, frame = 40
  22              		@ frame_needed = 0, uses_anonymous_args = 0
  23 0000 70B5     		push	{r4, r5, r6, lr}
  24 0002 4FF44065 		mov	r5, #3072
  25 0006 8AB0     		sub	sp, sp, #40
  26 0008 C4F20205 		movt	r5, 16386
  27 000c 0820     		movs	r0, #8
  28 000e 0121     		movs	r1, #1
  29 0010 FFF7FEFF 		bl	RCC_AHB1PeriphClockCmd
  30 0014 0021     		movs	r1, #0
  31 0016 0922     		movs	r2, #9
  32 0018 2846     		mov	r0, r5
  33 001a FFF7FEFF 		bl	GPIO_PinAFConfig
  34 001e 2846     		mov	r0, r5
  35 0020 0922     		movs	r2, #9
  36 0022 0121     		movs	r1, #1
  37 0024 0024     		movs	r4, #0
  38 0026 FFF7FEFF 		bl	GPIO_PinAFConfig
  39 002a 0126     		movs	r6, #1
  40 002c 0223     		movs	r3, #2
  41 002e 0322     		movs	r2, #3
  42 0030 2846     		mov	r0, r5
  43 0032 08A9     		add	r1, sp, #32
  44 0034 4FF4C845 		mov	r5, #25600
  45 0038 0892     		str	r2, [sp, #32]
  46 003a 8DF82430 		strb	r3, [sp, #36]
  47 003e 8DF82530 		strb	r3, [sp, #37]
  48 0042 C4F20005 		movt	r5, 16384
  49 0046 8DF82640 		strb	r4, [sp, #38]
  50 004a 8DF82760 		strb	r6, [sp, #39]
  51 004e FFF7FEFF 		bl	GPIO_Init
  52 0052 3146     		mov	r1, r6
  53 0054 4FF00070 		mov	r0, #33554432
  54 0058 FFF7FEFF 		bl	RCC_APB1PeriphClockCmd
  55 005c 2846     		mov	r0, r5
  56 005e FFF7FEFF 		bl	CAN_DeInit
  57 0062 0AA9     		add	r1, sp, #40
  58 0064 0623     		movs	r3, #6
  59 0066 0522     		movs	r2, #5
  60 0068 21F8143D 		strh	r3, [r1, #-20]!	@ movhi
  61 006c 2846     		mov	r0, r5
  62 006e 8DF81A40 		strb	r4, [sp, #26]
  63 0072 8DF81B40 		strb	r4, [sp, #27]
  64 0076 8DF81C40 		strb	r4, [sp, #28]
  65 007a 8DF81D40 		strb	r4, [sp, #29]
  66 007e 8DF81E40 		strb	r4, [sp, #30]
  67 0082 8DF81F40 		strb	r4, [sp, #31]
  68 0086 8DF81640 		strb	r4, [sp, #22]
  69 008a 8DF81740 		strb	r4, [sp, #23]
  70 008e 8DF81820 		strb	r2, [sp, #24]
  71 0092 8DF81930 		strb	r3, [sp, #25]
  72 0096 FFF7FEFF 		bl	CAN_Init
  73 009a 01A8     		add	r0, sp, #4
  74 009c 8DF80E40 		strb	r4, [sp, #14]
  75 00a0 8DF80F40 		strb	r4, [sp, #15]
  76 00a4 8DF81060 		strb	r6, [sp, #16]
  77 00a8 ADF80440 		strh	r4, [sp, #4]	@ movhi
  78 00ac ADF80640 		strh	r4, [sp, #6]	@ movhi
  79 00b0 ADF80840 		strh	r4, [sp, #8]	@ movhi
  80 00b4 ADF80A40 		strh	r4, [sp, #10]	@ movhi
  81 00b8 ADF80C40 		strh	r4, [sp, #12]	@ movhi
  82 00bc 8DF81160 		strb	r6, [sp, #17]
  83 00c0 FFF7FEFF 		bl	CAN_FilterInit
  84 00c4 0AB0     		add	sp, sp, #40
  85 00c6 70BD     		pop	{r4, r5, r6, pc}
  87              		.align	2
  88              		.global	NVIC_Config
  89              		.thumb
  90              		.thumb_func
  92              	NVIC_Config:
  93              		@ args = 0, pretend = 0, frame = 8
  94              		@ frame_needed = 0, uses_anonymous_args = 0
  95 00c8 00B5     		push	{lr}
  96 00ca 83B0     		sub	sp, sp, #12
  97 00cc 0023     		movs	r3, #0
  98 00ce 1422     		movs	r2, #20
  99 00d0 8DF80530 		strb	r3, [sp, #5]
 100 00d4 8DF80630 		strb	r3, [sp, #6]
 101 00d8 01A8     		add	r0, sp, #4
 102 00da 0123     		movs	r3, #1
 103 00dc 8DF80420 		strb	r2, [sp, #4]
 104 00e0 8DF80730 		strb	r3, [sp, #7]
 105 00e4 FFF7FEFF 		bl	NVIC_Init
 106 00e8 03B0     		add	sp, sp, #12
 107 00ea 00BD     		pop	{pc}
 109              		.section	.text.startup,"ax",%progbits
 110              		.align	2
 111              		.global	main
 112              		.thumb
 113              		.thumb_func
 115              	main:
 116              		@ args = 0, pretend = 0, frame = 0
 117              		@ frame_needed = 0, uses_anonymous_args = 0
 118 0000 08B5     		push	{r3, lr}
 119 0002 FFF7FEFF 		bl	NVIC_Config
 120 0006 FFF7FEFF 		bl	GPIO_Master_init
 121 000a 0220     		movs	r0, #2
 122 000c FFF7FEFF 		bl	STM_EVAL_LEDInit
 123 0010 0320     		movs	r0, #3
 124 0012 FFF7FEFF 		bl	STM_EVAL_LEDInit
 125 0016 0120     		movs	r0, #1
 126 0018 FFF7FEFF 		bl	STM_EVAL_LEDInit
 127 001c 0020     		movs	r0, #0
 128 001e FFF7FEFF 		bl	STM_EVAL_LEDInit
 129 0022 0020     		movs	r0, #0
 130 0024 0146     		mov	r1, r0
 131 0026 FFF7FEFF 		bl	STM_EVAL_PBInit
 132 002a FFF7FEFF 		bl	CAN_Config
 133 002e FFF7FEFF 		bl	master_main
 134 0032 0020     		movs	r0, #0
 135 0034 08BD     		pop	{r3, pc}
 137 0036 00BF     		.text
 138              		.align	2
 139              		.global	LED_Display
 140              		.thumb
 141              		.thumb_func
 143              	LED_Display:
 144              		@ args = 0, pretend = 0, frame = 0
 145              		@ frame_needed = 0, uses_anonymous_args = 0
 146 00ec 10B5     		push	{r4, lr}
 147 00ee 0446     		mov	r4, r0
 148 00f0 0220     		movs	r0, #2
 149 00f2 FFF7FEFF 		bl	STM_EVAL_LEDOff
 150 00f6 0320     		movs	r0, #3
 151 00f8 FFF7FEFF 		bl	STM_EVAL_LEDOff
 152 00fc 0120     		movs	r0, #1
 153 00fe FFF7FEFF 		bl	STM_EVAL_LEDOff
 154 0102 0020     		movs	r0, #0
 155 0104 FFF7FEFF 		bl	STM_EVAL_LEDOff
 156 0108 032C     		cmp	r4, #3
 157 010a 17D8     		bhi	.L4
 158 010c DFE804F0 		tbb	[pc, r4]
 159              	.L10:
 160 0110 11       		.byte	(.L6-.L10)/2
 161 0111 0C       		.byte	(.L7-.L10)/2
 162 0112 07       		.byte	(.L8-.L10)/2
 163 0113 02       		.byte	(.L9-.L10)/2
 164              		.align	1
 165              	.L9:
 166 0114 0120     		movs	r0, #1
 167 0116 BDE81040 		pop	{r4, lr}
 168 011a FFF7FEBF 		b	STM_EVAL_LEDOn
 169              	.L8:
 170 011e 0020     		movs	r0, #0
 171 0120 BDE81040 		pop	{r4, lr}
 172 0124 FFF7FEBF 		b	STM_EVAL_LEDOn
 173              	.L7:
 174 0128 0320     		movs	r0, #3
 175 012a BDE81040 		pop	{r4, lr}
 176 012e FFF7FEBF 		b	STM_EVAL_LEDOn
 177              	.L6:
 178 0132 0220     		movs	r0, #2
 179 0134 BDE81040 		pop	{r4, lr}
 180 0138 FFF7FEBF 		b	STM_EVAL_LEDOn
 181              	.L4:
 182 013c 10BD     		pop	{r4, pc}
 184 013e 00BF     		.align	2
 185              		.global	Delay
 186              		.thumb
 187              		.thumb_func
 189              	Delay:
 190              		@ args = 0, pretend = 0, frame = 0
 191              		@ frame_needed = 0, uses_anonymous_args = 0
 192              		@ link register save eliminated.
 193 0140 7047     		bx	lr
 195 0142 00BF     		.align	2
 196              		.global	EVAL_AUDIO_TransferComplete_CallBack
 197              		.thumb
 198              		.thumb_func
 200              	EVAL_AUDIO_TransferComplete_CallBack:
 201              		@ args = 0, pretend = 0, frame = 0
 202              		@ frame_needed = 0, uses_anonymous_args = 0
 203              		@ link register save eliminated.
 204 0144 7047     		bx	lr
 206 0146 00BF     		.align	2
 207              		.global	EVAL_AUDIO_GetSampleCallBack
 208              		.thumb
 209              		.thumb_func
 211              	EVAL_AUDIO_GetSampleCallBack:
 212              		@ args = 0, pretend = 0, frame = 0
 213              		@ frame_needed = 0, uses_anonymous_args = 0
 214              		@ link register save eliminated.
 215 0148 0020     		movs	r0, #0
 216 014a 7047     		bx	lr
 218              		.ident	"GCC: (Linaro GCC 4.6-2011.10) 4.6.2 20111004 (prerelease)"