   1              		.syntax unified
   2              		.cpu cortex-m4
   3              		.fpu softvfp
   4              		.eabi_attribute 20, 1
   5              		.eabi_attribute 21, 1
   6              		.eabi_attribute 23, 3
   7              		.eabi_attribute 24, 1
   8              		.eabi_attribute 25, 1
   9              		.eabi_attribute 26, 1
  10              		.eabi_attribute 30, 2
  11              		.eabi_attribute 18, 4
  12              		.thumb
  13              		.file	"stm32f4xx_it.c"
  14              		.text
  15              		.align	2
  16              		.global	NMI_Handler
  17              		.thumb
  18              		.thumb_func
  20              	NMI_Handler:
  21              		@ args = 0, pretend = 0, frame = 0
  22              		@ frame_needed = 0, uses_anonymous_args = 0
  23              		@ link register save eliminated.
  24 0000 7047     		bx	lr
  26 0002 00BF     		.align	2
  27              		.global	HardFault_Handler
  28              		.thumb
  29              		.thumb_func
  31              	HardFault_Handler:
  32              		@ Volatile: function does not return.
  33              		@ args = 0, pretend = 0, frame = 0
  34              		@ frame_needed = 0, uses_anonymous_args = 0
  35              		@ link register save eliminated.
  36              	.L3:
  37 0004 FEE7     		b	.L3
  39 0006 00BF     		.align	2
  40              		.global	MemManage_Handler
  41              		.thumb
  42              		.thumb_func
  44              	MemManage_Handler:
  45              		@ Volatile: function does not return.
  46              		@ args = 0, pretend = 0, frame = 0
  47              		@ frame_needed = 0, uses_anonymous_args = 0
  48              		@ link register save eliminated.
  49              	.L5:
  50 0008 FEE7     		b	.L5
  52 000a 00BF     		.align	2
  53              		.global	BusFault_Handler
  54              		.thumb
  55              		.thumb_func
  57              	BusFault_Handler:
  58              		@ Volatile: function does not return.
  59              		@ args = 0, pretend = 0, frame = 0
  60              		@ frame_needed = 0, uses_anonymous_args = 0
  61              		@ link register save eliminated.
  62              	.L7:
  63 000c FEE7     		b	.L7
  65 000e 00BF     		.align	2
  66              		.global	UsageFault_Handler
  67              		.thumb
  68              		.thumb_func
  70              	UsageFault_Handler:
  71              		@ Volatile: function does not return.
  72              		@ args = 0, pretend = 0, frame = 0
  73              		@ frame_needed = 0, uses_anonymous_args = 0
  74              		@ link register save eliminated.
  75              	.L9:
  76 0010 FEE7     		b	.L9
  78 0012 00BF     		.align	2
  79              		.global	SVC_Handler
  80              		.thumb
  81              		.thumb_func
  83              	SVC_Handler:
  84              		@ args = 0, pretend = 0, frame = 0
  85              		@ frame_needed = 0, uses_anonymous_args = 0
  86              		@ link register save eliminated.
  87 0014 7047     		bx	lr
  89 0016 00BF     		.align	2
  90              		.global	DebugMon_Handler
  91              		.thumb
  92              		.thumb_func
  94              	DebugMon_Handler:
  95              		@ args = 0, pretend = 0, frame = 0
  96              		@ frame_needed = 0, uses_anonymous_args = 0
  97              		@ link register save eliminated.
  98 0018 7047     		bx	lr
 100 001a 00BF     		.align	2
 101              		.global	PendSV_Handler
 102              		.thumb
 103              		.thumb_func
 105              	PendSV_Handler:
 106              		@ args = 0, pretend = 0, frame = 0
 107              		@ frame_needed = 0, uses_anonymous_args = 0
 108              		@ link register save eliminated.
 109 001c 7047     		bx	lr
 111 001e 00BF     		.align	2
 112              		.global	SysTick_Handler
 113              		.thumb
 114              		.thumb_func
 116              	SysTick_Handler:
 117              		@ args = 0, pretend = 0, frame = 0
 118              		@ frame_needed = 0, uses_anonymous_args = 0
 119              		@ link register save eliminated.
 120 0020 7047     		bx	lr
 122 0022 00BF     		.align	2
 123              		.global	CAN1_RX0_IRQHandler
 124              		.thumb
 125              		.thumb_func
 127              	CAN1_RX0_IRQHandler:
 128              		@ args = 0, pretend = 0, frame = 24
 129              		@ frame_needed = 0, uses_anonymous_args = 0
 130 0024 2DE9F043 		push	{r4, r5, r6, r7, r8, r9, lr}
 131 0028 4FF08043 		mov	r3, #1073741824
 132 002c 87B0     		sub	sp, sp, #28
 133 002e 4FF4C840 		mov	r0, #25600
 134 0032 294C     		ldr	r4, .L24
 135 0034 5D6A     		ldr	r5, [r3, #36]
 136 0036 C4F20000 		movt	r0, 16384
 137 003a 0021     		movs	r1, #0
 138 003c 01AA     		add	r2, sp, #4
 139 003e FFF7FEFF 		bl	CAN_Receive
 140 0042 2378     		ldrb	r3, [r4, #0]	@ zero_extendqisi2
 141 0044 1BB9     		cbnz	r3, .L15
 142 0046 2548     		ldr	r0, .L24+4
 143 0048 FFF7FEFF 		bl	Q_UART_DMAsendZTString
 144              	.L16:
 145 004c FEE7     		b	.L16
 146              	.L15:
 147 004e 244E     		ldr	r6, .L24+8
 148 0050 3078     		ldrb	r0, [r6, #0]	@ zero_extendqisi2
 149 0052 FFF7FEFF 		bl	LED_Display
 150 0056 3378     		ldrb	r3, [r6, #0]	@ zero_extendqisi2
 151 0058 5A1C     		adds	r2, r3, #1
 152 005a 032B     		cmp	r3, #3
 153 005c 3270     		strb	r2, [r6, #0]
 154 005e 01D9     		bls	.L17
 155 0060 0023     		movs	r3, #0
 156 0062 3370     		strb	r3, [r6, #0]
 157              	.L17:
 158 0064 7278     		ldrb	r2, [r6, #1]	@ zero_extendqisi2
 159 0066 1F49     		ldr	r1, .L24+12
 160 0068 9DF80E70 		ldrb	r7, [sp, #14]	@ zero_extendqisi2
 161 006c DDF80490 		ldr	r9, [sp, #4]
 162 0070 4FEA420C 		lsl	ip, r2, #1
 163 0074 0CEB0203 		add	r3, ip, r2
 164 0078 DB00     		lsls	r3, r3, #3
 165 007a C818     		adds	r0, r1, r3
 166 007c 0135     		adds	r5, r5, #1
 167 007e 41F80390 		str	r9, [r1, r3]
 168 0082 00F10808 		add	r8, r0, #8
 169 0086 4560     		str	r5, [r0, #4]
 170 0088 0773     		strb	r7, [r0, #12]
 171 008a 67B1     		cbz	r7, .L18
 172 008c 0023     		movs	r3, #0
 173              	.L19:
 174 008e 01AD     		add	r5, sp, #4
 175 0090 05EB0308 		add	r8, r5, r3
 176 0094 C518     		adds	r5, r0, r3
 177 0096 98F80B80 		ldrb	r8, [r8, #11]	@ zero_extendqisi2
 178 009a 0133     		adds	r3, r3, #1
 179 009c 85F80D80 		strb	r8, [r5, #13]
 180 00a0 0835     		adds	r5, r5, #8
 181 00a2 BB42     		cmp	r3, r7
 182 00a4 F3DB     		blt	.L19
 183              	.L18:
 184 00a6 4FF08043 		mov	r3, #1073741824
 185 00aa 9444     		add	ip, ip, r2
 186 00ac 586A     		ldr	r0, [r3, #36]
 187 00ae 531C     		adds	r3, r2, #1
 188 00b0 DBB2     		uxtb	r3, r3
 189 00b2 01EBCC01 		add	r1, r1, ip, lsl #3
 190 00b6 0130     		adds	r0, r0, #1
 191 00b8 042B     		cmp	r3, #4
 192 00ba 8860     		str	r0, [r1, #8]
 193 00bc 7370     		strb	r3, [r6, #1]
 194 00be 02D0     		beq	.L23
 195              	.L14:
 196 00c0 07B0     		add	sp, sp, #28
 197 00c2 BDE8F083 		pop	{r4, r5, r6, r7, r8, r9, pc}
 198              	.L23:
 199 00c6 084A     		ldr	r2, .L24+16
 200 00c8 0121     		movs	r1, #1
 201 00ca 1170     		strb	r1, [r2, #0]
 202 00cc 044A     		ldr	r2, .L24+8
 203 00ce 0023     		movs	r3, #0
 204 00d0 5370     		strb	r3, [r2, #1]
 205 00d2 2370     		strb	r3, [r4, #0]
 206 00d4 F4E7     		b	.L14
 207              	.L25:
 208 00d6 00BF     		.align	2
 209              	.L24:
 210 00d8 00000000 		.word	allowReceptions
 211 00dc 00000000 		.word	.LC0
 212 00e0 00000000 		.word	.LANCHOR0
 213 00e4 00000000 		.word	report
 214 00e8 00000000 		.word	reportCreated
 216              		.align	2
 217              		.global	EXTI15_10_IRQHandler
 218              		.thumb
 219              		.thumb_func
 221              	EXTI15_10_IRQHandler:
 222              		@ args = 0, pretend = 0, frame = 0
 223              		@ frame_needed = 0, uses_anonymous_args = 0
 224              		@ link register save eliminated.
 225 00ec 4FF40040 		mov	r0, #32768
 226 00f0 FFF7FEBF 		b	EXTI_ClearITPendingBit
 228              		.align	2
 229              		.global	TIM2_IRQHandler
 230              		.thumb
 231              		.thumb_func
 233              	TIM2_IRQHandler:
 234              		@ args = 0, pretend = 0, frame = 0
 235              		@ frame_needed = 0, uses_anonymous_args = 0
 236 00f4 08B5     		push	{r3, lr}
 237 00f6 4FF08040 		mov	r0, #1073741824
 238 00fa 0121     		movs	r1, #1
 239 00fc FFF7FEFF 		bl	TIM_ClearITPendingBit
 240 0100 40F20003 		movw	r3, #:lower16:overflow
 241 0104 C0F20003 		movt	r3, #:upper16:overflow
 242 0108 0122     		movs	r2, #1
 243 010a 0320     		movs	r0, #3
 244 010c 1A70     		strb	r2, [r3, #0]
 245 010e BDE80840 		pop	{r3, lr}
 246 0112 FFF7FEBF 		b	STM_EVAL_LEDOn
 248              		.global	led
 249              		.global	entry
 250              		.comm	RxMessage,20,4
 251              		.comm	lst,4,4
 252 0116 00BF     		.section	.rodata.str1.4,"aMS",%progbits,1
 253              		.align	2
 254              	.LC0:
 255 0000 556E6578 		.ascii	"Unexpected Reception aborting\015\012\000"
 255      70656374 
 255      65642052 
 255      65636570 
 255      74696F6E 
 256              		.bss
 257              		.set	.LANCHOR0,. + 0
 260              	led:
 261 0000 00       		.space	1
 264              	entry:
 265 0001 00       		.space	1
 266              		.ident	"GCC: (Linaro GCC 4.6-2011.10) 4.6.2 20111004 (prerelease)"