   1              		.syntax unified
   2              		.cpu cortex-m4
   3              		.fpu softvfp
   4              		.eabi_attribute 20, 1
   5              		.eabi_attribute 21, 1
   6              		.eabi_attribute 23, 3
   7              		.eabi_attribute 24, 1
   8              		.eabi_attribute 25, 1
   9              		.eabi_attribute 26, 1
  10              		.eabi_attribute 30, 2
  11              		.eabi_attribute 18, 4
  12              		.thumb
  13              		.file	"stm32f4xx_flash.c"
  14              		.text
  15              		.align	2
  16              		.global	FLASH_SetLatency
  17              		.thumb
  18              		.thumb_func
  20              	FLASH_SetLatency:
  21              		@ args = 0, pretend = 0, frame = 0
  22              		@ frame_needed = 0, uses_anonymous_args = 0
  23              		@ link register save eliminated.
  24 0000 4FF47053 		mov	r3, #15360
  25 0004 C4F20203 		movt	r3, 16386
  26 0008 C0B2     		uxtb	r0, r0
  27 000a 1870     		strb	r0, [r3, #0]
  28 000c 7047     		bx	lr
  30 000e 00BF     		.align	2
  31              		.global	FLASH_PrefetchBufferCmd
  32              		.thumb
  33              		.thumb_func
  35              	FLASH_PrefetchBufferCmd:
  36              		@ args = 0, pretend = 0, frame = 0
  37              		@ frame_needed = 0, uses_anonymous_args = 0
  38              		@ link register save eliminated.
  39 0010 4FF47053 		mov	r3, #15360
  40 0014 C4F20203 		movt	r3, 16386
  41 0018 1A68     		ldr	r2, [r3, #0]
  42 001a 18B9     		cbnz	r0, .L6
  43 001c 22F48072 		bic	r2, r2, #256
  44 0020 1A60     		str	r2, [r3, #0]
  45 0022 7047     		bx	lr
  46              	.L6:
  47 0024 42F48072 		orr	r2, r2, #256
  48 0028 1A60     		str	r2, [r3, #0]
  49 002a 7047     		bx	lr
  51              		.align	2
  52              		.global	FLASH_InstructionCacheCmd
  53              		.thumb
  54              		.thumb_func
  56              	FLASH_InstructionCacheCmd:
  57              		@ args = 0, pretend = 0, frame = 0
  58              		@ frame_needed = 0, uses_anonymous_args = 0
  59              		@ link register save eliminated.
  60 002c 4FF47053 		mov	r3, #15360
  61 0030 C4F20203 		movt	r3, 16386
  62 0034 1A68     		ldr	r2, [r3, #0]
  63 0036 18B9     		cbnz	r0, .L10
  64 0038 22F40072 		bic	r2, r2, #512
  65 003c 1A60     		str	r2, [r3, #0]
  66 003e 7047     		bx	lr
  67              	.L10:
  68 0040 42F40072 		orr	r2, r2, #512
  69 0044 1A60     		str	r2, [r3, #0]
  70 0046 7047     		bx	lr
  72              		.align	2
  73              		.global	FLASH_DataCacheCmd
  74              		.thumb
  75              		.thumb_func
  77              	FLASH_DataCacheCmd:
  78              		@ args = 0, pretend = 0, frame = 0
  79              		@ frame_needed = 0, uses_anonymous_args = 0
  80              		@ link register save eliminated.
  81 0048 4FF47053 		mov	r3, #15360
  82 004c C4F20203 		movt	r3, 16386
  83 0050 1A68     		ldr	r2, [r3, #0]
  84 0052 18B9     		cbnz	r0, .L14
  85 0054 22F48062 		bic	r2, r2, #1024
  86 0058 1A60     		str	r2, [r3, #0]
  87 005a 7047     		bx	lr
  88              	.L14:
  89 005c 42F48062 		orr	r2, r2, #1024
  90 0060 1A60     		str	r2, [r3, #0]
  91 0062 7047     		bx	lr
  93              		.align	2
  94              		.global	FLASH_InstructionCacheReset
  95              		.thumb
  96              		.thumb_func
  98              	FLASH_InstructionCacheReset:
  99              		@ args = 0, pretend = 0, frame = 0
 100              		@ frame_needed = 0, uses_anonymous_args = 0
 101              		@ link register save eliminated.
 102 0064 4FF47053 		mov	r3, #15360
 103 0068 C4F20203 		movt	r3, 16386
 104 006c 1A68     		ldr	r2, [r3, #0]
 105 006e 42F40062 		orr	r2, r2, #2048
 106 0072 1A60     		str	r2, [r3, #0]
 107 0074 7047     		bx	lr
 109 0076 00BF     		.align	2
 110              		.global	FLASH_DataCacheReset
 111              		.thumb
 112              		.thumb_func
 114              	FLASH_DataCacheReset:
 115              		@ args = 0, pretend = 0, frame = 0
 116              		@ frame_needed = 0, uses_anonymous_args = 0
 117              		@ link register save eliminated.
 118 0078 4FF47053 		mov	r3, #15360
 119 007c C4F20203 		movt	r3, 16386
 120 0080 1A68     		ldr	r2, [r3, #0]
 121 0082 42F48052 		orr	r2, r2, #4096
 122 0086 1A60     		str	r2, [r3, #0]
 123 0088 7047     		bx	lr
 125 008a 00BF     		.align	2
 126              		.global	FLASH_Unlock
 127              		.thumb
 128              		.thumb_func
 130              	FLASH_Unlock:
 131              		@ args = 0, pretend = 0, frame = 0
 132              		@ frame_needed = 0, uses_anonymous_args = 0
 133              		@ link register save eliminated.
 134 008c 4FF47053 		mov	r3, #15360
 135 0090 C4F20203 		movt	r3, 16386
 136 0094 1A69     		ldr	r2, [r3, #16]
 137 0096 002A     		cmp	r2, #0
 138 0098 09DA     		bge	.L17
 139 009a 40F22311 		movw	r1, #291
 140 009e 48F6AB12 		movw	r2, #35243
 141 00a2 C4F26751 		movt	r1, 17767
 142 00a6 CCF6EF52 		movt	r2, 52719
 143 00aa 5960     		str	r1, [r3, #4]
 144 00ac 5A60     		str	r2, [r3, #4]
 145              	.L17:
 146 00ae 7047     		bx	lr
 148              		.align	2
 149              		.global	FLASH_Lock
 150              		.thumb
 151              		.thumb_func
 153              	FLASH_Lock:
 154              		@ args = 0, pretend = 0, frame = 0
 155              		@ frame_needed = 0, uses_anonymous_args = 0
 156              		@ link register save eliminated.
 157 00b0 4FF47053 		mov	r3, #15360
 158 00b4 C4F20203 		movt	r3, 16386
 159 00b8 1A69     		ldr	r2, [r3, #16]
 160 00ba 42F00042 		orr	r2, r2, #-2147483648
 161 00be 1A61     		str	r2, [r3, #16]
 162 00c0 7047     		bx	lr
 164 00c2 00BF     		.align	2
 165              		.global	FLASH_OB_Unlock
 166              		.thumb
 167              		.thumb_func
 169              	FLASH_OB_Unlock:
 170              		@ args = 0, pretend = 0, frame = 0
 171              		@ frame_needed = 0, uses_anonymous_args = 0
 172              		@ link register save eliminated.
 173 00c4 4FF47053 		mov	r3, #15360
 174 00c8 C4F20203 		movt	r3, 16386
 175 00cc 5A69     		ldr	r2, [r3, #20]
 176 00ce D207     		lsls	r2, r2, #31
 177 00d0 09D5     		bpl	.L20
 178 00d2 42F63B21 		movw	r1, #10811
 179 00d6 46F67F62 		movw	r2, #28287
 180 00da C0F61901 		movt	r1, 2073
 181 00de C4F65D42 		movt	r2, 19549
 182 00e2 9960     		str	r1, [r3, #8]
 183 00e4 9A60     		str	r2, [r3, #8]
 184              	.L20:
 185 00e6 7047     		bx	lr
 187              		.align	2
 188              		.global	FLASH_OB_Lock
 189              		.thumb
 190              		.thumb_func
 192              	FLASH_OB_Lock:
 193              		@ args = 0, pretend = 0, frame = 0
 194              		@ frame_needed = 0, uses_anonymous_args = 0
 195              		@ link register save eliminated.
 196 00e8 4FF47053 		mov	r3, #15360
 197 00ec C4F20203 		movt	r3, 16386
 198 00f0 5A69     		ldr	r2, [r3, #20]
 199 00f2 42F00102 		orr	r2, r2, #1
 200 00f6 5A61     		str	r2, [r3, #20]
 201 00f8 7047     		bx	lr
 203 00fa 00BF     		.align	2
 204              		.global	FLASH_OB_BORConfig
 205              		.thumb
 206              		.thumb_func
 208              	FLASH_OB_BORConfig:
 209              		@ args = 0, pretend = 0, frame = 0
 210              		@ frame_needed = 0, uses_anonymous_args = 0
 211              		@ link register save eliminated.
 212 00fc 43F61443 		movw	r3, #15380
 213 0100 C4F20203 		movt	r3, 16386
 214 0104 1A78     		ldrb	r2, [r3, #0]	@ zero_extendqisi2
 215 0106 02F0F302 		and	r2, r2, #243
 216 010a 1A70     		strb	r2, [r3, #0]
 217 010c 1A78     		ldrb	r2, [r3, #0]	@ zero_extendqisi2
 218 010e 0243     		orrs	r2, r2, r0
 219 0110 1A70     		strb	r2, [r3, #0]
 220 0112 7047     		bx	lr
 222              		.align	2
 223              		.global	FLASH_OB_GetUser
 224              		.thumb
 225              		.thumb_func
 227              	FLASH_OB_GetUser:
 228              		@ args = 0, pretend = 0, frame = 0
 229              		@ frame_needed = 0, uses_anonymous_args = 0
 230              		@ link register save eliminated.
 231 0114 4FF47053 		mov	r3, #15360
 232 0118 C4F20203 		movt	r3, 16386
 233 011c 5869     		ldr	r0, [r3, #20]
 234 011e C0F34710 		ubfx	r0, r0, #5, #8
 235 0122 7047     		bx	lr
 237              		.align	2
 238              		.global	FLASH_OB_GetWRP
 239              		.thumb
 240              		.thumb_func
 242              	FLASH_OB_GetWRP:
 243              		@ args = 0, pretend = 0, frame = 0
 244              		@ frame_needed = 0, uses_anonymous_args = 0
 245              		@ link register save eliminated.
 246 0124 43F61643 		movw	r3, #15382
 247 0128 C4F20203 		movt	r3, 16386
 248 012c 1888     		ldrh	r0, [r3, #0]
 249 012e 80B2     		uxth	r0, r0
 250 0130 7047     		bx	lr
 252 0132 00BF     		.align	2
 253              		.global	FLASH_OB_GetRDP
 254              		.thumb
 255              		.thumb_func
 257              	FLASH_OB_GetRDP:
 258              		@ args = 0, pretend = 0, frame = 0
 259              		@ frame_needed = 0, uses_anonymous_args = 0
 260              		@ link register save eliminated.
 261 0134 43F61543 		movw	r3, #15381
 262 0138 C4F20203 		movt	r3, 16386
 263 013c 1878     		ldrb	r0, [r3, #0]	@ zero_extendqisi2
 264 013e AA38     		subs	r0, r0, #170
 265 0140 18BF     		it	ne
 266 0142 0120     		movne	r0, #1
 267 0144 7047     		bx	lr
 269 0146 00BF     		.align	2
 270              		.global	FLASH_OB_GetBOR
 271              		.thumb
 272              		.thumb_func
 274              	FLASH_OB_GetBOR:
 275              		@ args = 0, pretend = 0, frame = 0
 276              		@ frame_needed = 0, uses_anonymous_args = 0
 277              		@ link register save eliminated.
 278 0148 43F61443 		movw	r3, #15380
 279 014c C4F20203 		movt	r3, 16386
 280 0150 1878     		ldrb	r0, [r3, #0]	@ zero_extendqisi2
 281 0152 00F00C00 		and	r0, r0, #12
 282 0156 7047     		bx	lr
 284              		.align	2
 285              		.global	FLASH_ITConfig
 286              		.thumb
 287              		.thumb_func
 289              	FLASH_ITConfig:
 290              		@ args = 0, pretend = 0, frame = 0
 291              		@ frame_needed = 0, uses_anonymous_args = 0
 292              		@ link register save eliminated.
 293 0158 4FF47053 		mov	r3, #15360
 294 015c C4F20203 		movt	r3, 16386
 295 0160 1A69     		ldr	r2, [r3, #16]
 296 0162 19B9     		cbnz	r1, .L31
 297 0164 22EA0000 		bic	r0, r2, r0
 298 0168 1861     		str	r0, [r3, #16]
 299 016a 7047     		bx	lr
 300              	.L31:
 301 016c 1043     		orrs	r0, r0, r2
 302 016e 1861     		str	r0, [r3, #16]
 303 0170 7047     		bx	lr
 305 0172 00BF     		.align	2
 306              		.global	FLASH_GetFlagStatus
 307              		.thumb
 308              		.thumb_func
 310              	FLASH_GetFlagStatus:
 311              		@ args = 0, pretend = 0, frame = 0
 312              		@ frame_needed = 0, uses_anonymous_args = 0
 313              		@ link register save eliminated.
 314 0174 4FF47053 		mov	r3, #15360
 315 0178 C4F20203 		movt	r3, 16386
 316 017c DB68     		ldr	r3, [r3, #12]
 317 017e 1842     		tst	r0, r3
 318 0180 0CBF     		ite	eq
 319 0182 0020     		moveq	r0, #0
 320 0184 0120     		movne	r0, #1
 321 0186 7047     		bx	lr
 323              		.align	2
 324              		.global	FLASH_ClearFlag
 325              		.thumb
 326              		.thumb_func
 328              	FLASH_ClearFlag:
 329              		@ args = 0, pretend = 0, frame = 0
 330              		@ frame_needed = 0, uses_anonymous_args = 0
 331              		@ link register save eliminated.
 332 0188 4FF47053 		mov	r3, #15360
 333 018c C4F20203 		movt	r3, 16386
 334 0190 D860     		str	r0, [r3, #12]
 335 0192 7047     		bx	lr
 337              		.align	2
 338              		.global	FLASH_GetStatus
 339              		.thumb
 340              		.thumb_func
 342              	FLASH_GetStatus:
 343              		@ args = 0, pretend = 0, frame = 0
 344              		@ frame_needed = 0, uses_anonymous_args = 0
 345              		@ link register save eliminated.
 346 0194 4FF47053 		mov	r3, #15360
 347 0198 C4F20203 		movt	r3, 16386
 348 019c DA68     		ldr	r2, [r3, #12]
 349 019e D003     		lsls	r0, r2, #15
 350 01a0 0AD4     		bmi	.L37
 351 01a2 DA68     		ldr	r2, [r3, #12]
 352 01a4 D106     		lsls	r1, r2, #27
 353 01a6 01D5     		bpl	.L41
 354 01a8 0520     		movs	r0, #5
 355 01aa 7047     		bx	lr
 356              	.L41:
 357 01ac DA68     		ldr	r2, [r3, #12]
 358 01ae 12F0EF0F 		tst	r2, #239
 359 01b2 03D0     		beq	.L42
 360 01b4 0620     		movs	r0, #6
 361 01b6 7047     		bx	lr
 362              	.L37:
 363 01b8 0120     		movs	r0, #1
 364 01ba 7047     		bx	lr
 365              	.L42:
 366 01bc DB68     		ldr	r3, [r3, #12]
 367 01be 13F0020F 		tst	r3, #2
 368 01c2 0CBF     		ite	eq
 369 01c4 0820     		moveq	r0, #8
 370 01c6 0720     		movne	r0, #7
 371 01c8 7047     		bx	lr
 373 01ca 00BF     		.align	2
 374              		.global	FLASH_WaitForLastOperation
 375              		.thumb
 376              		.thumb_func
 378              	FLASH_WaitForLastOperation:
 379              		@ args = 0, pretend = 0, frame = 8
 380              		@ frame_needed = 0, uses_anonymous_args = 0
 381              		@ link register save eliminated.
 382 01cc 82B0     		sub	sp, sp, #8
 383 01ce 4FF47053 		mov	r3, #15360
 384 01d2 0822     		movs	r2, #8
 385 01d4 C4F20203 		movt	r3, 16386
 386 01d8 8DF80720 		strb	r2, [sp, #7]
 387 01dc DA68     		ldr	r2, [r3, #12]
 388 01de D203     		lsls	r2, r2, #15
 389 01e0 39D4     		bmi	.L50
 390 01e2 DA68     		ldr	r2, [r3, #12]
 391 01e4 D006     		lsls	r0, r2, #27
 392 01e6 23D5     		bpl	.L60
 393 01e8 0523     		movs	r3, #5
 394              	.L44:
 395 01ea 8DF80730 		strb	r3, [sp, #7]
 396 01ee 9DF80730 		ldrb	r3, [sp, #7]	@ zero_extendqisi2
 397 01f2 012B     		cmp	r3, #1
 398 01f4 18D1     		bne	.L46
 399 01f6 4FF47053 		mov	r3, #15360
 400 01fa C4F20203 		movt	r3, 16386
 401 01fe 09E0     		b	.L58
 402              	.L62:
 403 0200 DA68     		ldr	r2, [r3, #12]
 404 0202 D206     		lsls	r2, r2, #27
 405 0204 1AD5     		bpl	.L61
 406 0206 0522     		movs	r2, #5
 407              	.L47:
 408 0208 8DF80720 		strb	r2, [sp, #7]
 409 020c 9DF80720 		ldrb	r2, [sp, #7]	@ zero_extendqisi2
 410 0210 012A     		cmp	r2, #1
 411 0212 09D1     		bne	.L46
 412              	.L58:
 413 0214 DA68     		ldr	r2, [r3, #12]
 414 0216 D103     		lsls	r1, r2, #15
 415 0218 F2D5     		bpl	.L62
 416 021a 0122     		movs	r2, #1
 417 021c 8DF80720 		strb	r2, [sp, #7]
 418 0220 9DF80720 		ldrb	r2, [sp, #7]	@ zero_extendqisi2
 419 0224 012A     		cmp	r2, #1
 420 0226 F5D0     		beq	.L58
 421              	.L46:
 422 0228 9DF80700 		ldrb	r0, [sp, #7]	@ zero_extendqisi2
 423 022c 02B0     		add	sp, sp, #8
 424 022e 7047     		bx	lr
 425              	.L60:
 426 0230 DA68     		ldr	r2, [r3, #12]
 427 0232 12F0EF0F 		tst	r2, #239
 428 0236 10D0     		beq	.L63
 429 0238 0623     		movs	r3, #6
 430 023a D6E7     		b	.L44
 431              	.L61:
 432 023c DA68     		ldr	r2, [r3, #12]
 433 023e 12F0EF0F 		tst	r2, #239
 434 0242 01D0     		beq	.L64
 435 0244 0622     		movs	r2, #6
 436 0246 DFE7     		b	.L47
 437              	.L64:
 438 0248 DA68     		ldr	r2, [r3, #12]
 439 024a 12F0020F 		tst	r2, #2
 440 024e 0CBF     		ite	eq
 441 0250 0822     		moveq	r2, #8
 442 0252 0722     		movne	r2, #7
 443 0254 D8E7     		b	.L47
 444              	.L50:
 445 0256 0123     		movs	r3, #1
 446 0258 C7E7     		b	.L44
 447              	.L63:
 448 025a DB68     		ldr	r3, [r3, #12]
 449 025c 13F0020F 		tst	r3, #2
 450 0260 0CBF     		ite	eq
 451 0262 0823     		moveq	r3, #8
 452 0264 0723     		movne	r3, #7
 453 0266 C0E7     		b	.L44
 455              		.align	2
 456              		.global	FLASH_OB_Launch
 457              		.thumb
 458              		.thumb_func
 460              	FLASH_OB_Launch:
 461              		@ args = 0, pretend = 0, frame = 0
 462              		@ frame_needed = 0, uses_anonymous_args = 0
 463              		@ link register save eliminated.
 464 0268 43F61443 		movw	r3, #15380
 465 026c C4F20203 		movt	r3, 16386
 466 0270 1A78     		ldrb	r2, [r3, #0]	@ zero_extendqisi2
 467 0272 42F00202 		orr	r2, r2, #2
 468 0276 1A70     		strb	r2, [r3, #0]
 469 0278 FEE7     		b	FLASH_WaitForLastOperation
 471 027a 00BF     		.align	2
 472              		.global	FLASH_OB_UserConfig
 473              		.thumb
 474              		.thumb_func
 476              	FLASH_OB_UserConfig:
 477              		@ args = 0, pretend = 0, frame = 0
 478              		@ frame_needed = 0, uses_anonymous_args = 0
 479 027c 70B5     		push	{r4, r5, r6, lr}
 480 027e 0446     		mov	r4, r0
 481 0280 0D46     		mov	r5, r1
 482 0282 1646     		mov	r6, r2
 483 0284 FFF7FEFF 		bl	FLASH_WaitForLastOperation
 484 0288 0828     		cmp	r0, #8
 485 028a 0AD1     		bne	.L66
 486 028c 43F61443 		movw	r3, #15380
 487 0290 C4F20203 		movt	r3, 16386
 488 0294 1A78     		ldrb	r2, [r3, #0]	@ zero_extendqisi2
 489 0296 02F00F02 		and	r2, r2, #15
 490 029a 1443     		orrs	r4, r4, r2
 491 029c 2543     		orrs	r5, r5, r4
 492 029e 2E43     		orrs	r6, r6, r5
 493 02a0 1E70     		strb	r6, [r3, #0]
 494              	.L66:
 495 02a2 70BD     		pop	{r4, r5, r6, pc}
 497              		.align	2
 498              		.global	FLASH_OB_RDPConfig
 499              		.thumb
 500              		.thumb_func
 502              	FLASH_OB_RDPConfig:
 503              		@ args = 0, pretend = 0, frame = 0
 504              		@ frame_needed = 0, uses_anonymous_args = 0
 505 02a4 10B5     		push	{r4, lr}
 506 02a6 0446     		mov	r4, r0
 507 02a8 FFF7FEFF 		bl	FLASH_WaitForLastOperation
 508 02ac 0828     		cmp	r0, #8
 509 02ae 02BF     		ittt	eq
 510 02b0 43F61543 		movweq	r3, #15381
 511 02b4 C4F20203 		movteq	r3, 16386
 512 02b8 1C70     		strbeq	r4, [r3, #0]
 513 02ba 10BD     		pop	{r4, pc}
 515              		.align	2
 516              		.global	FLASH_OB_WRPConfig
 517              		.thumb
 518              		.thumb_func
 520              	FLASH_OB_WRPConfig:
 521              		@ args = 0, pretend = 0, frame = 0
 522              		@ frame_needed = 0, uses_anonymous_args = 0
 523 02bc 38B5     		push	{r3, r4, r5, lr}
 524 02be 0446     		mov	r4, r0
 525 02c0 0D46     		mov	r5, r1
 526 02c2 FFF7FEFF 		bl	FLASH_WaitForLastOperation
 527 02c6 0828     		cmp	r0, #8
 528 02c8 00D0     		beq	.L73
 529 02ca 38BD     		pop	{r3, r4, r5, pc}
 530              	.L73:
 531 02cc 43F61643 		movw	r3, #15382
 532 02d0 C4F20203 		movt	r3, 16386
 533 02d4 1A88     		ldrh	r2, [r3, #0]
 534 02d6 1DB9     		cbnz	r5, .L74
 535 02d8 1443     		orrs	r4, r4, r2
 536 02da A4B2     		uxth	r4, r4
 537 02dc 1C80     		strh	r4, [r3, #0]	@ movhi
 538 02de 38BD     		pop	{r3, r4, r5, pc}
 539              	.L74:
 540 02e0 92B2     		uxth	r2, r2
 541 02e2 22EA0404 		bic	r4, r2, r4
 542 02e6 1C80     		strh	r4, [r3, #0]	@ movhi
 543 02e8 38BD     		pop	{r3, r4, r5, pc}
 545 02ea 00BF     		.align	2
 546              		.global	FLASH_ProgramByte
 547              		.thumb
 548              		.thumb_func
 550              	FLASH_ProgramByte:
 551              		@ args = 0, pretend = 0, frame = 0
 552              		@ frame_needed = 0, uses_anonymous_args = 0
 553 02ec 70B5     		push	{r4, r5, r6, lr}
 554 02ee 0446     		mov	r4, r0
 555 02f0 0E46     		mov	r6, r1
 556 02f2 FFF7FEFF 		bl	FLASH_WaitForLastOperation
 557 02f6 0828     		cmp	r0, #8
 558 02f8 00D0     		beq	.L77
 559 02fa 70BD     		pop	{r4, r5, r6, pc}
 560              	.L77:
 561 02fc 4FF47055 		mov	r5, #15360
 562 0300 C4F20205 		movt	r5, 16386
 563 0304 2B69     		ldr	r3, [r5, #16]
 564 0306 23F44073 		bic	r3, r3, #768
 565 030a 2B61     		str	r3, [r5, #16]
 566 030c 2B69     		ldr	r3, [r5, #16]
 567 030e 2B61     		str	r3, [r5, #16]
 568 0310 2B69     		ldr	r3, [r5, #16]
 569 0312 43F00103 		orr	r3, r3, #1
 570 0316 2B61     		str	r3, [r5, #16]
 571 0318 2670     		strb	r6, [r4, #0]
 572 031a FFF7FEFF 		bl	FLASH_WaitForLastOperation
 573 031e 2B69     		ldr	r3, [r5, #16]
 574 0320 23F00103 		bic	r3, r3, #1
 575 0324 2B61     		str	r3, [r5, #16]
 576 0326 70BD     		pop	{r4, r5, r6, pc}
 578              		.align	2
 579              		.global	FLASH_ProgramHalfWord
 580              		.thumb
 581              		.thumb_func
 583              	FLASH_ProgramHalfWord:
 584              		@ args = 0, pretend = 0, frame = 0
 585              		@ frame_needed = 0, uses_anonymous_args = 0
 586 0328 70B5     		push	{r4, r5, r6, lr}
 587 032a 0446     		mov	r4, r0
 588 032c 0E46     		mov	r6, r1
 589 032e FFF7FEFF 		bl	FLASH_WaitForLastOperation
 590 0332 0828     		cmp	r0, #8
 591 0334 00D0     		beq	.L80
 592 0336 70BD     		pop	{r4, r5, r6, pc}
 593              	.L80:
 594 0338 4FF47055 		mov	r5, #15360
 595 033c C4F20205 		movt	r5, 16386
 596 0340 2B69     		ldr	r3, [r5, #16]
 597 0342 23F44073 		bic	r3, r3, #768
 598 0346 2B61     		str	r3, [r5, #16]
 599 0348 2B69     		ldr	r3, [r5, #16]
 600 034a 43F48073 		orr	r3, r3, #256
 601 034e 2B61     		str	r3, [r5, #16]
 602 0350 2B69     		ldr	r3, [r5, #16]
 603 0352 43F00103 		orr	r3, r3, #1
 604 0356 2B61     		str	r3, [r5, #16]
 605 0358 2680     		strh	r6, [r4, #0]	@ movhi
 606 035a FFF7FEFF 		bl	FLASH_WaitForLastOperation
 607 035e 2B69     		ldr	r3, [r5, #16]
 608 0360 23F00103 		bic	r3, r3, #1
 609 0364 2B61     		str	r3, [r5, #16]
 610 0366 70BD     		pop	{r4, r5, r6, pc}
 612              		.align	2
 613              		.global	FLASH_ProgramWord
 614              		.thumb
 615              		.thumb_func
 617              	FLASH_ProgramWord:
 618              		@ args = 0, pretend = 0, frame = 0
 619              		@ frame_needed = 0, uses_anonymous_args = 0
 620 0368 70B5     		push	{r4, r5, r6, lr}
 621 036a 0446     		mov	r4, r0
 622 036c 0E46     		mov	r6, r1
 623 036e FFF7FEFF 		bl	FLASH_WaitForLastOperation
 624 0372 0828     		cmp	r0, #8
 625 0374 00D0     		beq	.L83
 626 0376 70BD     		pop	{r4, r5, r6, pc}
 627              	.L83:
 628 0378 4FF47055 		mov	r5, #15360
 629 037c C4F20205 		movt	r5, 16386
 630 0380 2B69     		ldr	r3, [r5, #16]
 631 0382 23F44073 		bic	r3, r3, #768
 632 0386 2B61     		str	r3, [r5, #16]
 633 0388 2B69     		ldr	r3, [r5, #16]
 634 038a 43F40073 		orr	r3, r3, #512
 635 038e 2B61     		str	r3, [r5, #16]
 636 0390 2B69     		ldr	r3, [r5, #16]
 637 0392 43F00103 		orr	r3, r3, #1
 638 0396 2B61     		str	r3, [r5, #16]
 639 0398 2660     		str	r6, [r4, #0]
 640 039a FFF7FEFF 		bl	FLASH_WaitForLastOperation
 641 039e 2B69     		ldr	r3, [r5, #16]
 642 03a0 23F00103 		bic	r3, r3, #1
 643 03a4 2B61     		str	r3, [r5, #16]
 644 03a6 70BD     		pop	{r4, r5, r6, pc}
 646              		.align	2
 647              		.global	FLASH_ProgramDoubleWord
 648              		.thumb
 649              		.thumb_func
 651              	FLASH_ProgramDoubleWord:
 652              		@ args = 0, pretend = 0, frame = 0
 653              		@ frame_needed = 0, uses_anonymous_args = 0
 654 03a8 F8B5     		push	{r3, r4, r5, r6, r7, lr}
 655 03aa 0646     		mov	r6, r0
 656 03ac 1446     		mov	r4, r2
 657 03ae 1D46     		mov	r5, r3
 658 03b0 FFF7FEFF 		bl	FLASH_WaitForLastOperation
 659 03b4 0828     		cmp	r0, #8
 660 03b6 00D0     		beq	.L86
 661 03b8 F8BD     		pop	{r3, r4, r5, r6, r7, pc}
 662              	.L86:
 663 03ba 4FF47057 		mov	r7, #15360
 664 03be C4F20207 		movt	r7, 16386
 665 03c2 3B69     		ldr	r3, [r7, #16]
 666 03c4 23F44073 		bic	r3, r3, #768
 667 03c8 3B61     		str	r3, [r7, #16]
 668 03ca 3B69     		ldr	r3, [r7, #16]
 669 03cc 43F44073 		orr	r3, r3, #768
 670 03d0 3B61     		str	r3, [r7, #16]
 671 03d2 3B69     		ldr	r3, [r7, #16]
 672 03d4 43F00103 		orr	r3, r3, #1
 673 03d8 3B61     		str	r3, [r7, #16]
 674 03da C6E90045 		strd	r4, [r6]
 675 03de FFF7FEFF 		bl	FLASH_WaitForLastOperation
 676 03e2 3B69     		ldr	r3, [r7, #16]
 677 03e4 23F00103 		bic	r3, r3, #1
 678 03e8 3B61     		str	r3, [r7, #16]
 679 03ea F8BD     		pop	{r3, r4, r5, r6, r7, pc}
 681              		.align	2
 682              		.global	FLASH_EraseAllSectors
 683              		.thumb
 684              		.thumb_func
 686              	FLASH_EraseAllSectors:
 687              		@ args = 0, pretend = 0, frame = 0
 688              		@ frame_needed = 0, uses_anonymous_args = 0
 689 03ec 38B5     		push	{r3, r4, r5, lr}
 690 03ee 0446     		mov	r4, r0
 691 03f0 FFF7FEFF 		bl	FLASH_WaitForLastOperation
 692 03f4 54B1     		cbz	r4, .L88
 693 03f6 012C     		cmp	r4, #1
 694 03f8 08BF     		it	eq
 695 03fa 4FF48074 		moveq	r4, #256
 696 03fe 05D0     		beq	.L88
 697 0400 022C     		cmp	r4, #2
 698 0402 14BF     		ite	ne
 699 0404 4FF44074 		movne	r4, #768
 700 0408 4FF40074 		moveq	r4, #512
 701              	.L88:
 702 040c 0828     		cmp	r0, #8
 703 040e 00D0     		beq	.L93
 704 0410 38BD     		pop	{r3, r4, r5, pc}
 705              	.L93:
 706 0412 4FF47055 		mov	r5, #15360
 707 0416 C4F20205 		movt	r5, 16386
 708 041a 2B69     		ldr	r3, [r5, #16]
 709 041c 23F44073 		bic	r3, r3, #768
 710 0420 2B61     		str	r3, [r5, #16]
 711 0422 2B69     		ldr	r3, [r5, #16]
 712 0424 1C43     		orrs	r4, r4, r3
 713 0426 2C61     		str	r4, [r5, #16]
 714 0428 2B69     		ldr	r3, [r5, #16]
 715 042a 43F00403 		orr	r3, r3, #4
 716 042e 2B61     		str	r3, [r5, #16]
 717 0430 2B69     		ldr	r3, [r5, #16]
 718 0432 43F48033 		orr	r3, r3, #65536
 719 0436 2B61     		str	r3, [r5, #16]
 720 0438 FFF7FEFF 		bl	FLASH_WaitForLastOperation
 721 043c 2B69     		ldr	r3, [r5, #16]
 722 043e 23F00403 		bic	r3, r3, #4
 723 0442 2B61     		str	r3, [r5, #16]
 724 0444 38BD     		pop	{r3, r4, r5, pc}
 726 0446 00BF     		.align	2
 727              		.global	FLASH_EraseSector
 728              		.thumb
 729              		.thumb_func
 731              	FLASH_EraseSector:
 732              		@ args = 0, pretend = 0, frame = 0
 733              		@ frame_needed = 0, uses_anonymous_args = 0
 734 0448 70B5     		push	{r4, r5, r6, lr}
 735 044a 0546     		mov	r5, r0
 736 044c 0E46     		mov	r6, r1
 737 044e 49B1     		cbz	r1, .L95
 738 0450 0229     		cmp	r1, #2
 739 0452 14BF     		ite	ne
 740 0454 4FF44076 		movne	r6, #768
 741 0458 4FF40076 		moveq	r6, #512
 742 045c 0129     		cmp	r1, #1
 743 045e 08BF     		it	eq
 744 0460 4FF48076 		moveq	r6, #256
 745              	.L95:
 746 0464 FFF7FEFF 		bl	FLASH_WaitForLastOperation
 747 0468 0828     		cmp	r0, #8
 748 046a 00D0     		beq	.L100
 749 046c 70BD     		pop	{r4, r5, r6, pc}
 750              	.L100:
 751 046e 4FF47054 		mov	r4, #15360
 752 0472 C4F20204 		movt	r4, 16386
 753 0476 2369     		ldr	r3, [r4, #16]
 754 0478 23F44073 		bic	r3, r3, #768
 755 047c 2361     		str	r3, [r4, #16]
 756 047e 2369     		ldr	r3, [r4, #16]
 757 0480 1E43     		orrs	r6, r6, r3
 758 0482 2661     		str	r6, [r4, #16]
 759 0484 2369     		ldr	r3, [r4, #16]
 760 0486 23F0F803 		bic	r3, r3, #248
 761 048a 2361     		str	r3, [r4, #16]
 762 048c 2369     		ldr	r3, [r4, #16]
 763 048e 43F00203 		orr	r3, r3, #2
 764 0492 1D43     		orrs	r5, r5, r3
 765 0494 2561     		str	r5, [r4, #16]
 766 0496 2369     		ldr	r3, [r4, #16]
 767 0498 43F48033 		orr	r3, r3, #65536
 768 049c 2361     		str	r3, [r4, #16]
 769 049e FFF7FEFF 		bl	FLASH_WaitForLastOperation
 770 04a2 2369     		ldr	r3, [r4, #16]
 771 04a4 23F00203 		bic	r3, r3, #2
 772 04a8 2361     		str	r3, [r4, #16]
 773 04aa 2369     		ldr	r3, [r4, #16]
 774 04ac 23F0F803 		bic	r3, r3, #248
 775 04b0 2361     		str	r3, [r4, #16]
 776 04b2 70BD     		pop	{r4, r5, r6, pc}
 778              		.ident	"GCC: (Linaro GCC 4.6-2011.10) 4.6.2 20111004 (prerelease)"