   1              		.syntax unified
   2              		.cpu cortex-m4
   3              		.fpu softvfp
   4              		.eabi_attribute 20, 1
   5              		.eabi_attribute 21, 1
   6              		.eabi_attribute 23, 3
   7              		.eabi_attribute 24, 1
   8              		.eabi_attribute 25, 1
   9              		.eabi_attribute 26, 1
  10              		.eabi_attribute 30, 2
  11              		.eabi_attribute 18, 4
  12              		.thumb
  13              		.file	"stm32f4xx_hash.c"
  14              		.text
  15              		.align	2
  16              		.global	HASH_DeInit
  17              		.thumb
  18              		.thumb_func
  20              	HASH_DeInit:
  21              		@ args = 0, pretend = 0, frame = 0
  22              		@ frame_needed = 0, uses_anonymous_args = 0
  23 0000 08B5     		push	{r3, lr}
  24 0002 2020     		movs	r0, #32
  25 0004 0121     		movs	r1, #1
  26 0006 FFF7FEFF 		bl	RCC_AHB2PeriphResetCmd
  27 000a 2020     		movs	r0, #32
  28 000c 0021     		movs	r1, #0
  29 000e BDE80840 		pop	{r3, lr}
  30 0012 FFF7FEBF 		b	RCC_AHB2PeriphResetCmd
  32 0016 00BF     		.align	2
  33              		.global	HASH_Init
  34              		.thumb
  35              		.thumb_func
  37              	HASH_Init:
  38              		@ args = 0, pretend = 0, frame = 0
  39              		@ frame_needed = 0, uses_anonymous_args = 0
  40              		@ link register save eliminated.
  41 0018 4FF48063 		mov	r3, #1024
  42 001c C5F20603 		movt	r3, 20486
  43 0020 30B4     		push	{r4, r5}
  44 0022 1A68     		ldr	r2, [r3, #0]
  45 0024 22F0F002 		bic	r2, r2, #240
  46 0028 1A60     		str	r2, [r3, #0]
  47 002a 90E81600 		ldmia	r0, {r1, r2, r4}
  48 002e 1D68     		ldr	r5, [r3, #0]
  49 0030 2943     		orrs	r1, r1, r5
  50 0032 2143     		orrs	r1, r1, r4
  51 0034 1143     		orrs	r1, r1, r2
  52 0036 402A     		cmp	r2, #64
  53 0038 1960     		str	r1, [r3, #0]
  54 003a 07D1     		bne	.L3
  55 003c 1A68     		ldr	r2, [r3, #0]
  56 003e 22F48032 		bic	r2, r2, #65536
  57 0042 1A60     		str	r2, [r3, #0]
  58 0044 1968     		ldr	r1, [r3, #0]
  59 0046 C268     		ldr	r2, [r0, #12]
  60 0048 0A43     		orrs	r2, r2, r1
  61 004a 1A60     		str	r2, [r3, #0]
  62              	.L3:
  63 004c 4FF48063 		mov	r3, #1024
  64 0050 C5F20603 		movt	r3, 20486
  65 0054 1A68     		ldr	r2, [r3, #0]
  66 0056 42F00402 		orr	r2, r2, #4
  67 005a 1A60     		str	r2, [r3, #0]
  68 005c 30BC     		pop	{r4, r5}
  69 005e 7047     		bx	lr
  71              		.align	2
  72              		.global	HASH_StructInit
  73              		.thumb
  74              		.thumb_func
  76              	HASH_StructInit:
  77              		@ args = 0, pretend = 0, frame = 0
  78              		@ frame_needed = 0, uses_anonymous_args = 0
  79              		@ link register save eliminated.
  80 0060 0023     		movs	r3, #0
  81 0062 0360     		str	r3, [r0, #0]
  82 0064 4360     		str	r3, [r0, #4]
  83 0066 8360     		str	r3, [r0, #8]
  84 0068 C360     		str	r3, [r0, #12]
  85 006a 7047     		bx	lr
  87              		.align	2
  88              		.global	HASH_Reset
  89              		.thumb
  90              		.thumb_func
  92              	HASH_Reset:
  93              		@ args = 0, pretend = 0, frame = 0
  94              		@ frame_needed = 0, uses_anonymous_args = 0
  95              		@ link register save eliminated.
  96 006c 4FF48063 		mov	r3, #1024
  97 0070 C5F20603 		movt	r3, 20486
  98 0074 1A68     		ldr	r2, [r3, #0]
  99 0076 42F00402 		orr	r2, r2, #4
 100 007a 1A60     		str	r2, [r3, #0]
 101 007c 7047     		bx	lr
 103 007e 00BF     		.align	2
 104              		.global	HASH_SetLastWordValidBitsNbr
 105              		.thumb
 106              		.thumb_func
 108              	HASH_SetLastWordValidBitsNbr:
 109              		@ args = 0, pretend = 0, frame = 0
 110              		@ frame_needed = 0, uses_anonymous_args = 0
 111              		@ link register save eliminated.
 112 0080 4FF48063 		mov	r3, #1024
 113 0084 C5F20603 		movt	r3, 20486
 114 0088 9A68     		ldr	r2, [r3, #8]
 115 008a 22F01F02 		bic	r2, r2, #31
 116 008e 9A60     		str	r2, [r3, #8]
 117 0090 9A68     		ldr	r2, [r3, #8]
 118 0092 0243     		orrs	r2, r2, r0
 119 0094 9A60     		str	r2, [r3, #8]
 120 0096 7047     		bx	lr
 122              		.align	2
 123              		.global	HASH_DataIn
 124              		.thumb
 125              		.thumb_func
 127              	HASH_DataIn:
 128              		@ args = 0, pretend = 0, frame = 0
 129              		@ frame_needed = 0, uses_anonymous_args = 0
 130              		@ link register save eliminated.
 131 0098 4FF48063 		mov	r3, #1024
 132 009c C5F20603 		movt	r3, 20486
 133 00a0 5860     		str	r0, [r3, #4]
 134 00a2 7047     		bx	lr
 136              		.align	2
 137              		.global	HASH_GetInFIFOWordsNbr
 138              		.thumb
 139              		.thumb_func
 141              	HASH_GetInFIFOWordsNbr:
 142              		@ args = 0, pretend = 0, frame = 0
 143              		@ frame_needed = 0, uses_anonymous_args = 0
 144              		@ link register save eliminated.
 145 00a4 4FF48063 		mov	r3, #1024
 146 00a8 C5F20603 		movt	r3, 20486
 147 00ac 1868     		ldr	r0, [r3, #0]
 148 00ae C0F30320 		ubfx	r0, r0, #8, #4
 149 00b2 7047     		bx	lr
 151              		.align	2
 152              		.global	HASH_GetDigest
 153              		.thumb
 154              		.thumb_func
 156              	HASH_GetDigest:
 157              		@ args = 0, pretend = 0, frame = 0
 158              		@ frame_needed = 0, uses_anonymous_args = 0
 159              		@ link register save eliminated.
 160 00b4 4FF48063 		mov	r3, #1024
 161 00b8 C5F20603 		movt	r3, 20486
 162 00bc DA68     		ldr	r2, [r3, #12]
 163 00be 0260     		str	r2, [r0, #0]
 164 00c0 1A69     		ldr	r2, [r3, #16]
 165 00c2 4260     		str	r2, [r0, #4]
 166 00c4 5A69     		ldr	r2, [r3, #20]
 167 00c6 8260     		str	r2, [r0, #8]
 168 00c8 9A69     		ldr	r2, [r3, #24]
 169 00ca C260     		str	r2, [r0, #12]
 170 00cc DB69     		ldr	r3, [r3, #28]
 171 00ce 0361     		str	r3, [r0, #16]
 172 00d0 7047     		bx	lr
 174 00d2 00BF     		.align	2
 175              		.global	HASH_StartDigest
 176              		.thumb
 177              		.thumb_func
 179              	HASH_StartDigest:
 180              		@ args = 0, pretend = 0, frame = 0
 181              		@ frame_needed = 0, uses_anonymous_args = 0
 182              		@ link register save eliminated.
 183 00d4 4FF48063 		mov	r3, #1024
 184 00d8 C5F20603 		movt	r3, 20486
 185 00dc 9A68     		ldr	r2, [r3, #8]
 186 00de 42F48072 		orr	r2, r2, #256
 187 00e2 9A60     		str	r2, [r3, #8]
 188 00e4 7047     		bx	lr
 190 00e6 00BF     		.align	2
 191              		.global	HASH_SaveContext
 192              		.thumb
 193              		.thumb_func
 195              	HASH_SaveContext:
 196              		@ args = 0, pretend = 0, frame = 0
 197              		@ frame_needed = 0, uses_anonymous_args = 0
 198              		@ link register save eliminated.
 199 00e8 4FF48063 		mov	r3, #1024
 200 00ec C5F20603 		movt	r3, 20486
 201 00f0 1A6A     		ldr	r2, [r3, #32]
 202 00f2 0260     		str	r2, [r0, #0]
 203 00f4 9A68     		ldr	r2, [r3, #8]
 204 00f6 4260     		str	r2, [r0, #4]
 205 00f8 1968     		ldr	r1, [r3, #0]
 206 00fa 40F8081F 		str	r1, [r0, #8]!
 207 00fe 0022     		movs	r2, #0
 208              	.L13:
 209 0100 02F13E01 		add	r1, r2, #62
 210 0104 0132     		adds	r2, r2, #1
 211 0106 53F82110 		ldr	r1, [r3, r1, lsl #2]
 212 010a 332A     		cmp	r2, #51
 213 010c 40F8041F 		str	r1, [r0, #4]!
 214 0110 F6D1     		bne	.L13
 215 0112 7047     		bx	lr
 217              		.align	2
 218              		.global	HASH_RestoreContext
 219              		.thumb
 220              		.thumb_func
 222              	HASH_RestoreContext:
 223              		@ args = 0, pretend = 0, frame = 0
 224              		@ frame_needed = 0, uses_anonymous_args = 0
 225              		@ link register save eliminated.
 226 0114 10B4     		push	{r4}
 227 0116 4FF48064 		mov	r4, #1024
 228 011a 0368     		ldr	r3, [r0, #0]
 229 011c C5F20604 		movt	r4, 20486
 230 0120 2362     		str	r3, [r4, #32]
 231 0122 4368     		ldr	r3, [r0, #4]
 232 0124 A360     		str	r3, [r4, #8]
 233 0126 50F8083F 		ldr	r3, [r0, #8]!
 234 012a 2360     		str	r3, [r4, #0]
 235 012c 2368     		ldr	r3, [r4, #0]
 236 012e 43F00403 		orr	r3, r3, #4
 237 0132 2360     		str	r3, [r4, #0]
 238 0134 0023     		movs	r3, #0
 239              	.L16:
 240 0136 03F13E02 		add	r2, r3, #62
 241 013a 50F8041F 		ldr	r1, [r0, #4]!
 242 013e 0133     		adds	r3, r3, #1
 243 0140 332B     		cmp	r3, #51
 244 0142 44F82210 		str	r1, [r4, r2, lsl #2]
 245 0146 F6D1     		bne	.L16
 246 0148 10BC     		pop	{r4}
 247 014a 7047     		bx	lr
 249              		.align	2
 250              		.global	HASH_DMACmd
 251              		.thumb
 252              		.thumb_func
 254              	HASH_DMACmd:
 255              		@ args = 0, pretend = 0, frame = 0
 256              		@ frame_needed = 0, uses_anonymous_args = 0
 257              		@ link register save eliminated.
 258 014c 4FF48063 		mov	r3, #1024
 259 0150 C5F20603 		movt	r3, 20486
 260 0154 1A68     		ldr	r2, [r3, #0]
 261 0156 18B9     		cbnz	r0, .L21
 262 0158 22F00802 		bic	r2, r2, #8
 263 015c 1A60     		str	r2, [r3, #0]
 264 015e 7047     		bx	lr
 265              	.L21:
 266 0160 42F00802 		orr	r2, r2, #8
 267 0164 1A60     		str	r2, [r3, #0]
 268 0166 7047     		bx	lr
 270              		.align	2
 271              		.global	HASH_ITConfig
 272              		.thumb
 273              		.thumb_func
 275              	HASH_ITConfig:
 276              		@ args = 0, pretend = 0, frame = 0
 277              		@ frame_needed = 0, uses_anonymous_args = 0
 278              		@ link register save eliminated.
 279 0168 4FF48063 		mov	r3, #1024
 280 016c C5F20603 		movt	r3, 20486
 281 0170 1A6A     		ldr	r2, [r3, #32]
 282 0172 29B9     		cbnz	r1, .L25
 283 0174 22EA0000 		bic	r0, r2, r0
 284 0178 00F0FF00 		and	r0, r0, #255
 285 017c 1862     		str	r0, [r3, #32]
 286 017e 7047     		bx	lr
 287              	.L25:
 288 0180 1043     		orrs	r0, r0, r2
 289 0182 1862     		str	r0, [r3, #32]
 290 0184 7047     		bx	lr
 292 0186 00BF     		.align	2
 293              		.global	HASH_GetFlagStatus
 294              		.thumb
 295              		.thumb_func
 297              	HASH_GetFlagStatus:
 298              		@ args = 0, pretend = 0, frame = 0
 299              		@ frame_needed = 0, uses_anonymous_args = 0
 300              		@ link register save eliminated.
 301 0188 4FF48063 		mov	r3, #1024
 302 018c C5F20603 		movt	r3, 20486
 303 0190 C204     		lsls	r2, r0, #19
 304 0192 4CBF     		ite	mi
 305 0194 1B68     		ldrmi	r3, [r3, #0]
 306 0196 5B6A     		ldrpl	r3, [r3, #36]
 307 0198 0342     		tst	r3, r0
 308 019a 0CBF     		ite	eq
 309 019c 0020     		moveq	r0, #0
 310 019e 0120     		movne	r0, #1
 311 01a0 7047     		bx	lr
 313 01a2 00BF     		.align	2
 314              		.global	HASH_ClearFlag
 315              		.thumb
 316              		.thumb_func
 318              	HASH_ClearFlag:
 319              		@ args = 0, pretend = 0, frame = 0
 320              		@ frame_needed = 0, uses_anonymous_args = 0
 321              		@ link register save eliminated.
 322 01a4 4FF48063 		mov	r3, #1024
 323 01a8 C5F20603 		movt	r3, 20486
 324 01ac C043     		mvns	r0, r0
 325 01ae 5862     		str	r0, [r3, #36]
 326 01b0 7047     		bx	lr
 328 01b2 00BF     		.align	2
 329              		.global	HASH_GetITStatus
 330              		.thumb
 331              		.thumb_func
 333              	HASH_GetITStatus:
 334              		@ args = 0, pretend = 0, frame = 0
 335              		@ frame_needed = 0, uses_anonymous_args = 0
 336              		@ link register save eliminated.
 337 01b4 4FF48063 		mov	r3, #1024
 338 01b8 C5F20603 		movt	r3, 20486
 339 01bc 5A6A     		ldr	r2, [r3, #36]
 340 01be 1B6A     		ldr	r3, [r3, #32]
 341 01c0 1340     		ands	r3, r3, r2
 342 01c2 0342     		tst	r3, r0
 343 01c4 0CBF     		ite	eq
 344 01c6 0020     		moveq	r0, #0
 345 01c8 0120     		movne	r0, #1
 346 01ca 7047     		bx	lr
 348              		.align	2
 349              		.global	HASH_ClearITPendingBit
 350              		.thumb
 351              		.thumb_func
 353              	HASH_ClearITPendingBit:
 354              		@ args = 0, pretend = 0, frame = 0
 355              		@ frame_needed = 0, uses_anonymous_args = 0
 356              		@ link register save eliminated.
 357 01cc 4FF48063 		mov	r3, #1024
 358 01d0 C043     		mvns	r0, r0
 359 01d2 C5F20603 		movt	r3, 20486
 360 01d6 C0B2     		uxtb	r0, r0
 361 01d8 5862     		str	r0, [r3, #36]
 362 01da 7047     		bx	lr
 364              		.ident	"GCC: (Linaro GCC 4.6-2011.10) 4.6.2 20111004 (prerelease)"