   1              		.syntax unified
   2              		.cpu cortex-m4
   3              		.fpu softvfp
   4              		.eabi_attribute 20, 1
   5              		.eabi_attribute 21, 1
   6              		.eabi_attribute 23, 3
   7              		.eabi_attribute 24, 1
   8              		.eabi_attribute 25, 1
   9              		.eabi_attribute 26, 1
  10              		.eabi_attribute 30, 2
  11              		.eabi_attribute 18, 4
  12              		.thumb
  13              		.file	"stm32f4xx_sdio.c"
  14              		.text
  15              		.align	2
  16              		.global	SDIO_DeInit
  17              		.thumb
  18              		.thumb_func
  20              	SDIO_DeInit:
  21              		@ args = 0, pretend = 0, frame = 0
  22              		@ frame_needed = 0, uses_anonymous_args = 0
  23 0000 08B5     		push	{r3, lr}
  24 0002 0121     		movs	r1, #1
  25 0004 4FF40060 		mov	r0, #2048
  26 0008 FFF7FEFF 		bl	RCC_APB2PeriphResetCmd
  27 000c 4FF40060 		mov	r0, #2048
  28 0010 0021     		movs	r1, #0
  29 0012 BDE80840 		pop	{r3, lr}
  30 0016 FFF7FEBF 		b	RCC_APB2PeriphResetCmd
  32 001a 00BF     		.align	2
  33              		.global	SDIO_Init
  34              		.thumb
  35              		.thumb_func
  37              	SDIO_Init:
  38              		@ args = 0, pretend = 0, frame = 0
  39              		@ frame_needed = 0, uses_anonymous_args = 0
  40              		@ link register save eliminated.
  41 001c F0B4     		push	{r4, r5, r6, r7}
  42 001e 4FF43053 		mov	r3, #11264
  43 0022 D0F804C0 		ldr	ip, [r0, #4]
  44 0026 8268     		ldr	r2, [r0, #8]
  45 0028 C768     		ldr	r7, [r0, #12]
  46 002a 0668     		ldr	r6, [r0, #0]
  47 002c 0469     		ldr	r4, [r0, #16]
  48 002e 017D     		ldrb	r1, [r0, #20]	@ zero_extendqisi2
  49 0030 C4F20103 		movt	r3, 16385
  50 0034 4CEA0202 		orr	r2, ip, r2
  51 0038 5D68     		ldr	r5, [r3, #4]
  52 003a 3A43     		orrs	r2, r2, r7
  53 003c 3243     		orrs	r2, r2, r6
  54 003e 25F4FD40 		bic	r0, r5, #32384
  55 0042 2243     		orrs	r2, r2, r4
  56 0044 20F07F00 		bic	r0, r0, #127
  57 0048 0243     		orrs	r2, r2, r0
  58 004a 0A43     		orrs	r2, r2, r1
  59 004c 5A60     		str	r2, [r3, #4]
  60 004e F0BC     		pop	{r4, r5, r6, r7}
  61 0050 7047     		bx	lr
  63 0052 00BF     		.align	2
  64              		.global	SDIO_StructInit
  65              		.thumb
  66              		.thumb_func
  68              	SDIO_StructInit:
  69              		@ args = 0, pretend = 0, frame = 0
  70              		@ frame_needed = 0, uses_anonymous_args = 0
  71              		@ link register save eliminated.
  72 0054 0023     		movs	r3, #0
  73 0056 0375     		strb	r3, [r0, #20]
  74 0058 0360     		str	r3, [r0, #0]
  75 005a 4360     		str	r3, [r0, #4]
  76 005c 8360     		str	r3, [r0, #8]
  77 005e C360     		str	r3, [r0, #12]
  78 0060 0361     		str	r3, [r0, #16]
  79 0062 7047     		bx	lr
  81              		.align	2
  82              		.global	SDIO_ClockCmd
  83              		.thumb
  84              		.thumb_func
  86              	SDIO_ClockCmd:
  87              		@ args = 0, pretend = 0, frame = 0
  88              		@ frame_needed = 0, uses_anonymous_args = 0
  89              		@ link register save eliminated.
  90 0064 48F2A003 		movw	r3, #32928
  91 0068 C4F22523 		movt	r3, 16933
  92 006c 1860     		str	r0, [r3, #0]
  93 006e 7047     		bx	lr
  95              		.align	2
  96              		.global	SDIO_SetPowerState
  97              		.thumb
  98              		.thumb_func
 100              	SDIO_SetPowerState:
 101              		@ args = 0, pretend = 0, frame = 0
 102              		@ frame_needed = 0, uses_anonymous_args = 0
 103              		@ link register save eliminated.
 104 0070 4FF43053 		mov	r3, #11264
 105 0074 C4F20103 		movt	r3, 16385
 106 0078 1860     		str	r0, [r3, #0]
 107 007a 7047     		bx	lr
 109              		.align	2
 110              		.global	SDIO_GetPowerState
 111              		.thumb
 112              		.thumb_func
 114              	SDIO_GetPowerState:
 115              		@ args = 0, pretend = 0, frame = 0
 116              		@ frame_needed = 0, uses_anonymous_args = 0
 117              		@ link register save eliminated.
 118 007c 4FF43053 		mov	r3, #11264
 119 0080 C4F20103 		movt	r3, 16385
 120 0084 1868     		ldr	r0, [r3, #0]
 121 0086 00F00300 		and	r0, r0, #3
 122 008a 7047     		bx	lr
 124              		.align	2
 125              		.global	SDIO_SendCommand
 126              		.thumb
 127              		.thumb_func
 129              	SDIO_SendCommand:
 130              		@ args = 0, pretend = 0, frame = 0
 131              		@ frame_needed = 0, uses_anonymous_args = 0
 132              		@ link register save eliminated.
 133 008c 4FF43053 		mov	r3, #11264
 134 0090 0268     		ldr	r2, [r0, #0]
 135 0092 C4F20103 		movt	r3, 16385
 136 0096 30B4     		push	{r4, r5}
 137 0098 9A60     		str	r2, [r3, #8]
 138 009a 8568     		ldr	r5, [r0, #8]
 139 009c 4268     		ldr	r2, [r0, #4]
 140 009e C468     		ldr	r4, [r0, #12]
 141 00a0 D968     		ldr	r1, [r3, #12]
 142 00a2 0069     		ldr	r0, [r0, #16]
 143 00a4 2A43     		orrs	r2, r2, r5
 144 00a6 21F4FF61 		bic	r1, r1, #2040
 145 00aa 2243     		orrs	r2, r2, r4
 146 00ac 21F00701 		bic	r1, r1, #7
 147 00b0 0243     		orrs	r2, r2, r0
 148 00b2 0A43     		orrs	r2, r2, r1
 149 00b4 DA60     		str	r2, [r3, #12]
 150 00b6 30BC     		pop	{r4, r5}
 151 00b8 7047     		bx	lr
 153 00ba 00BF     		.align	2
 154              		.global	SDIO_CmdStructInit
 155              		.thumb
 156              		.thumb_func
 158              	SDIO_CmdStructInit:
 159              		@ args = 0, pretend = 0, frame = 0
 160              		@ frame_needed = 0, uses_anonymous_args = 0
 161              		@ link register save eliminated.
 162 00bc 0023     		movs	r3, #0
 163 00be 0360     		str	r3, [r0, #0]
 164 00c0 4360     		str	r3, [r0, #4]
 165 00c2 8360     		str	r3, [r0, #8]
 166 00c4 C360     		str	r3, [r0, #12]
 167 00c6 0361     		str	r3, [r0, #16]
 168 00c8 7047     		bx	lr
 170 00ca 00BF     		.align	2
 171              		.global	SDIO_GetCommandResponse
 172              		.thumb
 173              		.thumb_func
 175              	SDIO_GetCommandResponse:
 176              		@ args = 0, pretend = 0, frame = 0
 177              		@ frame_needed = 0, uses_anonymous_args = 0
 178              		@ link register save eliminated.
 179 00cc 4FF43053 		mov	r3, #11264
 180 00d0 C4F20103 		movt	r3, 16385
 181 00d4 1869     		ldr	r0, [r3, #16]
 182 00d6 C0B2     		uxtb	r0, r0
 183 00d8 7047     		bx	lr
 185 00da 00BF     		.align	2
 186              		.global	SDIO_GetResponse
 187              		.thumb
 188              		.thumb_func
 190              	SDIO_GetResponse:
 191              		@ args = 0, pretend = 0, frame = 8
 192              		@ frame_needed = 0, uses_anonymous_args = 0
 193              		@ link register save eliminated.
 194 00dc 42F61443 		movw	r3, #11284
 195 00e0 82B0     		sub	sp, sp, #8
 196 00e2 C4F20103 		movt	r3, 16385
 197 00e6 C318     		adds	r3, r0, r3
 198 00e8 0022     		movs	r2, #0
 199 00ea 0192     		str	r2, [sp, #4]
 200 00ec 0193     		str	r3, [sp, #4]
 201 00ee 019B     		ldr	r3, [sp, #4]
 202 00f0 1868     		ldr	r0, [r3, #0]
 203 00f2 02B0     		add	sp, sp, #8
 204 00f4 7047     		bx	lr
 206 00f6 00BF     		.align	2
 207              		.global	SDIO_DataConfig
 208              		.thumb
 209              		.thumb_func
 211              	SDIO_DataConfig:
 212              		@ args = 0, pretend = 0, frame = 0
 213              		@ frame_needed = 0, uses_anonymous_args = 0
 214              		@ link register save eliminated.
 215 00f8 4FF43053 		mov	r3, #11264
 216 00fc 0268     		ldr	r2, [r0, #0]
 217 00fe C4F20103 		movt	r3, 16385
 218 0102 30B4     		push	{r4, r5}
 219 0104 5A62     		str	r2, [r3, #36]
 220 0106 4268     		ldr	r2, [r0, #4]
 221 0108 9A62     		str	r2, [r3, #40]
 222 010a C568     		ldr	r5, [r0, #12]
 223 010c 8268     		ldr	r2, [r0, #8]
 224 010e 0469     		ldr	r4, [r0, #16]
 225 0110 D96A     		ldr	r1, [r3, #44]
 226 0112 4069     		ldr	r0, [r0, #20]
 227 0114 2A43     		orrs	r2, r2, r5
 228 0116 2243     		orrs	r2, r2, r4
 229 0118 21F0F701 		bic	r1, r1, #247
 230 011c 0243     		orrs	r2, r2, r0
 231 011e 0A43     		orrs	r2, r2, r1
 232 0120 DA62     		str	r2, [r3, #44]
 233 0122 30BC     		pop	{r4, r5}
 234 0124 7047     		bx	lr
 236 0126 00BF     		.align	2
 237              		.global	SDIO_DataStructInit
 238              		.thumb
 239              		.thumb_func
 241              	SDIO_DataStructInit:
 242              		@ args = 0, pretend = 0, frame = 0
 243              		@ frame_needed = 0, uses_anonymous_args = 0
 244              		@ link register save eliminated.
 245 0128 0023     		movs	r3, #0
 246 012a 4FF0FF32 		mov	r2, #-1
 247 012e 80E80C00 		stmia	r0, {r2, r3}
 248 0132 8360     		str	r3, [r0, #8]
 249 0134 C360     		str	r3, [r0, #12]
 250 0136 0361     		str	r3, [r0, #16]
 251 0138 4361     		str	r3, [r0, #20]
 252 013a 7047     		bx	lr
 254              		.align	2
 255              		.global	SDIO_GetDataCounter
 256              		.thumb
 257              		.thumb_func
 259              	SDIO_GetDataCounter:
 260              		@ args = 0, pretend = 0, frame = 0
 261              		@ frame_needed = 0, uses_anonymous_args = 0
 262              		@ link register save eliminated.
 263 013c 4FF43053 		mov	r3, #11264
 264 0140 C4F20103 		movt	r3, 16385
 265 0144 186B     		ldr	r0, [r3, #48]
 266 0146 7047     		bx	lr
 268              		.align	2
 269              		.global	SDIO_ReadData
 270              		.thumb
 271              		.thumb_func
 273              	SDIO_ReadData:
 274              		@ args = 0, pretend = 0, frame = 0
 275              		@ frame_needed = 0, uses_anonymous_args = 0
 276              		@ link register save eliminated.
 277 0148 4FF43053 		mov	r3, #11264
 278 014c C4F20103 		movt	r3, 16385
 279 0150 D3F88000 		ldr	r0, [r3, #128]
 280 0154 7047     		bx	lr
 282 0156 00BF     		.align	2
 283              		.global	SDIO_WriteData
 284              		.thumb
 285              		.thumb_func
 287              	SDIO_WriteData:
 288              		@ args = 0, pretend = 0, frame = 0
 289              		@ frame_needed = 0, uses_anonymous_args = 0
 290              		@ link register save eliminated.
 291 0158 4FF43053 		mov	r3, #11264
 292 015c C4F20103 		movt	r3, 16385
 293 0160 C3F88000 		str	r0, [r3, #128]
 294 0164 7047     		bx	lr
 296 0166 00BF     		.align	2
 297              		.global	SDIO_GetFIFOCount
 298              		.thumb
 299              		.thumb_func
 301              	SDIO_GetFIFOCount:
 302              		@ args = 0, pretend = 0, frame = 0
 303              		@ frame_needed = 0, uses_anonymous_args = 0
 304              		@ link register save eliminated.
 305 0168 4FF43053 		mov	r3, #11264
 306 016c C4F20103 		movt	r3, 16385
 307 0170 986C     		ldr	r0, [r3, #72]
 308 0172 7047     		bx	lr
 310              		.align	2
 311              		.global	SDIO_StartSDIOReadWait
 312              		.thumb
 313              		.thumb_func
 315              	SDIO_StartSDIOReadWait:
 316              		@ args = 0, pretend = 0, frame = 0
 317              		@ frame_needed = 0, uses_anonymous_args = 0
 318              		@ link register save eliminated.
 319 0174 48F2A053 		movw	r3, #34208
 320 0178 C4F22523 		movt	r3, 16933
 321 017c 1860     		str	r0, [r3, #0]
 322 017e 7047     		bx	lr
 324              		.align	2
 325              		.global	SDIO_StopSDIOReadWait
 326              		.thumb
 327              		.thumb_func
 329              	SDIO_StopSDIOReadWait:
 330              		@ args = 0, pretend = 0, frame = 0
 331              		@ frame_needed = 0, uses_anonymous_args = 0
 332              		@ link register save eliminated.
 333 0180 48F2A453 		movw	r3, #34212
 334 0184 C4F22523 		movt	r3, 16933
 335 0188 1860     		str	r0, [r3, #0]
 336 018a 7047     		bx	lr
 338              		.align	2
 339              		.global	SDIO_SetSDIOReadWaitMode
 340              		.thumb
 341              		.thumb_func
 343              	SDIO_SetSDIOReadWaitMode:
 344              		@ args = 0, pretend = 0, frame = 0
 345              		@ frame_needed = 0, uses_anonymous_args = 0
 346              		@ link register save eliminated.
 347 018c 48F2A853 		movw	r3, #34216
 348 0190 C4F22523 		movt	r3, 16933
 349 0194 1860     		str	r0, [r3, #0]
 350 0196 7047     		bx	lr
 352              		.align	2
 353              		.global	SDIO_SetSDIOOperation
 354              		.thumb
 355              		.thumb_func
 357              	SDIO_SetSDIOOperation:
 358              		@ args = 0, pretend = 0, frame = 0
 359              		@ frame_needed = 0, uses_anonymous_args = 0
 360              		@ link register save eliminated.
 361 0198 48F2AC53 		movw	r3, #34220
 362 019c C4F22523 		movt	r3, 16933
 363 01a0 1860     		str	r0, [r3, #0]
 364 01a2 7047     		bx	lr
 366              		.align	2
 367              		.global	SDIO_SendSDIOSuspendCmd
 368              		.thumb
 369              		.thumb_func
 371              	SDIO_SendSDIOSuspendCmd:
 372              		@ args = 0, pretend = 0, frame = 0
 373              		@ frame_needed = 0, uses_anonymous_args = 0
 374              		@ link register save eliminated.
 375 01a4 48F2AC13 		movw	r3, #33196
 376 01a8 C4F22523 		movt	r3, 16933
 377 01ac 1860     		str	r0, [r3, #0]
 378 01ae 7047     		bx	lr
 380              		.align	2
 381              		.global	SDIO_CommandCompletionCmd
 382              		.thumb
 383              		.thumb_func
 385              	SDIO_CommandCompletionCmd:
 386              		@ args = 0, pretend = 0, frame = 0
 387              		@ frame_needed = 0, uses_anonymous_args = 0
 388              		@ link register save eliminated.
 389 01b0 48F2B013 		movw	r3, #33200
 390 01b4 C4F22523 		movt	r3, 16933
 391 01b8 1860     		str	r0, [r3, #0]
 392 01ba 7047     		bx	lr
 394              		.align	2
 395              		.global	SDIO_CEATAITCmd
 396              		.thumb
 397              		.thumb_func
 399              	SDIO_CEATAITCmd:
 400              		@ args = 0, pretend = 0, frame = 0
 401              		@ frame_needed = 0, uses_anonymous_args = 0
 402              		@ link register save eliminated.
 403 01bc 48F2B413 		movw	r3, #33204
 404 01c0 00F00100 		and	r0, r0, #1
 405 01c4 C4F22523 		movt	r3, 16933
 406 01c8 80F00100 		eor	r0, r0, #1
 407 01cc 1860     		str	r0, [r3, #0]
 408 01ce 7047     		bx	lr
 410              		.align	2
 411              		.global	SDIO_SendCEATACmd
 412              		.thumb
 413              		.thumb_func
 415              	SDIO_SendCEATACmd:
 416              		@ args = 0, pretend = 0, frame = 0
 417              		@ frame_needed = 0, uses_anonymous_args = 0
 418              		@ link register save eliminated.
 419 01d0 48F2B813 		movw	r3, #33208
 420 01d4 C4F22523 		movt	r3, 16933
 421 01d8 1860     		str	r0, [r3, #0]
 422 01da 7047     		bx	lr
 424              		.align	2
 425              		.global	SDIO_DMACmd
 426              		.thumb
 427              		.thumb_func
 429              	SDIO_DMACmd:
 430              		@ args = 0, pretend = 0, frame = 0
 431              		@ frame_needed = 0, uses_anonymous_args = 0
 432              		@ link register save eliminated.
 433 01dc 48F28C53 		movw	r3, #34188
 434 01e0 C4F22523 		movt	r3, 16933
 435 01e4 1860     		str	r0, [r3, #0]
 436 01e6 7047     		bx	lr
 438              		.align	2
 439              		.global	SDIO_ITConfig
 440              		.thumb
 441              		.thumb_func
 443              	SDIO_ITConfig:
 444              		@ args = 0, pretend = 0, frame = 0
 445              		@ frame_needed = 0, uses_anonymous_args = 0
 446              		@ link register save eliminated.
 447 01e8 4FF43053 		mov	r3, #11264
 448 01ec C4F20103 		movt	r3, 16385
 449 01f0 DA6B     		ldr	r2, [r3, #60]
 450 01f2 19B9     		cbnz	r1, .L30
 451 01f4 22EA0000 		bic	r0, r2, r0
 452 01f8 D863     		str	r0, [r3, #60]
 453 01fa 7047     		bx	lr
 454              	.L30:
 455 01fc 1043     		orrs	r0, r0, r2
 456 01fe D863     		str	r0, [r3, #60]
 457 0200 7047     		bx	lr
 459 0202 00BF     		.align	2
 460              		.global	SDIO_GetFlagStatus
 461              		.thumb
 462              		.thumb_func
 464              	SDIO_GetFlagStatus:
 465              		@ args = 0, pretend = 0, frame = 0
 466              		@ frame_needed = 0, uses_anonymous_args = 0
 467              		@ link register save eliminated.
 468 0204 4FF43053 		mov	r3, #11264
 469 0208 C4F20103 		movt	r3, 16385
 470 020c 5B6B     		ldr	r3, [r3, #52]
 471 020e 1842     		tst	r0, r3
 472 0210 0CBF     		ite	eq
 473 0212 0020     		moveq	r0, #0
 474 0214 0120     		movne	r0, #1
 475 0216 7047     		bx	lr
 477              		.align	2
 478              		.global	SDIO_ClearFlag
 479              		.thumb
 480              		.thumb_func
 482              	SDIO_ClearFlag:
 483              		@ args = 0, pretend = 0, frame = 0
 484              		@ frame_needed = 0, uses_anonymous_args = 0
 485              		@ link register save eliminated.
 486 0218 4FF43053 		mov	r3, #11264
 487 021c C4F20103 		movt	r3, 16385
 488 0220 9863     		str	r0, [r3, #56]
 489 0222 7047     		bx	lr
 491              		.align	2
 492              		.global	SDIO_GetITStatus
 493              		.thumb
 494              		.thumb_func
 496              	SDIO_GetITStatus:
 497              		@ args = 0, pretend = 0, frame = 0
 498              		@ frame_needed = 0, uses_anonymous_args = 0
 499              		@ link register save eliminated.
 500 0224 4FF43053 		mov	r3, #11264
 501 0228 C4F20103 		movt	r3, 16385
 502 022c 5B6B     		ldr	r3, [r3, #52]
 503 022e 1842     		tst	r0, r3
 504 0230 0CBF     		ite	eq
 505 0232 0020     		moveq	r0, #0
 506 0234 0120     		movne	r0, #1
 507 0236 7047     		bx	lr
 509              		.align	2
 510              		.global	SDIO_ClearITPendingBit
 511              		.thumb
 512              		.thumb_func
 514              	SDIO_ClearITPendingBit:
 515              		@ args = 0, pretend = 0, frame = 0
 516              		@ frame_needed = 0, uses_anonymous_args = 0
 517              		@ link register save eliminated.
 518 0238 4FF43053 		mov	r3, #11264
 519 023c C4F20103 		movt	r3, 16385
 520 0240 9863     		str	r0, [r3, #56]
 521 0242 7047     		bx	lr
 523              		.ident	"GCC: (Linaro GCC 4.6-2011.10) 4.6.2 20111004 (prerelease)"