   1              		.syntax unified
   2              		.cpu cortex-m4
   3              		.fpu softvfp
   4              		.eabi_attribute 20, 1
   5              		.eabi_attribute 21, 1
   6              		.eabi_attribute 23, 3
   7              		.eabi_attribute 24, 1
   8              		.eabi_attribute 25, 1
   9              		.eabi_attribute 26, 1
  10              		.eabi_attribute 30, 2
  11              		.eabi_attribute 18, 4
  12              		.thumb
  13              		.file	"stm32f4xx_pwr.c"
  14              		.text
  15              		.align	2
  16              		.global	PWR_DeInit
  17              		.thumb
  18              		.thumb_func
  20              	PWR_DeInit:
  21              		@ args = 0, pretend = 0, frame = 0
  22              		@ frame_needed = 0, uses_anonymous_args = 0
  23 0000 08B5     		push	{r3, lr}
  24 0002 0121     		movs	r1, #1
  25 0004 4FF08050 		mov	r0, #268435456
  26 0008 FFF7FEFF 		bl	RCC_APB1PeriphResetCmd
  27 000c 4FF08050 		mov	r0, #268435456
  28 0010 0021     		movs	r1, #0
  29 0012 BDE80840 		pop	{r3, lr}
  30 0016 FFF7FEBF 		b	RCC_APB1PeriphResetCmd
  32 001a 00BF     		.align	2
  33              		.global	PWR_BackupAccessCmd
  34              		.thumb
  35              		.thumb_func
  37              	PWR_BackupAccessCmd:
  38              		@ args = 0, pretend = 0, frame = 0
  39              		@ frame_needed = 0, uses_anonymous_args = 0
  40              		@ link register save eliminated.
  41 001c 2023     		movs	r3, #32
  42 001e C4F20E23 		movt	r3, 16910
  43 0022 1860     		str	r0, [r3, #0]
  44 0024 7047     		bx	lr
  46 0026 00BF     		.align	2
  47              		.global	PWR_PVDLevelConfig
  48              		.thumb
  49              		.thumb_func
  51              	PWR_PVDLevelConfig:
  52              		@ args = 0, pretend = 0, frame = 0
  53              		@ frame_needed = 0, uses_anonymous_args = 0
  54              		@ link register save eliminated.
  55 0028 4FF4E043 		mov	r3, #28672
  56 002c C4F20003 		movt	r3, 16384
  57 0030 1A68     		ldr	r2, [r3, #0]
  58 0032 22F0E002 		bic	r2, r2, #224
  59 0036 0243     		orrs	r2, r2, r0
  60 0038 1A60     		str	r2, [r3, #0]
  61 003a 7047     		bx	lr
  63              		.align	2
  64              		.global	PWR_PVDCmd
  65              		.thumb
  66              		.thumb_func
  68              	PWR_PVDCmd:
  69              		@ args = 0, pretend = 0, frame = 0
  70              		@ frame_needed = 0, uses_anonymous_args = 0
  71              		@ link register save eliminated.
  72 003c 1023     		movs	r3, #16
  73 003e C4F20E23 		movt	r3, 16910
  74 0042 1860     		str	r0, [r3, #0]
  75 0044 7047     		bx	lr
  77 0046 00BF     		.align	2
  78              		.global	PWR_WakeUpPinCmd
  79              		.thumb
  80              		.thumb_func
  82              	PWR_WakeUpPinCmd:
  83              		@ args = 0, pretend = 0, frame = 0
  84              		@ frame_needed = 0, uses_anonymous_args = 0
  85              		@ link register save eliminated.
  86 0048 A023     		movs	r3, #160
  87 004a C4F20E23 		movt	r3, 16910
  88 004e 1860     		str	r0, [r3, #0]
  89 0050 7047     		bx	lr
  91 0052 00BF     		.align	2
  92              		.global	PWR_BackupRegulatorCmd
  93              		.thumb
  94              		.thumb_func
  96              	PWR_BackupRegulatorCmd:
  97              		@ args = 0, pretend = 0, frame = 0
  98              		@ frame_needed = 0, uses_anonymous_args = 0
  99              		@ link register save eliminated.
 100 0054 A423     		movs	r3, #164
 101 0056 C4F20E23 		movt	r3, 16910
 102 005a 1860     		str	r0, [r3, #0]
 103 005c 7047     		bx	lr
 105 005e 00BF     		.align	2
 106              		.global	PWR_MainRegulatorModeConfig
 107              		.thumb
 108              		.thumb_func
 110              	PWR_MainRegulatorModeConfig:
 111              		@ args = 0, pretend = 0, frame = 0
 112              		@ frame_needed = 0, uses_anonymous_args = 0
 113              		@ link register save eliminated.
 114 0060 4FF4E043 		mov	r3, #28672
 115 0064 C4F20003 		movt	r3, 16384
 116 0068 1A68     		ldr	r2, [r3, #0]
 117 006a 18B1     		cbz	r0, .L11
 118 006c 42F48042 		orr	r2, r2, #16384
 119 0070 1A60     		str	r2, [r3, #0]
 120 0072 7047     		bx	lr
 121              	.L11:
 122 0074 22F48042 		bic	r2, r2, #16384
 123 0078 1A60     		str	r2, [r3, #0]
 124 007a 7047     		bx	lr
 126              		.align	2
 127              		.global	PWR_FlashPowerDownCmd
 128              		.thumb
 129              		.thumb_func
 131              	PWR_FlashPowerDownCmd:
 132              		@ args = 0, pretend = 0, frame = 0
 133              		@ frame_needed = 0, uses_anonymous_args = 0
 134              		@ link register save eliminated.
 135 007c 2423     		movs	r3, #36
 136 007e C4F20E23 		movt	r3, 16910
 137 0082 1860     		str	r0, [r3, #0]
 138 0084 7047     		bx	lr
 140 0086 00BF     		.align	2
 141              		.global	PWR_EnterSTOPMode
 142              		.thumb
 143              		.thumb_func
 145              	PWR_EnterSTOPMode:
 146              		@ args = 0, pretend = 0, frame = 0
 147              		@ frame_needed = 0, uses_anonymous_args = 0
 148              		@ link register save eliminated.
 149 0088 4FF4E042 		mov	r2, #28672
 150 008c C4F20002 		movt	r2, 16384
 151 0090 10B4     		push	{r4}
 152 0092 1468     		ldr	r4, [r2, #0]
 153 0094 4FF46D43 		mov	r3, #60672
 154 0098 24F00304 		bic	r4, r4, #3
 155 009c CEF20003 		movt	r3, 57344
 156 00a0 2043     		orrs	r0, r0, r4
 157 00a2 1060     		str	r0, [r2, #0]
 158 00a4 1A69     		ldr	r2, [r3, #16]
 159 00a6 0129     		cmp	r1, #1
 160 00a8 42F00402 		orr	r2, r2, #4
 161 00ac 1A61     		str	r2, [r3, #16]
 162 00ae 0AD0     		beq	.L16
 163              	@ 293 "//home/pyro/workspace/workspace_STM32/CAN/lib/CMSIS/Include/core_cmInstr.h" 1
 164 00b0 20BF     		wfe
 165              	@ 0 "" 2
 166              		.thumb
 167              	.L15:
 168 00b2 4FF46D43 		mov	r3, #60672
 169 00b6 CEF20003 		movt	r3, 57344
 170 00ba 1A69     		ldr	r2, [r3, #16]
 171 00bc 22F00402 		bic	r2, r2, #4
 172 00c0 1A61     		str	r2, [r3, #16]
 173 00c2 10BC     		pop	{r4}
 174 00c4 7047     		bx	lr
 175              	.L16:
 176              	@ 282 "//home/pyro/workspace/workspace_STM32/CAN/lib/CMSIS/Include/core_cmInstr.h" 1
 177 00c6 30BF     		wfi
 178              	@ 0 "" 2
 179              		.thumb
 180 00c8 F3E7     		b	.L15
 182 00ca 00BF     		.align	2
 183              		.global	PWR_EnterSTANDBYMode
 184              		.thumb
 185              		.thumb_func
 187              	PWR_EnterSTANDBYMode:
 188              		@ args = 0, pretend = 0, frame = 0
 189              		@ frame_needed = 0, uses_anonymous_args = 0
 190              		@ link register save eliminated.
 191 00cc 4FF4E043 		mov	r3, #28672
 192 00d0 C4F20003 		movt	r3, 16384
 193 00d4 4FF46D42 		mov	r2, #60672
 194 00d8 1968     		ldr	r1, [r3, #0]
 195 00da 41F00401 		orr	r1, r1, #4
 196 00de 1960     		str	r1, [r3, #0]
 197 00e0 1968     		ldr	r1, [r3, #0]
 198 00e2 CEF20002 		movt	r2, 57344
 199 00e6 41F00201 		orr	r1, r1, #2
 200 00ea 1960     		str	r1, [r3, #0]
 201 00ec 1369     		ldr	r3, [r2, #16]
 202 00ee 43F00403 		orr	r3, r3, #4
 203 00f2 1361     		str	r3, [r2, #16]
 204              	@ 282 "//home/pyro/workspace/workspace_STM32/CAN/lib/CMSIS/Include/core_cmInstr.h" 1
 205 00f4 30BF     		wfi
 206              	@ 0 "" 2
 207              		.thumb
 208 00f6 7047     		bx	lr
 210              		.align	2
 211              		.global	PWR_GetFlagStatus
 212              		.thumb
 213              		.thumb_func
 215              	PWR_GetFlagStatus:
 216              		@ args = 0, pretend = 0, frame = 0
 217              		@ frame_needed = 0, uses_anonymous_args = 0
 218              		@ link register save eliminated.
 219 00f8 4FF4E043 		mov	r3, #28672
 220 00fc C4F20003 		movt	r3, 16384
 221 0100 5B68     		ldr	r3, [r3, #4]
 222 0102 1842     		tst	r0, r3
 223 0104 0CBF     		ite	eq
 224 0106 0020     		moveq	r0, #0
 225 0108 0120     		movne	r0, #1
 226 010a 7047     		bx	lr
 228              		.align	2
 229              		.global	PWR_ClearFlag
 230              		.thumb
 231              		.thumb_func
 233              	PWR_ClearFlag:
 234              		@ args = 0, pretend = 0, frame = 0
 235              		@ frame_needed = 0, uses_anonymous_args = 0
 236              		@ link register save eliminated.
 237 010c 4FF4E043 		mov	r3, #28672
 238 0110 C4F20003 		movt	r3, 16384
 239 0114 1A68     		ldr	r2, [r3, #0]
 240 0116 42EA8002 		orr	r2, r2, r0, lsl #2
 241 011a 1A60     		str	r2, [r3, #0]
 242 011c 7047     		bx	lr
 244 011e 00BF     		.ident	"GCC: (Linaro GCC 4.6-2011.10) 4.6.2 20111004 (prerelease)"