   1              		.syntax unified
   2              		.cpu cortex-m4
   3              		.fpu softvfp
   4              		.eabi_attribute 20, 1
   5              		.eabi_attribute 21, 1
   6              		.eabi_attribute 23, 3
   7              		.eabi_attribute 24, 1
   8              		.eabi_attribute 25, 1
   9              		.eabi_attribute 26, 1
  10              		.eabi_attribute 30, 2
  11              		.eabi_attribute 18, 4
  12              		.thumb
  13              		.file	"stm32f4xx_rtc.c"
  14              		.text
  15              		.align	2
  16              		.global	RTC_DeInit
  17              		.thumb
  18              		.thumb_func
  20              	RTC_DeInit:
  21              		@ args = 0, pretend = 0, frame = 8
  22              		@ frame_needed = 0, uses_anonymous_args = 0
  23              		@ link register save eliminated.
  24 0000 4FF42051 		mov	r1, #10240
  25 0004 C4F20001 		movt	r1, 16384
  26 0008 82B0     		sub	sp, sp, #8
  27 000a 0023     		movs	r3, #0
  28 000c CA22     		movs	r2, #202
  29 000e 0093     		str	r3, [sp, #0]
  30 0010 4A62     		str	r2, [r1, #36]
  31 0012 5322     		movs	r2, #83
  32 0014 4A62     		str	r2, [r1, #36]
  33 0016 0193     		str	r3, [sp, #4]
  34 0018 CB68     		ldr	r3, [r1, #12]
  35 001a 5B06     		lsls	r3, r3, #25
  36 001c 1DD4     		bmi	.L2
  37 001e 4FF0FF33 		mov	r3, #-1
  38 0022 CB60     		str	r3, [r1, #12]
  39 0024 01E0     		b	.L4
  40              	.L17:
  41 0026 5006     		lsls	r0, r2, #25
  42 0028 07D4     		bmi	.L3
  43              	.L4:
  44 002a CA68     		ldr	r2, [r1, #12]
  45 002c 019B     		ldr	r3, [sp, #4]
  46 002e 0133     		adds	r3, r3, #1
  47 0030 0193     		str	r3, [sp, #4]
  48 0032 019B     		ldr	r3, [sp, #4]
  49 0034 B3F5803F 		cmp	r3, #65536
  50 0038 F5D1     		bne	.L17
  51              	.L3:
  52 003a 4FF42053 		mov	r3, #10240
  53 003e C4F20003 		movt	r3, 16384
  54 0042 D868     		ldr	r0, [r3, #12]
  55 0044 10F04000 		ands	r0, r0, #64
  56 0048 07D1     		bne	.L2
  57              	.L5:
  58 004a 4FF42053 		mov	r3, #10240
  59 004e C4F20003 		movt	r3, 16384
  60 0052 FF22     		movs	r2, #255
  61 0054 5A62     		str	r2, [r3, #36]
  62 0056 02B0     		add	sp, sp, #8
  63 0058 7047     		bx	lr
  64              	.L2:
  65 005a 4FF42051 		mov	r1, #10240
  66 005e C4F20001 		movt	r1, 16384
  67 0062 0023     		movs	r3, #0
  68 0064 0B60     		str	r3, [r1, #0]
  69 0066 42F20113 		movw	r3, #8449
  70 006a 4B60     		str	r3, [r1, #4]
  71 006c 8B68     		ldr	r3, [r1, #8]
  72 006e 03F00703 		and	r3, r3, #7
  73 0072 8B60     		str	r3, [r1, #8]
  74 0074 01E0     		b	.L7
  75              	.L18:
  76 0076 5207     		lsls	r2, r2, #29
  77 0078 07D4     		bmi	.L6
  78              	.L7:
  79 007a CA68     		ldr	r2, [r1, #12]
  80 007c 009B     		ldr	r3, [sp, #0]
  81 007e 0133     		adds	r3, r3, #1
  82 0080 0093     		str	r3, [sp, #0]
  83 0082 009B     		ldr	r3, [sp, #0]
  84 0084 B3F5803F 		cmp	r3, #65536
  85 0088 F5D1     		bne	.L18
  86              	.L6:
  87 008a 4FF42053 		mov	r3, #10240
  88 008e C4F20003 		movt	r3, 16384
  89 0092 D868     		ldr	r0, [r3, #12]
  90 0094 10F00400 		ands	r0, r0, #4
  91 0098 D7D0     		beq	.L5
  92 009a FF21     		movs	r1, #255
  93 009c 9868     		ldr	r0, [r3, #8]
  94 009e 0022     		movs	r2, #0
  95 00a0 C0F27F01 		movt	r1, 127
  96 00a4 4FF6FF70 		movw	r0, #65535
  97 00a8 9A60     		str	r2, [r3, #8]
  98 00aa 5861     		str	r0, [r3, #20]
  99 00ac 1961     		str	r1, [r3, #16]
 100 00ae 9A61     		str	r2, [r3, #24]
 101 00b0 DA61     		str	r2, [r3, #28]
 102 00b2 1A62     		str	r2, [r3, #32]
 103 00b4 DA60     		str	r2, [r3, #12]
 104 00b6 1A64     		str	r2, [r3, #64]
 105 00b8 0192     		str	r2, [sp, #4]
 106 00ba CA22     		movs	r2, #202
 107 00bc 5A62     		str	r2, [r3, #36]
 108 00be 5322     		movs	r2, #83
 109 00c0 5A62     		str	r2, [r3, #36]
 110 00c2 DA68     		ldr	r2, [r3, #12]
 111 00c4 22F0A002 		bic	r2, r2, #160
 112 00c8 DA60     		str	r2, [r3, #12]
 113 00ca 1946     		mov	r1, r3
 114 00cc 01E0     		b	.L9
 115              	.L19:
 116 00ce 9306     		lsls	r3, r2, #26
 117 00d0 07D4     		bmi	.L8
 118              	.L9:
 119 00d2 CA68     		ldr	r2, [r1, #12]
 120 00d4 019B     		ldr	r3, [sp, #4]
 121 00d6 0133     		adds	r3, r3, #1
 122 00d8 0193     		str	r3, [sp, #4]
 123 00da 019B     		ldr	r3, [sp, #4]
 124 00dc B3F5003F 		cmp	r3, #131072
 125 00e0 F5D1     		bne	.L19
 126              	.L8:
 127 00e2 4FF42053 		mov	r3, #10240
 128 00e6 C4F20003 		movt	r3, 16384
 129 00ea FF22     		movs	r2, #255
 130 00ec D868     		ldr	r0, [r3, #12]
 131 00ee 5A62     		str	r2, [r3, #36]
 132 00f0 10F02000 		ands	r0, r0, #32
 133 00f4 18BF     		it	ne
 134 00f6 0120     		movne	r0, #1
 135 00f8 A7E7     		b	.L5
 137 00fa 00BF     		.align	2
 138              		.global	RTC_Init
 139              		.thumb
 140              		.thumb_func
 142              	RTC_Init:
 143              		@ args = 0, pretend = 0, frame = 8
 144              		@ frame_needed = 0, uses_anonymous_args = 0
 145              		@ link register save eliminated.
 146 00fc 10B4     		push	{r4}
 147 00fe 4FF42053 		mov	r3, #10240
 148 0102 C4F20003 		movt	r3, 16384
 149 0106 CA22     		movs	r2, #202
 150 0108 5A62     		str	r2, [r3, #36]
 151 010a 83B0     		sub	sp, sp, #12
 152 010c 5322     		movs	r2, #83
 153 010e 5A62     		str	r2, [r3, #36]
 154 0110 0022     		movs	r2, #0
 155 0112 0192     		str	r2, [sp, #4]
 156 0114 DA68     		ldr	r2, [r3, #12]
 157 0116 5106     		lsls	r1, r2, #25
 158 0118 0446     		mov	r4, r0
 159 011a 1ED4     		bmi	.L21
 160 011c 4FF0FF32 		mov	r2, #-1
 161 0120 DA60     		str	r2, [r3, #12]
 162 0122 01E0     		b	.L23
 163              	.L27:
 164 0124 4A06     		lsls	r2, r1, #25
 165 0126 07D4     		bmi	.L22
 166              	.L23:
 167 0128 D968     		ldr	r1, [r3, #12]
 168 012a 019A     		ldr	r2, [sp, #4]
 169 012c 0132     		adds	r2, r2, #1
 170 012e 0192     		str	r2, [sp, #4]
 171 0130 019A     		ldr	r2, [sp, #4]
 172 0132 B2F5803F 		cmp	r2, #65536
 173 0136 F5D1     		bne	.L27
 174              	.L22:
 175 0138 4FF42053 		mov	r3, #10240
 176 013c C4F20003 		movt	r3, 16384
 177 0140 D868     		ldr	r0, [r3, #12]
 178 0142 10F04000 		ands	r0, r0, #64
 179 0146 08D1     		bne	.L21
 180              	.L24:
 181 0148 4FF42053 		mov	r3, #10240
 182 014c C4F20003 		movt	r3, 16384
 183 0150 FF22     		movs	r2, #255
 184 0152 5A62     		str	r2, [r3, #36]
 185 0154 03B0     		add	sp, sp, #12
 186 0156 10BC     		pop	{r4}
 187 0158 7047     		bx	lr
 188              	.L21:
 189 015a 4FF42053 		mov	r3, #10240
 190 015e C4F20003 		movt	r3, 16384
 191 0162 0120     		movs	r0, #1
 192 0164 9A68     		ldr	r2, [r3, #8]
 193 0166 22F04002 		bic	r2, r2, #64
 194 016a 9A60     		str	r2, [r3, #8]
 195 016c 9968     		ldr	r1, [r3, #8]
 196 016e 2268     		ldr	r2, [r4, #0]
 197 0170 0A43     		orrs	r2, r2, r1
 198 0172 9A60     		str	r2, [r3, #8]
 199 0174 A268     		ldr	r2, [r4, #8]
 200 0176 1A61     		str	r2, [r3, #16]
 201 0178 1A69     		ldr	r2, [r3, #16]
 202 017a 6168     		ldr	r1, [r4, #4]
 203 017c 42EA0142 		orr	r2, r2, r1, lsl #16
 204 0180 1A61     		str	r2, [r3, #16]
 205 0182 DA68     		ldr	r2, [r3, #12]
 206 0184 22F08002 		bic	r2, r2, #128
 207 0188 DA60     		str	r2, [r3, #12]
 208 018a DDE7     		b	.L24
 210              		.align	2
 211              		.global	RTC_StructInit
 212              		.thumb
 213              		.thumb_func
 215              	RTC_StructInit:
 216              		@ args = 0, pretend = 0, frame = 0
 217              		@ frame_needed = 0, uses_anonymous_args = 0
 218              		@ link register save eliminated.
 219 018c 0022     		movs	r2, #0
 220 018e 7F23     		movs	r3, #127
 221 0190 4FF0FF0C 		mov	ip, #255
 222 0194 80E80C10 		stmia	r0, {r2, r3, ip}
 223 0198 7047     		bx	lr
 225 019a 00BF     		.align	2
 226              		.global	RTC_WriteProtectionCmd
 227              		.thumb
 228              		.thumb_func
 230              	RTC_WriteProtectionCmd:
 231              		@ args = 0, pretend = 0, frame = 0
 232              		@ frame_needed = 0, uses_anonymous_args = 0
 233              		@ link register save eliminated.
 234 019c 4FF42053 		mov	r3, #10240
 235 01a0 C4F20003 		movt	r3, 16384
 236 01a4 20B9     		cbnz	r0, .L32
 237 01a6 CA22     		movs	r2, #202
 238 01a8 5A62     		str	r2, [r3, #36]
 239 01aa 5322     		movs	r2, #83
 240 01ac 5A62     		str	r2, [r3, #36]
 241 01ae 7047     		bx	lr
 242              	.L32:
 243 01b0 FF22     		movs	r2, #255
 244 01b2 5A62     		str	r2, [r3, #36]
 245 01b4 7047     		bx	lr
 247 01b6 00BF     		.align	2
 248              		.global	RTC_EnterInitMode
 249              		.thumb
 250              		.thumb_func
 252              	RTC_EnterInitMode:
 253              		@ args = 0, pretend = 0, frame = 8
 254              		@ frame_needed = 0, uses_anonymous_args = 0
 255              		@ link register save eliminated.
 256 01b8 82B0     		sub	sp, sp, #8
 257 01ba 4FF42051 		mov	r1, #10240
 258 01be 0023     		movs	r3, #0
 259 01c0 C4F20001 		movt	r1, 16384
 260 01c4 0193     		str	r3, [sp, #4]
 261 01c6 CB68     		ldr	r3, [r1, #12]
 262 01c8 5B06     		lsls	r3, r3, #25
 263 01ca 16D4     		bmi	.L37
 264 01cc 4FF0FF33 		mov	r3, #-1
 265 01d0 CB60     		str	r3, [r1, #12]
 266 01d2 01E0     		b	.L36
 267              	.L39:
 268 01d4 5006     		lsls	r0, r2, #25
 269 01d6 07D4     		bmi	.L35
 270              	.L36:
 271 01d8 CA68     		ldr	r2, [r1, #12]
 272 01da 019B     		ldr	r3, [sp, #4]
 273 01dc 0133     		adds	r3, r3, #1
 274 01de 0193     		str	r3, [sp, #4]
 275 01e0 019B     		ldr	r3, [sp, #4]
 276 01e2 B3F5803F 		cmp	r3, #65536
 277 01e6 F5D1     		bne	.L39
 278              	.L35:
 279 01e8 4FF42053 		mov	r3, #10240
 280 01ec C4F20003 		movt	r3, 16384
 281 01f0 D868     		ldr	r0, [r3, #12]
 282 01f2 C0F38010 		ubfx	r0, r0, #6, #1
 283              	.L34:
 284 01f6 02B0     		add	sp, sp, #8
 285 01f8 7047     		bx	lr
 286              	.L37:
 287 01fa 0120     		movs	r0, #1
 288 01fc FBE7     		b	.L34
 290 01fe 00BF     		.align	2
 291              		.global	RTC_ExitInitMode
 292              		.thumb
 293              		.thumb_func
 295              	RTC_ExitInitMode:
 296              		@ args = 0, pretend = 0, frame = 0
 297              		@ frame_needed = 0, uses_anonymous_args = 0
 298              		@ link register save eliminated.
 299 0200 4FF42053 		mov	r3, #10240
 300 0204 C4F20003 		movt	r3, 16384
 301 0208 DA68     		ldr	r2, [r3, #12]
 302 020a 22F08002 		bic	r2, r2, #128
 303 020e DA60     		str	r2, [r3, #12]
 304 0210 7047     		bx	lr
 306 0212 00BF     		.align	2
 307              		.global	RTC_WaitForSynchro
 308              		.thumb
 309              		.thumb_func
 311              	RTC_WaitForSynchro:
 312              		@ args = 0, pretend = 0, frame = 8
 313              		@ frame_needed = 0, uses_anonymous_args = 0
 314              		@ link register save eliminated.
 315 0214 82B0     		sub	sp, sp, #8
 316 0216 4FF42051 		mov	r1, #10240
 317 021a C4F20001 		movt	r1, 16384
 318 021e 0023     		movs	r3, #0
 319 0220 0193     		str	r3, [sp, #4]
 320 0222 CA23     		movs	r3, #202
 321 0224 4B62     		str	r3, [r1, #36]
 322 0226 5323     		movs	r3, #83
 323 0228 4B62     		str	r3, [r1, #36]
 324 022a CB68     		ldr	r3, [r1, #12]
 325 022c 23F0A003 		bic	r3, r3, #160
 326 0230 CB60     		str	r3, [r1, #12]
 327 0232 01E0     		b	.L43
 328              	.L45:
 329 0234 9206     		lsls	r2, r2, #26
 330 0236 07D4     		bmi	.L42
 331              	.L43:
 332 0238 CA68     		ldr	r2, [r1, #12]
 333 023a 019B     		ldr	r3, [sp, #4]
 334 023c 0133     		adds	r3, r3, #1
 335 023e 0193     		str	r3, [sp, #4]
 336 0240 019B     		ldr	r3, [sp, #4]
 337 0242 B3F5003F 		cmp	r3, #131072
 338 0246 F5D1     		bne	.L45
 339              	.L42:
 340 0248 4FF42053 		mov	r3, #10240
 341 024c C4F20003 		movt	r3, 16384
 342 0250 FF22     		movs	r2, #255
 343 0252 D868     		ldr	r0, [r3, #12]
 344 0254 5A62     		str	r2, [r3, #36]
 345 0256 C0F34010 		ubfx	r0, r0, #5, #1
 346 025a 02B0     		add	sp, sp, #8
 347 025c 7047     		bx	lr
 349 025e 00BF     		.align	2
 350              		.global	RTC_RefClockCmd
 351              		.thumb
 352              		.thumb_func
 354              	RTC_RefClockCmd:
 355              		@ args = 0, pretend = 0, frame = 8
 356              		@ frame_needed = 0, uses_anonymous_args = 0
 357              		@ link register save eliminated.
 358 0260 4FF42053 		mov	r3, #10240
 359 0264 C4F20003 		movt	r3, 16384
 360 0268 CA22     		movs	r2, #202
 361 026a 5A62     		str	r2, [r3, #36]
 362 026c 82B0     		sub	sp, sp, #8
 363 026e 5322     		movs	r2, #83
 364 0270 5A62     		str	r2, [r3, #36]
 365 0272 0022     		movs	r2, #0
 366 0274 0192     		str	r2, [sp, #4]
 367 0276 DA68     		ldr	r2, [r3, #12]
 368 0278 5206     		lsls	r2, r2, #25
 369 027a 1FD4     		bmi	.L47
 370 027c 4FF0FF32 		mov	r2, #-1
 371 0280 DA60     		str	r2, [r3, #12]
 372 0282 01E0     		b	.L49
 373              	.L55:
 374 0284 4906     		lsls	r1, r1, #25
 375 0286 07D4     		bmi	.L48
 376              	.L49:
 377 0288 D968     		ldr	r1, [r3, #12]
 378 028a 019A     		ldr	r2, [sp, #4]
 379 028c 0132     		adds	r2, r2, #1
 380 028e 0192     		str	r2, [sp, #4]
 381 0290 019A     		ldr	r2, [sp, #4]
 382 0292 B2F5803F 		cmp	r2, #65536
 383 0296 F5D1     		bne	.L55
 384              	.L48:
 385 0298 4FF42053 		mov	r3, #10240
 386 029c C4F20003 		movt	r3, 16384
 387 02a0 DB68     		ldr	r3, [r3, #12]
 388 02a2 13F04003 		ands	r3, r3, #64
 389 02a6 08BF     		it	eq
 390 02a8 1846     		moveq	r0, r3
 391 02aa 07D1     		bne	.L47
 392              	.L50:
 393 02ac 4FF42053 		mov	r3, #10240
 394 02b0 C4F20003 		movt	r3, 16384
 395 02b4 FF22     		movs	r2, #255
 396 02b6 5A62     		str	r2, [r3, #36]
 397 02b8 02B0     		add	sp, sp, #8
 398 02ba 7047     		bx	lr
 399              	.L47:
 400 02bc 4FF42053 		mov	r3, #10240
 401 02c0 C4F20003 		movt	r3, 16384
 402 02c4 9A68     		ldr	r2, [r3, #8]
 403 02c6 60B9     		cbnz	r0, .L56
 404 02c8 22F01002 		bic	r2, r2, #16
 405 02cc 9A60     		str	r2, [r3, #8]
 406              	.L52:
 407 02ce 4FF42053 		mov	r3, #10240
 408 02d2 C4F20003 		movt	r3, 16384
 409 02d6 0120     		movs	r0, #1
 410 02d8 DA68     		ldr	r2, [r3, #12]
 411 02da 22F08002 		bic	r2, r2, #128
 412 02de DA60     		str	r2, [r3, #12]
 413 02e0 E4E7     		b	.L50
 414              	.L56:
 415 02e2 42F01002 		orr	r2, r2, #16
 416 02e6 9A60     		str	r2, [r3, #8]
 417 02e8 F1E7     		b	.L52
 419 02ea 00BF     		.align	2
 420              		.global	RTC_BypassShadowCmd
 421              		.thumb
 422              		.thumb_func
 424              	RTC_BypassShadowCmd:
 425              		@ args = 0, pretend = 0, frame = 0
 426              		@ frame_needed = 0, uses_anonymous_args = 0
 427              		@ link register save eliminated.
 428 02ec 4FF42053 		mov	r3, #10240
 429 02f0 C4F20003 		movt	r3, 16384
 430 02f4 CA22     		movs	r2, #202
 431 02f6 5A62     		str	r2, [r3, #36]
 432 02f8 5322     		movs	r2, #83
 433 02fa 5A62     		str	r2, [r3, #36]
 434 02fc 9A68     		ldr	r2, [r3, #8]
 435 02fe 48B9     		cbnz	r0, .L60
 436 0300 02F0DF02 		and	r2, r2, #223
 437 0304 9A60     		str	r2, [r3, #8]
 438              	.L59:
 439 0306 4FF42053 		mov	r3, #10240
 440 030a C4F20003 		movt	r3, 16384
 441 030e FF22     		movs	r2, #255
 442 0310 5A62     		str	r2, [r3, #36]
 443 0312 7047     		bx	lr
 444              	.L60:
 445 0314 42F02002 		orr	r2, r2, #32
 446 0318 9A60     		str	r2, [r3, #8]
 447 031a F4E7     		b	.L59
 449              		.align	2
 450              		.global	RTC_SetTime
 451              		.thumb
 452              		.thumb_func
 454              	RTC_SetTime:
 455              		@ args = 0, pretend = 0, frame = 8
 456              		@ frame_needed = 0, uses_anonymous_args = 0
 457              		@ link register save eliminated.
 458 031c 30B4     		push	{r4, r5}
 459 031e 4FF42053 		mov	r3, #10240
 460 0322 82B0     		sub	sp, sp, #8
 461 0324 C4F20003 		movt	r3, 16384
 462 0328 0028     		cmp	r0, #0
 463 032a 35D1     		bne	.L62
 464 032c 9C68     		ldr	r4, [r3, #8]
 465 032e 14F04004 		ands	r4, r4, #64
 466 0332 08BF     		it	eq
 467 0334 CC70     		strbeq	r4, [r1, #3]
 468 0336 01D0     		beq	.L64
 469 0338 CC78     		ldrb	r4, [r1, #3]	@ zero_extendqisi2
 470 033a 2404     		lsls	r4, r4, #16
 471              	.L64:
 472 033c 0B78     		ldrb	r3, [r1, #0]	@ zero_extendqisi2
 473 033e 0025     		movs	r5, #0
 474 0340 092B     		cmp	r3, #9
 475 0342 08D9     		bls	.L67
 476 0344 0022     		movs	r2, #0
 477              	.L68:
 478 0346 0A3B     		subs	r3, r3, #10
 479 0348 DBB2     		uxtb	r3, r3
 480 034a 0132     		adds	r2, r2, #1
 481 034c 092B     		cmp	r3, #9
 482 034e D2B2     		uxtb	r2, r2
 483 0350 F9D8     		bhi	.L68
 484 0352 1201     		lsls	r2, r2, #4
 485 0354 D5B2     		uxtb	r5, r2
 486              	.L67:
 487 0356 4A78     		ldrb	r2, [r1, #1]	@ zero_extendqisi2
 488 0358 2B43     		orrs	r3, r3, r5
 489 035a 1D04     		lsls	r5, r3, #16
 490 035c 0020     		movs	r0, #0
 491 035e 092A     		cmp	r2, #9
 492 0360 07D9     		bls	.L69
 493              	.L70:
 494 0362 0A3A     		subs	r2, r2, #10
 495 0364 D2B2     		uxtb	r2, r2
 496 0366 0130     		adds	r0, r0, #1
 497 0368 092A     		cmp	r2, #9
 498 036a C0B2     		uxtb	r0, r0
 499 036c F9D8     		bhi	.L70
 500 036e 0001     		lsls	r0, r0, #4
 501 0370 C0B2     		uxtb	r0, r0
 502              	.L69:
 503 0372 8B78     		ldrb	r3, [r1, #2]	@ zero_extendqisi2
 504 0374 0243     		orrs	r2, r2, r0
 505 0376 1202     		lsls	r2, r2, #8
 506 0378 0021     		movs	r1, #0
 507 037a 092B     		cmp	r3, #9
 508 037c 07D9     		bls	.L71
 509              	.L72:
 510 037e 0A3B     		subs	r3, r3, #10
 511 0380 DBB2     		uxtb	r3, r3
 512 0382 0131     		adds	r1, r1, #1
 513 0384 092B     		cmp	r3, #9
 514 0386 C9B2     		uxtb	r1, r1
 515 0388 F9D8     		bhi	.L72
 516 038a 0901     		lsls	r1, r1, #4
 517 038c C9B2     		uxtb	r1, r1
 518              	.L71:
 519 038e 2C43     		orrs	r4, r4, r5
 520 0390 1443     		orrs	r4, r4, r2
 521 0392 0B43     		orrs	r3, r3, r1
 522 0394 2343     		orrs	r3, r3, r4
 523 0396 0DE0     		b	.L80
 524              	.L62:
 525 0398 9B68     		ldr	r3, [r3, #8]
 526 039a 13F04003 		ands	r3, r3, #64
 527 039e 08BF     		it	eq
 528 03a0 CB70     		strbeq	r3, [r1, #3]
 529 03a2 33D1     		bne	.L90
 530              	.L66:
 531 03a4 4A78     		ldrb	r2, [r1, #1]	@ zero_extendqisi2
 532 03a6 0878     		ldrb	r0, [r1, #0]	@ zero_extendqisi2
 533 03a8 8978     		ldrb	r1, [r1, #2]	@ zero_extendqisi2
 534 03aa 1202     		lsls	r2, r2, #8
 535 03ac 42EA0042 		orr	r2, r2, r0, lsl #16
 536 03b0 0A43     		orrs	r2, r2, r1
 537 03b2 1343     		orrs	r3, r3, r2
 538              	.L80:
 539 03b4 4FF42050 		mov	r0, #10240
 540 03b8 C4F20000 		movt	r0, 16384
 541 03bc CA22     		movs	r2, #202
 542 03be 4262     		str	r2, [r0, #36]
 543 03c0 5322     		movs	r2, #83
 544 03c2 4262     		str	r2, [r0, #36]
 545 03c4 0022     		movs	r2, #0
 546 03c6 0192     		str	r2, [sp, #4]
 547 03c8 C268     		ldr	r2, [r0, #12]
 548 03ca 5106     		lsls	r1, r2, #25
 549 03cc 21D4     		bmi	.L73
 550 03ce 4FF0FF32 		mov	r2, #-1
 551 03d2 C260     		str	r2, [r0, #12]
 552 03d4 01E0     		b	.L75
 553              	.L91:
 554 03d6 4A06     		lsls	r2, r1, #25
 555 03d8 07D4     		bmi	.L74
 556              	.L75:
 557 03da C168     		ldr	r1, [r0, #12]
 558 03dc 019A     		ldr	r2, [sp, #4]
 559 03de 0132     		adds	r2, r2, #1
 560 03e0 0192     		str	r2, [sp, #4]
 561 03e2 019A     		ldr	r2, [sp, #4]
 562 03e4 B2F5803F 		cmp	r2, #65536
 563 03e8 F5D1     		bne	.L91
 564              	.L74:
 565 03ea 4FF42052 		mov	r2, #10240
 566 03ee C4F20002 		movt	r2, 16384
 567 03f2 D068     		ldr	r0, [r2, #12]
 568 03f4 10F04000 		ands	r0, r0, #64
 569 03f8 0BD1     		bne	.L73
 570              	.L76:
 571 03fa 4FF42053 		mov	r3, #10240
 572 03fe C4F20003 		movt	r3, 16384
 573 0402 FF22     		movs	r2, #255
 574 0404 5A62     		str	r2, [r3, #36]
 575 0406 02B0     		add	sp, sp, #8
 576 0408 30BC     		pop	{r4, r5}
 577 040a 7047     		bx	lr
 578              	.L90:
 579 040c CB78     		ldrb	r3, [r1, #3]	@ zero_extendqisi2
 580 040e 1B04     		lsls	r3, r3, #16
 581 0410 C8E7     		b	.L66
 582              	.L73:
 583 0412 4FF42051 		mov	r1, #10240
 584 0416 C4F20001 		movt	r1, 16384
 585 041a 03F07F33 		and	r3, r3, #2139062143
 586 041e 23F0FE43 		bic	r3, r3, #2130706432
 587 0422 0B60     		str	r3, [r1, #0]
 588 0424 CB68     		ldr	r3, [r1, #12]
 589 0426 23F08003 		bic	r3, r3, #128
 590 042a CB60     		str	r3, [r1, #12]
 591 042c 0023     		movs	r3, #0
 592 042e 0193     		str	r3, [sp, #4]
 593 0430 CA23     		movs	r3, #202
 594 0432 4B62     		str	r3, [r1, #36]
 595 0434 5323     		movs	r3, #83
 596 0436 4B62     		str	r3, [r1, #36]
 597 0438 CB68     		ldr	r3, [r1, #12]
 598 043a 23F0A003 		bic	r3, r3, #160
 599 043e CB60     		str	r3, [r1, #12]
 600 0440 01E0     		b	.L78
 601              	.L92:
 602 0442 9006     		lsls	r0, r2, #26
 603 0444 07D4     		bmi	.L77
 604              	.L78:
 605 0446 CA68     		ldr	r2, [r1, #12]
 606 0448 019B     		ldr	r3, [sp, #4]
 607 044a 0133     		adds	r3, r3, #1
 608 044c 0193     		str	r3, [sp, #4]
 609 044e 019B     		ldr	r3, [sp, #4]
 610 0450 B3F5003F 		cmp	r3, #131072
 611 0454 F5D1     		bne	.L92
 612              	.L77:
 613 0456 4FF42053 		mov	r3, #10240
 614 045a C4F20003 		movt	r3, 16384
 615 045e FF22     		movs	r2, #255
 616 0460 D868     		ldr	r0, [r3, #12]
 617 0462 5A62     		str	r2, [r3, #36]
 618 0464 10F02000 		ands	r0, r0, #32
 619 0468 18BF     		it	ne
 620 046a 0120     		movne	r0, #1
 621 046c C5E7     		b	.L76
 623 046e 00BF     		.align	2
 624              		.global	RTC_TimeStructInit
 625              		.thumb
 626              		.thumb_func
 628              	RTC_TimeStructInit:
 629              		@ args = 0, pretend = 0, frame = 0
 630              		@ frame_needed = 0, uses_anonymous_args = 0
 631              		@ link register save eliminated.
 632 0470 0023     		movs	r3, #0
 633 0472 C370     		strb	r3, [r0, #3]
 634 0474 0370     		strb	r3, [r0, #0]
 635 0476 4370     		strb	r3, [r0, #1]
 636 0478 8370     		strb	r3, [r0, #2]
 637 047a 7047     		bx	lr
 639              		.align	2
 640              		.global	RTC_GetTime
 641              		.thumb
 642              		.thumb_func
 644              	RTC_GetTime:
 645              		@ args = 0, pretend = 0, frame = 0
 646              		@ frame_needed = 0, uses_anonymous_args = 0
 647              		@ link register save eliminated.
 648 047c 4FF42053 		mov	r3, #10240
 649 0480 C4F20003 		movt	r3, 16384
 650 0484 70B4     		push	{r4, r5, r6}
 651 0486 1B68     		ldr	r3, [r3, #0]
 652 0488 03F48005 		and	r5, r3, #4194304
 653 048c C3F30544 		ubfx	r4, r3, #16, #6
 654 0490 C3F30622 		ubfx	r2, r3, #8, #7
 655 0494 2D0C     		lsrs	r5, r5, #16
 656 0496 03F07F03 		and	r3, r3, #127
 657 049a 0C70     		strb	r4, [r1, #0]
 658 049c 4A70     		strb	r2, [r1, #1]
 659 049e 8B70     		strb	r3, [r1, #2]
 660 04a0 CD70     		strb	r5, [r1, #3]
 661 04a2 B8B9     		cbnz	r0, .L94
 662 04a4 2609     		lsrs	r6, r4, #4
 663 04a6 1509     		lsrs	r5, r2, #4
 664 04a8 1809     		lsrs	r0, r3, #4
 665 04aa 06EB8606 		add	r6, r6, r6, lsl #2
 666 04ae 04F00F04 		and	r4, r4, #15
 667 04b2 05EB8505 		add	r5, r5, r5, lsl #2
 668 04b6 02F00F02 		and	r2, r2, #15
 669 04ba 00EB8000 		add	r0, r0, r0, lsl #2
 670 04be 03F00F03 		and	r3, r3, #15
 671 04c2 04EB4606 		add	r6, r4, r6, lsl #1
 672 04c6 02EB4505 		add	r5, r2, r5, lsl #1
 673 04ca 03EB4003 		add	r3, r3, r0, lsl #1
 674 04ce 0E70     		strb	r6, [r1, #0]
 675 04d0 4D70     		strb	r5, [r1, #1]
 676 04d2 8B70     		strb	r3, [r1, #2]
 677              	.L94:
 678 04d4 70BC     		pop	{r4, r5, r6}
 679 04d6 7047     		bx	lr
 681              		.align	2
 682              		.global	RTC_GetSubSecond
 683              		.thumb
 684              		.thumb_func
 686              	RTC_GetSubSecond:
 687              		@ args = 0, pretend = 0, frame = 0
 688              		@ frame_needed = 0, uses_anonymous_args = 0
 689              		@ link register save eliminated.
 690 04d8 4FF42053 		mov	r3, #10240
 691 04dc C4F20003 		movt	r3, 16384
 692 04e0 986A     		ldr	r0, [r3, #40]
 693 04e2 5B68     		ldr	r3, [r3, #4]
 694 04e4 7047     		bx	lr
 696 04e6 00BF     		.align	2
 697              		.global	RTC_SetDate
 698              		.thumb
 699              		.thumb_func
 701              	RTC_SetDate:
 702              		@ args = 0, pretend = 0, frame = 8
 703              		@ frame_needed = 0, uses_anonymous_args = 0
 704              		@ link register save eliminated.
 705 04e8 30B4     		push	{r4, r5}
 706 04ea 82B0     		sub	sp, sp, #8
 707 04ec 0028     		cmp	r0, #0
 708 04ee 62D1     		bne	.L98
 709 04f0 4B78     		ldrb	r3, [r1, #1]	@ zero_extendqisi2
 710 04f2 D806     		lsls	r0, r3, #27
 711 04f4 04D5     		bpl	.L99
 712 04f6 03F0EF03 		and	r3, r3, #239
 713 04fa 0A33     		adds	r3, r3, #10
 714 04fc DBB2     		uxtb	r3, r3
 715 04fe 4B70     		strb	r3, [r1, #1]
 716              	.L99:
 717 0500 CA78     		ldrb	r2, [r1, #3]	@ zero_extendqisi2
 718 0502 0020     		movs	r0, #0
 719 0504 092A     		cmp	r2, #9
 720 0506 07D9     		bls	.L113
 721              	.L101:
 722 0508 0A3A     		subs	r2, r2, #10
 723 050a D2B2     		uxtb	r2, r2
 724 050c 0130     		adds	r0, r0, #1
 725 050e 092A     		cmp	r2, #9
 726 0510 C0B2     		uxtb	r0, r0
 727 0512 F9D8     		bhi	.L101
 728 0514 0001     		lsls	r0, r0, #4
 729 0516 C0B2     		uxtb	r0, r0
 730              	.L113:
 731 0518 0243     		orrs	r2, r2, r0
 732 051a 1204     		lsls	r2, r2, #16
 733 051c 0024     		movs	r4, #0
 734 051e 092B     		cmp	r3, #9
 735 0520 08D9     		bls	.L102
 736 0522 0020     		movs	r0, #0
 737              	.L103:
 738 0524 0A3B     		subs	r3, r3, #10
 739 0526 DBB2     		uxtb	r3, r3
 740 0528 0130     		adds	r0, r0, #1
 741 052a 092B     		cmp	r3, #9
 742 052c C0B2     		uxtb	r0, r0
 743 052e F9D8     		bhi	.L103
 744 0530 0001     		lsls	r0, r0, #4
 745 0532 C4B2     		uxtb	r4, r0
 746              	.L102:
 747 0534 8878     		ldrb	r0, [r1, #2]	@ zero_extendqisi2
 748 0536 2343     		orrs	r3, r3, r4
 749 0538 1B02     		lsls	r3, r3, #8
 750 053a 0025     		movs	r5, #0
 751 053c 0928     		cmp	r0, #9
 752 053e 08D9     		bls	.L104
 753 0540 0024     		movs	r4, #0
 754              	.L105:
 755 0542 0A38     		subs	r0, r0, #10
 756 0544 C0B2     		uxtb	r0, r0
 757 0546 0134     		adds	r4, r4, #1
 758 0548 0928     		cmp	r0, #9
 759 054a E4B2     		uxtb	r4, r4
 760 054c F9D8     		bhi	.L105
 761 054e 2401     		lsls	r4, r4, #4
 762 0550 E5B2     		uxtb	r5, r4
 763              	.L104:
 764 0552 0C78     		ldrb	r4, [r1, #0]	@ zero_extendqisi2
 765 0554 42EA4434 		orr	r4, r2, r4, lsl #13
 766 0558 1C43     		orrs	r4, r4, r3
 767 055a 2843     		orrs	r0, r0, r5
 768 055c 0443     		orrs	r4, r4, r0
 769              	.L100:
 770 055e 4FF42051 		mov	r1, #10240
 771 0562 C4F20001 		movt	r1, 16384
 772 0566 CA23     		movs	r3, #202
 773 0568 4B62     		str	r3, [r1, #36]
 774 056a 5323     		movs	r3, #83
 775 056c 4B62     		str	r3, [r1, #36]
 776 056e 0023     		movs	r3, #0
 777 0570 0193     		str	r3, [sp, #4]
 778 0572 CB68     		ldr	r3, [r1, #12]
 779 0574 5A06     		lsls	r2, r3, #25
 780 0576 29D4     		bmi	.L106
 781 0578 4FF0FF33 		mov	r3, #-1
 782 057c CB60     		str	r3, [r1, #12]
 783 057e 01E0     		b	.L108
 784              	.L123:
 785 0580 5306     		lsls	r3, r2, #25
 786 0582 07D4     		bmi	.L107
 787              	.L108:
 788 0584 CA68     		ldr	r2, [r1, #12]
 789 0586 019B     		ldr	r3, [sp, #4]
 790 0588 0133     		adds	r3, r3, #1
 791 058a 0193     		str	r3, [sp, #4]
 792 058c 019B     		ldr	r3, [sp, #4]
 793 058e B3F5803F 		cmp	r3, #65536
 794 0592 F5D1     		bne	.L123
 795              	.L107:
 796 0594 4FF42053 		mov	r3, #10240
 797 0598 C4F20003 		movt	r3, 16384
 798 059c D868     		ldr	r0, [r3, #12]
 799 059e 10F04000 		ands	r0, r0, #64
 800 05a2 13D1     		bne	.L106
 801              	.L109:
 802 05a4 4FF42053 		mov	r3, #10240
 803 05a8 C4F20003 		movt	r3, 16384
 804 05ac FF22     		movs	r2, #255
 805 05ae 5A62     		str	r2, [r3, #36]
 806 05b0 02B0     		add	sp, sp, #8
 807 05b2 30BC     		pop	{r4, r5}
 808 05b4 7047     		bx	lr
 809              	.L98:
 810 05b6 4C78     		ldrb	r4, [r1, #1]	@ zero_extendqisi2
 811 05b8 CA78     		ldrb	r2, [r1, #3]	@ zero_extendqisi2
 812 05ba 8B78     		ldrb	r3, [r1, #2]	@ zero_extendqisi2
 813 05bc 0878     		ldrb	r0, [r1, #0]	@ zero_extendqisi2
 814 05be 2402     		lsls	r4, r4, #8
 815 05c0 44EA0244 		orr	r4, r4, r2, lsl #16
 816 05c4 1C43     		orrs	r4, r4, r3
 817 05c6 44EA4034 		orr	r4, r4, r0, lsl #13
 818 05ca C8E7     		b	.L100
 819              	.L106:
 820 05cc 4FF42051 		mov	r1, #10240
 821 05d0 C4F20001 		movt	r1, 16384
 822 05d4 24F07F44 		bic	r4, r4, #-16777216
 823 05d8 24F0C004 		bic	r4, r4, #192
 824 05dc 4C60     		str	r4, [r1, #4]
 825 05de CB68     		ldr	r3, [r1, #12]
 826 05e0 23F08003 		bic	r3, r3, #128
 827 05e4 CB60     		str	r3, [r1, #12]
 828 05e6 0023     		movs	r3, #0
 829 05e8 0193     		str	r3, [sp, #4]
 830 05ea CA23     		movs	r3, #202
 831 05ec 4B62     		str	r3, [r1, #36]
 832 05ee 5323     		movs	r3, #83
 833 05f0 4B62     		str	r3, [r1, #36]
 834 05f2 CB68     		ldr	r3, [r1, #12]
 835 05f4 23F0A003 		bic	r3, r3, #160
 836 05f8 CB60     		str	r3, [r1, #12]
 837 05fa 01E0     		b	.L111
 838              	.L124:
 839 05fc 9006     		lsls	r0, r2, #26
 840 05fe 07D4     		bmi	.L110
 841              	.L111:
 842 0600 CA68     		ldr	r2, [r1, #12]
 843 0602 019B     		ldr	r3, [sp, #4]
 844 0604 0133     		adds	r3, r3, #1
 845 0606 0193     		str	r3, [sp, #4]
 846 0608 019B     		ldr	r3, [sp, #4]
 847 060a B3F5003F 		cmp	r3, #131072
 848 060e F5D1     		bne	.L124
 849              	.L110:
 850 0610 4FF42053 		mov	r3, #10240
 851 0614 C4F20003 		movt	r3, 16384
 852 0618 FF22     		movs	r2, #255
 853 061a D868     		ldr	r0, [r3, #12]
 854 061c 5A62     		str	r2, [r3, #36]
 855 061e 10F02000 		ands	r0, r0, #32
 856 0622 18BF     		it	ne
 857 0624 0120     		movne	r0, #1
 858 0626 BDE7     		b	.L109
 860              		.align	2
 861              		.global	RTC_DateStructInit
 862              		.thumb
 863              		.thumb_func
 865              	RTC_DateStructInit:
 866              		@ args = 0, pretend = 0, frame = 0
 867              		@ frame_needed = 0, uses_anonymous_args = 0
 868              		@ link register save eliminated.
 869 0628 0123     		movs	r3, #1
 870 062a 0370     		strb	r3, [r0, #0]
 871 062c 8370     		strb	r3, [r0, #2]
 872 062e 4370     		strb	r3, [r0, #1]
 873 0630 0023     		movs	r3, #0
 874 0632 C370     		strb	r3, [r0, #3]
 875 0634 7047     		bx	lr
 877 0636 00BF     		.align	2
 878              		.global	RTC_GetDate
 879              		.thumb
 880              		.thumb_func
 882              	RTC_GetDate:
 883              		@ args = 0, pretend = 0, frame = 0
 884              		@ frame_needed = 0, uses_anonymous_args = 0
 885              		@ link register save eliminated.
 886 0638 4FF42053 		mov	r3, #10240
 887 063c C4F20003 		movt	r3, 16384
 888 0640 F0B4     		push	{r4, r5, r6, r7}
 889 0642 5B68     		ldr	r3, [r3, #4]
 890 0644 C3F30745 		ubfx	r5, r3, #16, #8
 891 0648 C3F30424 		ubfx	r4, r3, #8, #5
 892 064c 03F03F02 		and	r2, r3, #63
 893 0650 C3F34233 		ubfx	r3, r3, #13, #3
 894 0654 CD70     		strb	r5, [r1, #3]
 895 0656 4C70     		strb	r4, [r1, #1]
 896 0658 8A70     		strb	r2, [r1, #2]
 897 065a 0B70     		strb	r3, [r1, #0]
 898 065c B8B9     		cbnz	r0, .L126
 899 065e 2009     		lsrs	r0, r4, #4
 900 0660 2E09     		lsrs	r6, r5, #4
 901 0662 1309     		lsrs	r3, r2, #4
 902 0664 8700     		lsls	r7, r0, #2
 903 0666 06EB8606 		add	r6, r6, r6, lsl #2
 904 066a 05F00F05 		and	r5, r5, #15
 905 066e 3818     		adds	r0, r7, r0
 906 0670 04F00F04 		and	r4, r4, #15
 907 0674 03EB8303 		add	r3, r3, r3, lsl #2
 908 0678 02F00F02 		and	r2, r2, #15
 909 067c 05EB4606 		add	r6, r5, r6, lsl #1
 910 0680 04EB4000 		add	r0, r4, r0, lsl #1
 911 0684 02EB4303 		add	r3, r2, r3, lsl #1
 912 0688 CE70     		strb	r6, [r1, #3]
 913 068a 4870     		strb	r0, [r1, #1]
 914 068c 8B70     		strb	r3, [r1, #2]
 915              	.L126:
 916 068e F0BC     		pop	{r4, r5, r6, r7}
 917 0690 7047     		bx	lr
 919 0692 00BF     		.align	2
 920              		.global	RTC_SetAlarm
 921              		.thumb
 922              		.thumb_func
 924              	RTC_SetAlarm:
 925              		@ args = 0, pretend = 0, frame = 0
 926              		@ frame_needed = 0, uses_anonymous_args = 0
 927              		@ link register save eliminated.
 928 0694 4FF42053 		mov	r3, #10240
 929 0698 F0B4     		push	{r4, r5, r6, r7}
 930 069a C4F20003 		movt	r3, 16384
 931 069e 0028     		cmp	r0, #0
 932 06a0 4AD1     		bne	.L129
 933 06a2 9D68     		ldr	r5, [r3, #8]
 934 06a4 15F04005 		ands	r5, r5, #64
 935 06a8 08BF     		it	eq
 936 06aa D570     		strbeq	r5, [r2, #3]
 937 06ac 01D0     		beq	.L131
 938 06ae D578     		ldrb	r5, [r2, #3]	@ zero_extendqisi2
 939 06b0 2D04     		lsls	r5, r5, #16
 940              	.L131:
 941 06b2 1078     		ldrb	r0, [r2, #0]	@ zero_extendqisi2
 942 06b4 0026     		movs	r6, #0
 943 06b6 0928     		cmp	r0, #9
 944 06b8 08D9     		bls	.L134
 945 06ba 0023     		movs	r3, #0
 946              	.L135:
 947 06bc 0A38     		subs	r0, r0, #10
 948 06be C0B2     		uxtb	r0, r0
 949 06c0 0133     		adds	r3, r3, #1
 950 06c2 0928     		cmp	r0, #9
 951 06c4 DBB2     		uxtb	r3, r3
 952 06c6 F9D8     		bhi	.L135
 953 06c8 1B01     		lsls	r3, r3, #4
 954 06ca DEB2     		uxtb	r6, r3
 955              	.L134:
 956 06cc 5378     		ldrb	r3, [r2, #1]	@ zero_extendqisi2
 957 06ce 3043     		orrs	r0, r0, r6
 958 06d0 0604     		lsls	r6, r0, #16
 959 06d2 0024     		movs	r4, #0
 960 06d4 092B     		cmp	r3, #9
 961 06d6 07D9     		bls	.L136
 962              	.L137:
 963 06d8 0A3B     		subs	r3, r3, #10
 964 06da DBB2     		uxtb	r3, r3
 965 06dc 0134     		adds	r4, r4, #1
 966 06de 092B     		cmp	r3, #9
 967 06e0 E4B2     		uxtb	r4, r4
 968 06e2 F9D8     		bhi	.L137
 969 06e4 2401     		lsls	r4, r4, #4
 970 06e6 E4B2     		uxtb	r4, r4
 971              	.L136:
 972 06e8 9078     		ldrb	r0, [r2, #2]	@ zero_extendqisi2
 973 06ea 2343     		orrs	r3, r3, r4
 974 06ec 1F02     		lsls	r7, r3, #8
 975 06ee 0024     		movs	r4, #0
 976 06f0 0928     		cmp	r0, #9
 977 06f2 07D9     		bls	.L138
 978              	.L139:
 979 06f4 0A38     		subs	r0, r0, #10
 980 06f6 C0B2     		uxtb	r0, r0
 981 06f8 0134     		adds	r4, r4, #1
 982 06fa 0928     		cmp	r0, #9
 983 06fc E4B2     		uxtb	r4, r4
 984 06fe F9D8     		bhi	.L139
 985 0700 2401     		lsls	r4, r4, #4
 986 0702 E4B2     		uxtb	r4, r4
 987              	.L138:
 988 0704 137B     		ldrb	r3, [r2, #12]	@ zero_extendqisi2
 989 0706 2043     		orrs	r0, r0, r4
 990 0708 0024     		movs	r4, #0
 991 070a 092B     		cmp	r3, #9
 992 070c 07D9     		bls	.L140
 993              	.L141:
 994 070e 0A3B     		subs	r3, r3, #10
 995 0710 DBB2     		uxtb	r3, r3
 996 0712 0134     		adds	r4, r4, #1
 997 0714 092B     		cmp	r3, #9
 998 0716 E4B2     		uxtb	r4, r4
 999 0718 F9D8     		bhi	.L141
 1000 071a 2401     		lsls	r4, r4, #4
 1001 071c E4B2     		uxtb	r4, r4
 1002              	.L140:
 1003 071e D2F804C0 		ldr	ip, [r2, #4]
 1004 0722 9268     		ldr	r2, [r2, #8]
 1005 0724 4CEA0202 		orr	r2, ip, r2
 1006 0728 1543     		orrs	r5, r5, r2
 1007 072a 2E43     		orrs	r6, r6, r5
 1008 072c 3743     		orrs	r7, r7, r6
 1009 072e 3843     		orrs	r0, r0, r7
 1010 0730 2343     		orrs	r3, r3, r4
 1011 0732 40EA0363 		orr	r3, r0, r3, lsl #24
 1012 0736 16E0     		b	.L144
 1013              	.L129:
 1014 0738 9B68     		ldr	r3, [r3, #8]
 1015 073a 13F04003 		ands	r3, r3, #64
 1016 073e 08BF     		it	eq
 1017 0740 D370     		strbeq	r3, [r2, #3]
 1018 0742 25D1     		bne	.L153
 1019              	.L133:
 1020 0744 D2F804C0 		ldr	ip, [r2, #4]
 1021 0748 9768     		ldr	r7, [r2, #8]
 1022 074a 9678     		ldrb	r6, [r2, #2]	@ zero_extendqisi2
 1023 074c 1578     		ldrb	r5, [r2, #0]	@ zero_extendqisi2
 1024 074e 5478     		ldrb	r4, [r2, #1]	@ zero_extendqisi2
 1025 0750 107B     		ldrb	r0, [r2, #12]	@ zero_extendqisi2
 1026 0752 4CEA0702 		orr	r2, ip, r7
 1027 0756 3243     		orrs	r2, r2, r6
 1028 0758 42EA0542 		orr	r2, r2, r5, lsl #16
 1029 075c 42EA0422 		orr	r2, r2, r4, lsl #8
 1030 0760 42EA0062 		orr	r2, r2, r0, lsl #24
 1031 0764 1343     		orrs	r3, r3, r2
 1032              	.L144:
 1033 0766 4FF42052 		mov	r2, #10240
 1034 076a C4F20002 		movt	r2, 16384
 1035 076e CA24     		movs	r4, #202
 1036 0770 5462     		str	r4, [r2, #36]
 1037 0772 5324     		movs	r4, #83
 1038 0774 B1F5807F 		cmp	r1, #256
 1039 0778 5462     		str	r4, [r2, #36]
 1040 077a 0CBF     		ite	eq
 1041 077c D361     		streq	r3, [r2, #28]
 1042 077e 1362     		strne	r3, [r2, #32]
 1043 0780 4FF42053 		mov	r3, #10240
 1044 0784 C4F20003 		movt	r3, 16384
 1045 0788 FF22     		movs	r2, #255
 1046 078a 5A62     		str	r2, [r3, #36]
 1047 078c F0BC     		pop	{r4, r5, r6, r7}
 1048 078e 7047     		bx	lr
 1049              	.L153:
 1050 0790 D378     		ldrb	r3, [r2, #3]	@ zero_extendqisi2
 1051 0792 1B04     		lsls	r3, r3, #16
 1052 0794 D6E7     		b	.L133
 1054 0796 00BF     		.align	2
 1055              		.global	RTC_AlarmStructInit
 1056              		.thumb
 1057              		.thumb_func
 1059              	RTC_AlarmStructInit:
 1060              		@ args = 0, pretend = 0, frame = 0
 1061              		@ frame_needed = 0, uses_anonymous_args = 0
 1062              		@ link register save eliminated.
 1063 0798 0023     		movs	r3, #0
 1064 079a 0122     		movs	r2, #1
 1065 079c C370     		strb	r3, [r0, #3]
 1066 079e 0370     		strb	r3, [r0, #0]
 1067 07a0 4370     		strb	r3, [r0, #1]
 1068 07a2 8370     		strb	r3, [r0, #2]
 1069 07a4 8360     		str	r3, [r0, #8]
 1070 07a6 0273     		strb	r2, [r0, #12]
 1071 07a8 4360     		str	r3, [r0, #4]
 1072 07aa 7047     		bx	lr
 1074              		.align	2
 1075              		.global	RTC_GetAlarm
 1076              		.thumb
 1077              		.thumb_func
 1079              	RTC_GetAlarm:
 1080              		@ args = 0, pretend = 0, frame = 0
 1081              		@ frame_needed = 0, uses_anonymous_args = 0
 1082              		@ link register save eliminated.
 1083 07ac 4FF42053 		mov	r3, #10240
 1084 07b0 C4F20003 		movt	r3, 16384
 1085 07b4 B1F5807F 		cmp	r1, #256
 1086 07b8 0CBF     		ite	eq
 1087 07ba DB69     		ldreq	r3, [r3, #28]
 1088 07bc 1B6A     		ldrne	r3, [r3, #32]
 1089 07be 03F4800C 		and	ip, r3, #4194304
 1090 07c2 F0B4     		push	{r4, r5, r6, r7}
 1091 07c4 C3F30561 		ubfx	r1, r3, #24, #6
 1092 07c8 C3F30546 		ubfx	r6, r3, #16, #6
 1093 07cc C3F30625 		ubfx	r5, r3, #8, #7
 1094 07d0 03F07F04 		and	r4, r3, #127
 1095 07d4 03F08047 		and	r7, r3, #1073741824
 1096 07d8 4FEA1C4C 		lsr	ip, ip, #16
 1097 07dc 03F08033 		and	r3, r3, #-2139062144
 1098 07e0 1670     		strb	r6, [r2, #0]
 1099 07e2 5570     		strb	r5, [r2, #1]
 1100 07e4 9470     		strb	r4, [r2, #2]
 1101 07e6 82F803C0 		strb	ip, [r2, #3]
 1102 07ea 1173     		strb	r1, [r2, #12]
 1103 07ec 9760     		str	r7, [r2, #8]
 1104 07ee 5360     		str	r3, [r2, #4]
 1105 07f0 08BB     		cbnz	r0, .L155
 1106 07f2 4FEA161C 		lsr	ip, r6, #4
 1107 07f6 2F09     		lsrs	r7, r5, #4
 1108 07f8 2009     		lsrs	r0, r4, #4
 1109 07fa 0B09     		lsrs	r3, r1, #4
 1110 07fc 0CEB8C0C 		add	ip, ip, ip, lsl #2
 1111 0800 06F00F06 		and	r6, r6, #15
 1112 0804 07EB8707 		add	r7, r7, r7, lsl #2
 1113 0808 05F00F05 		and	r5, r5, #15
 1114 080c 00EB8000 		add	r0, r0, r0, lsl #2
 1115 0810 04F00F04 		and	r4, r4, #15
 1116 0814 03EB8303 		add	r3, r3, r3, lsl #2
 1117 0818 01F00F01 		and	r1, r1, #15
 1118 081c 06EB4C0C 		add	ip, r6, ip, lsl #1
 1119 0820 05EB4707 		add	r7, r5, r7, lsl #1
 1120 0824 04EB4000 		add	r0, r4, r0, lsl #1
 1121 0828 01EB4303 		add	r3, r1, r3, lsl #1
 1122 082c 82F800C0 		strb	ip, [r2, #0]
 1123 0830 5770     		strb	r7, [r2, #1]
 1124 0832 9070     		strb	r0, [r2, #2]
 1125 0834 1373     		strb	r3, [r2, #12]
 1126              	.L155:
 1127 0836 F0BC     		pop	{r4, r5, r6, r7}
 1128 0838 7047     		bx	lr
 1130 083a 00BF     		.align	2
 1131              		.global	RTC_AlarmCmd
 1132              		.thumb
 1133              		.thumb_func
 1135              	RTC_AlarmCmd:
 1136              		@ args = 0, pretend = 0, frame = 8
 1137              		@ frame_needed = 0, uses_anonymous_args = 0
 1138              		@ link register save eliminated.
 1139 083c 82B0     		sub	sp, sp, #8
 1140 083e 4FF42053 		mov	r3, #10240
 1141 0842 C4F20003 		movt	r3, 16384
 1142 0846 0022     		movs	r2, #0
 1143 0848 0192     		str	r2, [sp, #4]
 1144 084a CA22     		movs	r2, #202
 1145 084c 5A62     		str	r2, [r3, #36]
 1146 084e 5322     		movs	r2, #83
 1147 0850 5A62     		str	r2, [r3, #36]
 1148 0852 9A68     		ldr	r2, [r3, #8]
 1149 0854 F1B9     		cbnz	r1, .L166
 1150 0856 22EA0002 		bic	r2, r2, r0
 1151 085a 9A60     		str	r2, [r3, #8]
 1152 085c 000A     		lsrs	r0, r0, #8
 1153 085e 01E0     		b	.L163
 1154              	.L167:
 1155 0860 0842     		tst	r0, r1
 1156 0862 07D1     		bne	.L162
 1157              	.L163:
 1158 0864 D968     		ldr	r1, [r3, #12]
 1159 0866 019A     		ldr	r2, [sp, #4]
 1160 0868 0132     		adds	r2, r2, #1
 1161 086a 0192     		str	r2, [sp, #4]
 1162 086c 019A     		ldr	r2, [sp, #4]
 1163 086e B2F5803F 		cmp	r2, #65536
 1164 0872 F5D1     		bne	.L167
 1165              	.L162:
 1166 0874 4FF42053 		mov	r3, #10240
 1167 0878 C4F20003 		movt	r3, 16384
 1168 087c DB68     		ldr	r3, [r3, #12]
 1169 087e 1840     		ands	r0, r0, r3
 1170 0880 18BF     		it	ne
 1171 0882 0120     		movne	r0, #1
 1172              	.L161:
 1173 0884 4FF42053 		mov	r3, #10240
 1174 0888 C4F20003 		movt	r3, 16384
 1175 088c FF22     		movs	r2, #255
 1176 088e 5A62     		str	r2, [r3, #36]
 1177 0890 02B0     		add	sp, sp, #8
 1178 0892 7047     		bx	lr
 1179              	.L166:
 1180 0894 1043     		orrs	r0, r0, r2
 1181 0896 9860     		str	r0, [r3, #8]
 1182 0898 0120     		movs	r0, #1
 1183 089a F3E7     		b	.L161
 1185              		.align	2
 1186              		.global	RTC_AlarmSubSecondConfig
 1187              		.thumb
 1188              		.thumb_func
 1190              	RTC_AlarmSubSecondConfig:
 1191              		@ args = 0, pretend = 0, frame = 0
 1192              		@ frame_needed = 0, uses_anonymous_args = 0
 1193              		@ link register save eliminated.
 1194 089c 4FF42053 		mov	r3, #10240
 1195 08a0 C4F20003 		movt	r3, 16384
 1196 08a4 10B4     		push	{r4}
 1197 08a6 CA24     		movs	r4, #202
 1198 08a8 5C62     		str	r4, [r3, #36]
 1199 08aa 0A43     		orrs	r2, r2, r1
 1200 08ac 5324     		movs	r4, #83
 1201 08ae B0F5807F 		cmp	r0, #256
 1202 08b2 5C62     		str	r4, [r3, #36]
 1203 08b4 0CBF     		ite	eq
 1204 08b6 5A64     		streq	r2, [r3, #68]
 1205 08b8 9A64     		strne	r2, [r3, #72]
 1206 08ba 4FF42053 		mov	r3, #10240
 1207 08be C4F20003 		movt	r3, 16384
 1208 08c2 FF22     		movs	r2, #255
 1209 08c4 5A62     		str	r2, [r3, #36]
 1210 08c6 10BC     		pop	{r4}
 1211 08c8 7047     		bx	lr
 1213 08ca 00BF     		.align	2
 1214              		.global	RTC_GetAlarmSubSecond
 1215              		.thumb
 1216              		.thumb_func
 1218              	RTC_GetAlarmSubSecond:
 1219              		@ args = 0, pretend = 0, frame = 0
 1220              		@ frame_needed = 0, uses_anonymous_args = 0
 1221              		@ link register save eliminated.
 1222 08cc 4FF42053 		mov	r3, #10240
 1223 08d0 B0F5807F 		cmp	r0, #256
 1224 08d4 C4F20003 		movt	r3, 16384
 1225 08d8 03D0     		beq	.L174
 1226 08da 986C     		ldr	r0, [r3, #72]
 1227 08dc 4004     		lsls	r0, r0, #17
 1228 08de 400C     		lsrs	r0, r0, #17
 1229 08e0 7047     		bx	lr
 1230              	.L174:
 1231 08e2 586C     		ldr	r0, [r3, #68]
 1232 08e4 4004     		lsls	r0, r0, #17
 1233 08e6 400C     		lsrs	r0, r0, #17
 1234 08e8 7047     		bx	lr
 1236 08ea 00BF     		.align	2
 1237              		.global	RTC_WakeUpClockConfig
 1238              		.thumb
 1239              		.thumb_func
 1241              	RTC_WakeUpClockConfig:
 1242              		@ args = 0, pretend = 0, frame = 0
 1243              		@ frame_needed = 0, uses_anonymous_args = 0
 1244              		@ link register save eliminated.
 1245 08ec 4FF42053 		mov	r3, #10240
 1246 08f0 C4F20003 		movt	r3, 16384
 1247 08f4 CA22     		movs	r2, #202
 1248 08f6 5A62     		str	r2, [r3, #36]
 1249 08f8 5322     		movs	r2, #83
 1250 08fa 5A62     		str	r2, [r3, #36]
 1251 08fc 9A68     		ldr	r2, [r3, #8]
 1252 08fe 22F00702 		bic	r2, r2, #7
 1253 0902 9A60     		str	r2, [r3, #8]
 1254 0904 9A68     		ldr	r2, [r3, #8]
 1255 0906 0243     		orrs	r2, r2, r0
 1256 0908 9A60     		str	r2, [r3, #8]
 1257 090a FF22     		movs	r2, #255
 1258 090c 5A62     		str	r2, [r3, #36]
 1259 090e 7047     		bx	lr
 1261              		.align	2
 1262              		.global	RTC_SetWakeUpCounter
 1263              		.thumb
 1264              		.thumb_func
 1266              	RTC_SetWakeUpCounter:
 1267              		@ args = 0, pretend = 0, frame = 0
 1268              		@ frame_needed = 0, uses_anonymous_args = 0
 1269              		@ link register save eliminated.
 1270 0910 4FF42053 		mov	r3, #10240
 1271 0914 C4F20003 		movt	r3, 16384
 1272 0918 CA22     		movs	r2, #202
 1273 091a 5A62     		str	r2, [r3, #36]
 1274 091c 5322     		movs	r2, #83
 1275 091e 5A62     		str	r2, [r3, #36]
 1276 0920 FF22     		movs	r2, #255
 1277 0922 5861     		str	r0, [r3, #20]
 1278 0924 5A62     		str	r2, [r3, #36]
 1279 0926 7047     		bx	lr
 1281              		.align	2
 1282              		.global	RTC_GetWakeUpCounter
 1283              		.thumb
 1284              		.thumb_func
 1286              	RTC_GetWakeUpCounter:
 1287              		@ args = 0, pretend = 0, frame = 0
 1288              		@ frame_needed = 0, uses_anonymous_args = 0
 1289              		@ link register save eliminated.
 1290 0928 4FF42053 		mov	r3, #10240
 1291 092c C4F20003 		movt	r3, 16384
 1292 0930 5869     		ldr	r0, [r3, #20]
 1293 0932 80B2     		uxth	r0, r0
 1294 0934 7047     		bx	lr
 1296 0936 00BF     		.align	2
 1297              		.global	RTC_WakeUpCmd
 1298              		.thumb
 1299              		.thumb_func
 1301              	RTC_WakeUpCmd:
 1302              		@ args = 0, pretend = 0, frame = 8
 1303              		@ frame_needed = 0, uses_anonymous_args = 0
 1304              		@ link register save eliminated.
 1305 0938 82B0     		sub	sp, sp, #8
 1306 093a 4FF42053 		mov	r3, #10240
 1307 093e C4F20003 		movt	r3, 16384
 1308 0942 0022     		movs	r2, #0
 1309 0944 0192     		str	r2, [sp, #4]
 1310 0946 CA22     		movs	r2, #202
 1311 0948 5A62     		str	r2, [r3, #36]
 1312 094a 5322     		movs	r2, #83
 1313 094c 5A62     		str	r2, [r3, #36]
 1314 094e 9A68     		ldr	r2, [r3, #8]
 1315 0950 E0B9     		cbnz	r0, .L185
 1316 0952 22F48062 		bic	r2, r2, #1024
 1317 0956 9A60     		str	r2, [r3, #8]
 1318 0958 01E0     		b	.L182
 1319              	.L186:
 1320 095a 4A07     		lsls	r2, r1, #29
 1321 095c 07D4     		bmi	.L181
 1322              	.L182:
 1323 095e D968     		ldr	r1, [r3, #12]
 1324 0960 019A     		ldr	r2, [sp, #4]
 1325 0962 0132     		adds	r2, r2, #1
 1326 0964 0192     		str	r2, [sp, #4]
 1327 0966 019A     		ldr	r2, [sp, #4]
 1328 0968 B2F5803F 		cmp	r2, #65536
 1329 096c F5D1     		bne	.L186
 1330              	.L181:
 1331 096e 4FF42053 		mov	r3, #10240
 1332 0972 C4F20003 		movt	r3, 16384
 1333 0976 D868     		ldr	r0, [r3, #12]
 1334 0978 C0F38000 		ubfx	r0, r0, #2, #1
 1335              	.L180:
 1336 097c 4FF42053 		mov	r3, #10240
 1337 0980 C4F20003 		movt	r3, 16384
 1338 0984 FF22     		movs	r2, #255
 1339 0986 5A62     		str	r2, [r3, #36]
 1340 0988 02B0     		add	sp, sp, #8
 1341 098a 7047     		bx	lr
 1342              	.L185:
 1343 098c 42F48062 		orr	r2, r2, #1024
 1344 0990 9A60     		str	r2, [r3, #8]
 1345 0992 0120     		movs	r0, #1
 1346 0994 F2E7     		b	.L180
 1348 0996 00BF     		.align	2
 1349              		.global	RTC_DayLightSavingConfig
 1350              		.thumb
 1351              		.thumb_func
 1353              	RTC_DayLightSavingConfig:
 1354              		@ args = 0, pretend = 0, frame = 0
 1355              		@ frame_needed = 0, uses_anonymous_args = 0
 1356              		@ link register save eliminated.
 1357 0998 4FF42053 		mov	r3, #10240
 1358 099c C4F20003 		movt	r3, 16384
 1359 09a0 CA22     		movs	r2, #202
 1360 09a2 5A62     		str	r2, [r3, #36]
 1361 09a4 5322     		movs	r2, #83
 1362 09a6 5A62     		str	r2, [r3, #36]
 1363 09a8 9A68     		ldr	r2, [r3, #8]
 1364 09aa 22F48022 		bic	r2, r2, #262144
 1365 09ae 9A60     		str	r2, [r3, #8]
 1366 09b0 9A68     		ldr	r2, [r3, #8]
 1367 09b2 0243     		orrs	r2, r2, r0
 1368 09b4 0A43     		orrs	r2, r2, r1
 1369 09b6 9A60     		str	r2, [r3, #8]
 1370 09b8 FF22     		movs	r2, #255
 1371 09ba 5A62     		str	r2, [r3, #36]
 1372 09bc 7047     		bx	lr
 1374 09be 00BF     		.align	2
 1375              		.global	RTC_GetStoreOperation
 1376              		.thumb
 1377              		.thumb_func
 1379              	RTC_GetStoreOperation:
 1380              		@ args = 0, pretend = 0, frame = 0
 1381              		@ frame_needed = 0, uses_anonymous_args = 0
 1382              		@ link register save eliminated.
 1383 09c0 4FF42053 		mov	r3, #10240
 1384 09c4 C4F20003 		movt	r3, 16384
 1385 09c8 9868     		ldr	r0, [r3, #8]
 1386 09ca 00F48020 		and	r0, r0, #262144
 1387 09ce 7047     		bx	lr
 1389              		.align	2
 1390              		.global	RTC_OutputConfig
 1391              		.thumb
 1392              		.thumb_func
 1394              	RTC_OutputConfig:
 1395              		@ args = 0, pretend = 0, frame = 0
 1396              		@ frame_needed = 0, uses_anonymous_args = 0
 1397              		@ link register save eliminated.
 1398 09d0 4FF42053 		mov	r3, #10240
 1399 09d4 C4F20003 		movt	r3, 16384
 1400 09d8 CA22     		movs	r2, #202
 1401 09da 5A62     		str	r2, [r3, #36]
 1402 09dc 5322     		movs	r2, #83
 1403 09de 5A62     		str	r2, [r3, #36]
 1404 09e0 9A68     		ldr	r2, [r3, #8]
 1405 09e2 22F4E002 		bic	r2, r2, #7340032
 1406 09e6 9A60     		str	r2, [r3, #8]
 1407 09e8 9A68     		ldr	r2, [r3, #8]
 1408 09ea 0243     		orrs	r2, r2, r0
 1409 09ec 0A43     		orrs	r2, r2, r1
 1410 09ee 9A60     		str	r2, [r3, #8]
 1411 09f0 FF22     		movs	r2, #255
 1412 09f2 5A62     		str	r2, [r3, #36]
 1413 09f4 7047     		bx	lr
 1415 09f6 00BF     		.align	2
 1416              		.global	RTC_CoarseCalibConfig
 1417              		.thumb
 1418              		.thumb_func
 1420              	RTC_CoarseCalibConfig:
 1421              		@ args = 0, pretend = 0, frame = 8
 1422              		@ frame_needed = 0, uses_anonymous_args = 0
 1423              		@ link register save eliminated.
 1424 09f8 10B4     		push	{r4}
 1425 09fa 4FF42053 		mov	r3, #10240
 1426 09fe C4F20003 		movt	r3, 16384
 1427 0a02 CA22     		movs	r2, #202
 1428 0a04 5A62     		str	r2, [r3, #36]
 1429 0a06 83B0     		sub	sp, sp, #12
 1430 0a08 5322     		movs	r2, #83
 1431 0a0a 5A62     		str	r2, [r3, #36]
 1432 0a0c 0022     		movs	r2, #0
 1433 0a0e 0192     		str	r2, [sp, #4]
 1434 0a10 DA68     		ldr	r2, [r3, #12]
 1435 0a12 5206     		lsls	r2, r2, #25
 1436 0a14 20D4     		bmi	.L191
 1437 0a16 4FF0FF32 		mov	r2, #-1
 1438 0a1a DA60     		str	r2, [r3, #12]
 1439 0a1c 01E0     		b	.L193
 1440              	.L197:
 1441 0a1e 6206     		lsls	r2, r4, #25
 1442 0a20 07D4     		bmi	.L192
 1443              	.L193:
 1444 0a22 DC68     		ldr	r4, [r3, #12]
 1445 0a24 019A     		ldr	r2, [sp, #4]
 1446 0a26 0132     		adds	r2, r2, #1
 1447 0a28 0192     		str	r2, [sp, #4]
 1448 0a2a 019A     		ldr	r2, [sp, #4]
 1449 0a2c B2F5803F 		cmp	r2, #65536
 1450 0a30 F5D1     		bne	.L197
 1451              	.L192:
 1452 0a32 4FF42053 		mov	r3, #10240
 1453 0a36 C4F20003 		movt	r3, 16384
 1454 0a3a DB68     		ldr	r3, [r3, #12]
 1455 0a3c 13F04003 		ands	r3, r3, #64
 1456 0a40 08BF     		it	eq
 1457 0a42 1846     		moveq	r0, r3
 1458 0a44 08D1     		bne	.L191
 1459              	.L194:
 1460 0a46 4FF42053 		mov	r3, #10240
 1461 0a4a C4F20003 		movt	r3, 16384
 1462 0a4e FF22     		movs	r2, #255
 1463 0a50 5A62     		str	r2, [r3, #36]
 1464 0a52 03B0     		add	sp, sp, #12
 1465 0a54 10BC     		pop	{r4}
 1466 0a56 7047     		bx	lr
 1467              	.L191:
 1468 0a58 4FF42053 		mov	r3, #10240
 1469 0a5c C4F20003 		movt	r3, 16384
 1470 0a60 0843     		orrs	r0, r0, r1
 1471 0a62 9861     		str	r0, [r3, #24]
 1472 0a64 DA68     		ldr	r2, [r3, #12]
 1473 0a66 22F08002 		bic	r2, r2, #128
 1474 0a6a DA60     		str	r2, [r3, #12]
 1475 0a6c 0120     		movs	r0, #1
 1476 0a6e EAE7     		b	.L194
 1478              		.align	2
 1479              		.global	RTC_CoarseCalibCmd
 1480              		.thumb
 1481              		.thumb_func
 1483              	RTC_CoarseCalibCmd:
 1484              		@ args = 0, pretend = 0, frame = 8
 1485              		@ frame_needed = 0, uses_anonymous_args = 0
 1486              		@ link register save eliminated.
 1487 0a70 4FF42053 		mov	r3, #10240
 1488 0a74 C4F20003 		movt	r3, 16384
 1489 0a78 CA22     		movs	r2, #202
 1490 0a7a 5A62     		str	r2, [r3, #36]
 1491 0a7c 82B0     		sub	sp, sp, #8
 1492 0a7e 5322     		movs	r2, #83
 1493 0a80 5A62     		str	r2, [r3, #36]
 1494 0a82 0022     		movs	r2, #0
 1495 0a84 0192     		str	r2, [sp, #4]
 1496 0a86 DA68     		ldr	r2, [r3, #12]
 1497 0a88 5206     		lsls	r2, r2, #25
 1498 0a8a 1FD4     		bmi	.L199
 1499 0a8c 4FF0FF32 		mov	r2, #-1
 1500 0a90 DA60     		str	r2, [r3, #12]
 1501 0a92 01E0     		b	.L201
 1502              	.L207:
 1503 0a94 4906     		lsls	r1, r1, #25
 1504 0a96 07D4     		bmi	.L200
 1505              	.L201:
 1506 0a98 D968     		ldr	r1, [r3, #12]
 1507 0a9a 019A     		ldr	r2, [sp, #4]
 1508 0a9c 0132     		adds	r2, r2, #1
 1509 0a9e 0192     		str	r2, [sp, #4]
 1510 0aa0 019A     		ldr	r2, [sp, #4]
 1511 0aa2 B2F5803F 		cmp	r2, #65536
 1512 0aa6 F5D1     		bne	.L207
 1513              	.L200:
 1514 0aa8 4FF42053 		mov	r3, #10240
 1515 0aac C4F20003 		movt	r3, 16384
 1516 0ab0 DB68     		ldr	r3, [r3, #12]
 1517 0ab2 13F04003 		ands	r3, r3, #64
 1518 0ab6 08BF     		it	eq
 1519 0ab8 1846     		moveq	r0, r3
 1520 0aba 07D1     		bne	.L199
 1521              	.L202:
 1522 0abc 4FF42053 		mov	r3, #10240
 1523 0ac0 C4F20003 		movt	r3, 16384
 1524 0ac4 FF22     		movs	r2, #255
 1525 0ac6 5A62     		str	r2, [r3, #36]
 1526 0ac8 02B0     		add	sp, sp, #8
 1527 0aca 7047     		bx	lr
 1528              	.L199:
 1529 0acc 4FF42053 		mov	r3, #10240
 1530 0ad0 C4F20003 		movt	r3, 16384
 1531 0ad4 9A68     		ldr	r2, [r3, #8]
 1532 0ad6 60B9     		cbnz	r0, .L208
 1533 0ad8 22F08002 		bic	r2, r2, #128
 1534 0adc 9A60     		str	r2, [r3, #8]
 1535              	.L204:
 1536 0ade 4FF42053 		mov	r3, #10240
 1537 0ae2 C4F20003 		movt	r3, 16384
 1538 0ae6 0120     		movs	r0, #1
 1539 0ae8 DA68     		ldr	r2, [r3, #12]
 1540 0aea 22F08002 		bic	r2, r2, #128
 1541 0aee DA60     		str	r2, [r3, #12]
 1542 0af0 E4E7     		b	.L202
 1543              	.L208:
 1544 0af2 42F08002 		orr	r2, r2, #128
 1545 0af6 9A60     		str	r2, [r3, #8]
 1546 0af8 F1E7     		b	.L204
 1548 0afa 00BF     		.align	2
 1549              		.global	RTC_CalibOutputCmd
 1550              		.thumb
 1551              		.thumb_func
 1553              	RTC_CalibOutputCmd:
 1554              		@ args = 0, pretend = 0, frame = 0
 1555              		@ frame_needed = 0, uses_anonymous_args = 0
 1556              		@ link register save eliminated.
 1557 0afc 4FF42053 		mov	r3, #10240
 1558 0b00 C4F20003 		movt	r3, 16384
 1559 0b04 CA22     		movs	r2, #202
 1560 0b06 5A62     		str	r2, [r3, #36]
 1561 0b08 5322     		movs	r2, #83
 1562 0b0a 5A62     		str	r2, [r3, #36]
 1563 0b0c 9A68     		ldr	r2, [r3, #8]
 1564 0b0e 48B9     		cbnz	r0, .L212
 1565 0b10 22F40002 		bic	r2, r2, #8388608
 1566 0b14 9A60     		str	r2, [r3, #8]
 1567              	.L211:
 1568 0b16 4FF42053 		mov	r3, #10240
 1569 0b1a C4F20003 		movt	r3, 16384
 1570 0b1e FF22     		movs	r2, #255
 1571 0b20 5A62     		str	r2, [r3, #36]
 1572 0b22 7047     		bx	lr
 1573              	.L212:
 1574 0b24 42F40002 		orr	r2, r2, #8388608
 1575 0b28 9A60     		str	r2, [r3, #8]
 1576 0b2a F4E7     		b	.L211
 1578              		.align	2
 1579              		.global	RTC_CalibOutputConfig
 1580              		.thumb
 1581              		.thumb_func
 1583              	RTC_CalibOutputConfig:
 1584              		@ args = 0, pretend = 0, frame = 0
 1585              		@ frame_needed = 0, uses_anonymous_args = 0
 1586              		@ link register save eliminated.
 1587 0b2c 4FF42053 		mov	r3, #10240
 1588 0b30 C4F20003 		movt	r3, 16384
 1589 0b34 CA22     		movs	r2, #202
 1590 0b36 5A62     		str	r2, [r3, #36]
 1591 0b38 5322     		movs	r2, #83
 1592 0b3a 5A62     		str	r2, [r3, #36]
 1593 0b3c 9A68     		ldr	r2, [r3, #8]
 1594 0b3e 22F40022 		bic	r2, r2, #524288
 1595 0b42 9A60     		str	r2, [r3, #8]
 1596 0b44 9A68     		ldr	r2, [r3, #8]
 1597 0b46 0243     		orrs	r2, r2, r0
 1598 0b48 9A60     		str	r2, [r3, #8]
 1599 0b4a FF22     		movs	r2, #255
 1600 0b4c 5A62     		str	r2, [r3, #36]
 1601 0b4e 7047     		bx	lr
 1603              		.align	2
 1604              		.global	RTC_SmoothCalibConfig
 1605              		.thumb
 1606              		.thumb_func
 1608              	RTC_SmoothCalibConfig:
 1609              		@ args = 0, pretend = 0, frame = 0
 1610              		@ frame_needed = 0, uses_anonymous_args = 0
 1611              		@ link register save eliminated.
 1612 0b50 4FF42053 		mov	r3, #10240
 1613 0b54 C4F20003 		movt	r3, 16384
 1614 0b58 30B4     		push	{r4, r5}
 1615 0b5a CA24     		movs	r4, #202
 1616 0b5c 5C62     		str	r4, [r3, #36]
 1617 0b5e 5324     		movs	r4, #83
 1618 0b60 5C62     		str	r4, [r3, #36]
 1619 0b62 DC68     		ldr	r4, [r3, #12]
 1620 0b64 E403     		lsls	r4, r4, #15
 1621 0b66 0BD5     		bpl	.L215
 1622 0b68 DC68     		ldr	r4, [r3, #12]
 1623 0b6a E403     		lsls	r4, r4, #15
 1624 0b6c 08D5     		bpl	.L215
 1625 0b6e 4FF40034 		mov	r4, #131072
 1626 0b72 01E0     		b	.L216
 1627              	.L220:
 1628 0b74 013C     		subs	r4, r4, #1
 1629 0b76 03D0     		beq	.L215
 1630              	.L216:
 1631 0b78 DD68     		ldr	r5, [r3, #12]
 1632 0b7a 15F4803F 		tst	r5, #65536
 1633 0b7e F9D1     		bne	.L220
 1634              	.L215:
 1635 0b80 4FF42053 		mov	r3, #10240
 1636 0b84 C4F20003 		movt	r3, 16384
 1637 0b88 DC68     		ldr	r4, [r3, #12]
 1638 0b8a 14F4803F 		tst	r4, #65536
 1639 0b8e 0BD1     		bne	.L218
 1640 0b90 0843     		orrs	r0, r0, r1
 1641 0b92 0243     		orrs	r2, r2, r0
 1642 0b94 DA63     		str	r2, [r3, #60]
 1643 0b96 0120     		movs	r0, #1
 1644              	.L217:
 1645 0b98 4FF42053 		mov	r3, #10240
 1646 0b9c C4F20003 		movt	r3, 16384
 1647 0ba0 FF22     		movs	r2, #255
 1648 0ba2 5A62     		str	r2, [r3, #36]
 1649 0ba4 30BC     		pop	{r4, r5}
 1650 0ba6 7047     		bx	lr
 1651              	.L218:
 1652 0ba8 0020     		movs	r0, #0
 1653 0baa F5E7     		b	.L217
 1655              		.align	2
 1656              		.global	RTC_TimeStampCmd
 1657              		.thumb
 1658              		.thumb_func
 1660              	RTC_TimeStampCmd:
 1661              		@ args = 0, pretend = 0, frame = 0
 1662              		@ frame_needed = 0, uses_anonymous_args = 0
 1663              		@ link register save eliminated.
 1664 0bac 4FF42053 		mov	r3, #10240
 1665 0bb0 C4F20003 		movt	r3, 16384
 1666 0bb4 9B68     		ldr	r3, [r3, #8]
 1667 0bb6 23F40063 		bic	r3, r3, #2048
 1668 0bba 23F00803 		bic	r3, r3, #8
 1669 0bbe 61B9     		cbnz	r1, .L224
 1670 0bc0 1843     		orrs	r0, r0, r3
 1671              	.L223:
 1672 0bc2 4FF42052 		mov	r2, #10240
 1673 0bc6 C4F20002 		movt	r2, 16384
 1674 0bca CA23     		movs	r3, #202
 1675 0bcc 5362     		str	r3, [r2, #36]
 1676 0bce 5323     		movs	r3, #83
 1677 0bd0 5362     		str	r3, [r2, #36]
 1678 0bd2 FF23     		movs	r3, #255
 1679 0bd4 9060     		str	r0, [r2, #8]
 1680 0bd6 5362     		str	r3, [r2, #36]
 1681 0bd8 7047     		bx	lr
 1682              	.L224:
 1683 0bda 43F40063 		orr	r3, r3, #2048
 1684 0bde 1843     		orrs	r0, r0, r3
 1685 0be0 EFE7     		b	.L223
 1687 0be2 00BF     		.align	2
 1688              		.global	RTC_GetTimeStamp
 1689              		.thumb
 1690              		.thumb_func
 1692              	RTC_GetTimeStamp:
 1693              		@ args = 0, pretend = 0, frame = 0
 1694              		@ frame_needed = 0, uses_anonymous_args = 0
 1695              		@ link register save eliminated.
 1696 0be4 4FF42053 		mov	r3, #10240
 1697 0be8 C4F20003 		movt	r3, 16384
 1698 0bec 2DE9F001 		push	{r4, r5, r6, r7, r8}
 1699 0bf0 1C6B     		ldr	r4, [r3, #48]
 1700 0bf2 5B6B     		ldr	r3, [r3, #52]
 1701 0bf4 04F48007 		and	r7, r4, #4194304
 1702 0bf8 C4F30548 		ubfx	r8, r4, #16, #6
 1703 0bfc C4F3062C 		ubfx	ip, r4, #8, #7
 1704 0c00 04F07F04 		and	r4, r4, #127
 1705 0c04 8C70     		strb	r4, [r1, #2]
 1706 0c06 C3F30426 		ubfx	r6, r3, #8, #5
 1707 0c0a 03F03F05 		and	r5, r3, #63
 1708 0c0e 3F0C     		lsrs	r7, r7, #16
 1709 0c10 C3F34233 		ubfx	r3, r3, #13, #3
 1710 0c14 0024     		movs	r4, #0
 1711 0c16 81F80080 		strb	r8, [r1, #0]
 1712 0c1a 81F801C0 		strb	ip, [r1, #1]
 1713 0c1e CF70     		strb	r7, [r1, #3]
 1714 0c20 D470     		strb	r4, [r2, #3]
 1715 0c22 5670     		strb	r6, [r2, #1]
 1716 0c24 9570     		strb	r5, [r2, #2]
 1717 0c26 1370     		strb	r3, [r2, #0]
 1718 0c28 0028     		cmp	r0, #0
 1719 0c2a 35D1     		bne	.L225
 1720 0c2c 0E78     		ldrb	r6, [r1, #0]	@ zero_extendqisi2
 1721 0c2e 4C78     		ldrb	r4, [r1, #1]	@ zero_extendqisi2
 1722 0c30 8B78     		ldrb	r3, [r1, #2]	@ zero_extendqisi2
 1723 0c32 3709     		lsrs	r7, r6, #4
 1724 0c34 2509     		lsrs	r5, r4, #4
 1725 0c36 1809     		lsrs	r0, r3, #4
 1726 0c38 06F00F06 		and	r6, r6, #15
 1727 0c3c 04F00F04 		and	r4, r4, #15
 1728 0c40 03F00F03 		and	r3, r3, #15
 1729 0c44 07EB8707 		add	r7, r7, r7, lsl #2
 1730 0c48 05EB8505 		add	r5, r5, r5, lsl #2
 1731 0c4c 00EB8000 		add	r0, r0, r0, lsl #2
 1732 0c50 04EB4505 		add	r5, r4, r5, lsl #1
 1733 0c54 03EB4000 		add	r0, r3, r0, lsl #1
 1734 0c58 06EB4707 		add	r7, r6, r7, lsl #1
 1735 0c5c 0F70     		strb	r7, [r1, #0]
 1736 0c5e 4D70     		strb	r5, [r1, #1]
 1737 0c60 8870     		strb	r0, [r1, #2]
 1738 0c62 5578     		ldrb	r5, [r2, #1]	@ zero_extendqisi2
 1739 0c64 9078     		ldrb	r0, [r2, #2]	@ zero_extendqisi2
 1740 0c66 1378     		ldrb	r3, [r2, #0]	@ zero_extendqisi2
 1741 0c68 2E09     		lsrs	r6, r5, #4
 1742 0c6a 0409     		lsrs	r4, r0, #4
 1743 0c6c 1909     		lsrs	r1, r3, #4
 1744 0c6e 06EB8606 		add	r6, r6, r6, lsl #2
 1745 0c72 05F00F05 		and	r5, r5, #15
 1746 0c76 04EB8404 		add	r4, r4, r4, lsl #2
 1747 0c7a 00F00F00 		and	r0, r0, #15
 1748 0c7e 01EB8101 		add	r1, r1, r1, lsl #2
 1749 0c82 03F00F03 		and	r3, r3, #15
 1750 0c86 05EB4606 		add	r6, r5, r6, lsl #1
 1751 0c8a 00EB4404 		add	r4, r0, r4, lsl #1
 1752 0c8e 03EB4101 		add	r1, r3, r1, lsl #1
 1753 0c92 5670     		strb	r6, [r2, #1]
 1754 0c94 9470     		strb	r4, [r2, #2]
 1755 0c96 1170     		strb	r1, [r2, #0]
 1756              	.L225:
 1757 0c98 BDE8F001 		pop	{r4, r5, r6, r7, r8}
 1758 0c9c 7047     		bx	lr
 1760 0c9e 00BF     		.align	2
 1761              		.global	RTC_GetTimeStampSubSecond
 1762              		.thumb
 1763              		.thumb_func
 1765              	RTC_GetTimeStampSubSecond:
 1766              		@ args = 0, pretend = 0, frame = 0
 1767              		@ frame_needed = 0, uses_anonymous_args = 0
 1768              		@ link register save eliminated.
 1769 0ca0 4FF42053 		mov	r3, #10240
 1770 0ca4 C4F20003 		movt	r3, 16384
 1771 0ca8 986B     		ldr	r0, [r3, #56]
 1772 0caa 7047     		bx	lr
 1774              		.align	2
 1775              		.global	RTC_TamperTriggerConfig
 1776              		.thumb
 1777              		.thumb_func
 1779              	RTC_TamperTriggerConfig:
 1780              		@ args = 0, pretend = 0, frame = 0
 1781              		@ frame_needed = 0, uses_anonymous_args = 0
 1782              		@ link register save eliminated.
 1783 0cac 4FF42053 		mov	r3, #10240
 1784 0cb0 C4F20003 		movt	r3, 16384
 1785 0cb4 1A6C     		ldr	r2, [r3, #64]
 1786 0cb6 19B1     		cbz	r1, .L231
 1787 0cb8 42EA4000 		orr	r0, r2, r0, lsl #1
 1788 0cbc 1864     		str	r0, [r3, #64]
 1789 0cbe 7047     		bx	lr
 1790              	.L231:
 1791 0cc0 22EA4000 		bic	r0, r2, r0, lsl #1
 1792 0cc4 1864     		str	r0, [r3, #64]
 1793 0cc6 7047     		bx	lr
 1795              		.align	2
 1796              		.global	RTC_TamperCmd
 1797              		.thumb
 1798              		.thumb_func
 1800              	RTC_TamperCmd:
 1801              		@ args = 0, pretend = 0, frame = 0
 1802              		@ frame_needed = 0, uses_anonymous_args = 0
 1803              		@ link register save eliminated.
 1804 0cc8 4FF42053 		mov	r3, #10240
 1805 0ccc C4F20003 		movt	r3, 16384
 1806 0cd0 1A6C     		ldr	r2, [r3, #64]
 1807 0cd2 19B9     		cbnz	r1, .L235
 1808 0cd4 22EA0000 		bic	r0, r2, r0
 1809 0cd8 1864     		str	r0, [r3, #64]
 1810 0cda 7047     		bx	lr
 1811              	.L235:
 1812 0cdc 1043     		orrs	r0, r0, r2
 1813 0cde 1864     		str	r0, [r3, #64]
 1814 0ce0 7047     		bx	lr
 1816 0ce2 00BF     		.align	2
 1817              		.global	RTC_TamperFilterConfig
 1818              		.thumb
 1819              		.thumb_func
 1821              	RTC_TamperFilterConfig:
 1822              		@ args = 0, pretend = 0, frame = 0
 1823              		@ frame_needed = 0, uses_anonymous_args = 0
 1824              		@ link register save eliminated.
 1825 0ce4 4FF42053 		mov	r3, #10240
 1826 0ce8 C4F20003 		movt	r3, 16384
 1827 0cec 1A6C     		ldr	r2, [r3, #64]
 1828 0cee 22F4C052 		bic	r2, r2, #6144
 1829 0cf2 1A64     		str	r2, [r3, #64]
 1830 0cf4 1A6C     		ldr	r2, [r3, #64]
 1831 0cf6 0243     		orrs	r2, r2, r0
 1832 0cf8 1A64     		str	r2, [r3, #64]
 1833 0cfa 7047     		bx	lr
 1835              		.align	2
 1836              		.global	RTC_TamperSamplingFreqConfig
 1837              		.thumb
 1838              		.thumb_func
 1840              	RTC_TamperSamplingFreqConfig:
 1841              		@ args = 0, pretend = 0, frame = 0
 1842              		@ frame_needed = 0, uses_anonymous_args = 0
 1843              		@ link register save eliminated.
 1844 0cfc 4FF42053 		mov	r3, #10240
 1845 0d00 C4F20003 		movt	r3, 16384
 1846 0d04 1A6C     		ldr	r2, [r3, #64]
 1847 0d06 22F4E062 		bic	r2, r2, #1792
 1848 0d0a 1A64     		str	r2, [r3, #64]
 1849 0d0c 1A6C     		ldr	r2, [r3, #64]
 1850 0d0e 0243     		orrs	r2, r2, r0
 1851 0d10 1A64     		str	r2, [r3, #64]
 1852 0d12 7047     		bx	lr
 1854              		.align	2
 1855              		.global	RTC_TamperPinsPrechargeDuration
 1856              		.thumb
 1857              		.thumb_func
 1859              	RTC_TamperPinsPrechargeDuration:
 1860              		@ args = 0, pretend = 0, frame = 0
 1861              		@ frame_needed = 0, uses_anonymous_args = 0
 1862              		@ link register save eliminated.
 1863 0d14 4FF42053 		mov	r3, #10240
 1864 0d18 C4F20003 		movt	r3, 16384
 1865 0d1c 1A6C     		ldr	r2, [r3, #64]
 1866 0d1e 22F4C042 		bic	r2, r2, #24576
 1867 0d22 1A64     		str	r2, [r3, #64]
 1868 0d24 1A6C     		ldr	r2, [r3, #64]
 1869 0d26 0243     		orrs	r2, r2, r0
 1870 0d28 1A64     		str	r2, [r3, #64]
 1871 0d2a 7047     		bx	lr
 1873              		.align	2
 1874              		.global	RTC_TimeStampOnTamperDetectionCmd
 1875              		.thumb
 1876              		.thumb_func
 1878              	RTC_TimeStampOnTamperDetectionCmd:
 1879              		@ args = 0, pretend = 0, frame = 0
 1880              		@ frame_needed = 0, uses_anonymous_args = 0
 1881              		@ link register save eliminated.
 1882 0d2c 4FF42053 		mov	r3, #10240
 1883 0d30 C4F20003 		movt	r3, 16384
 1884 0d34 1A6C     		ldr	r2, [r3, #64]
 1885 0d36 18B9     		cbnz	r0, .L242
 1886 0d38 22F08002 		bic	r2, r2, #128
 1887 0d3c 1A64     		str	r2, [r3, #64]
 1888 0d3e 7047     		bx	lr
 1889              	.L242:
 1890 0d40 42F08002 		orr	r2, r2, #128
 1891 0d44 1A64     		str	r2, [r3, #64]
 1892 0d46 7047     		bx	lr
 1894              		.align	2
 1895              		.global	RTC_TamperPullUpCmd
 1896              		.thumb
 1897              		.thumb_func
 1899              	RTC_TamperPullUpCmd:
 1900              		@ args = 0, pretend = 0, frame = 0
 1901              		@ frame_needed = 0, uses_anonymous_args = 0
 1902              		@ link register save eliminated.
 1903 0d48 4FF42053 		mov	r3, #10240
 1904 0d4c C4F20003 		movt	r3, 16384
 1905 0d50 1A6C     		ldr	r2, [r3, #64]
 1906 0d52 18B9     		cbnz	r0, .L246
 1907 0d54 42F40042 		orr	r2, r2, #32768
 1908 0d58 1A64     		str	r2, [r3, #64]
 1909 0d5a 7047     		bx	lr
 1910              	.L246:
 1911 0d5c 22F40042 		bic	r2, r2, #32768
 1912 0d60 1A64     		str	r2, [r3, #64]
 1913 0d62 7047     		bx	lr
 1915              		.align	2
 1916              		.global	RTC_WriteBackupRegister
 1917              		.thumb
 1918              		.thumb_func
 1920              	RTC_WriteBackupRegister:
 1921              		@ args = 0, pretend = 0, frame = 8
 1922              		@ frame_needed = 0, uses_anonymous_args = 0
 1923              		@ link register save eliminated.
 1924 0d64 82B0     		sub	sp, sp, #8
 1925 0d66 42F65003 		movw	r3, #10320
 1926 0d6a C4F20003 		movt	r3, 16384
 1927 0d6e 0022     		movs	r2, #0
 1928 0d70 0192     		str	r2, [sp, #4]
 1929 0d72 0193     		str	r3, [sp, #4]
 1930 0d74 019B     		ldr	r3, [sp, #4]
 1931 0d76 03EB8003 		add	r3, r3, r0, lsl #2
 1932 0d7a 0193     		str	r3, [sp, #4]
 1933 0d7c 019B     		ldr	r3, [sp, #4]
 1934 0d7e 1960     		str	r1, [r3, #0]
 1935 0d80 02B0     		add	sp, sp, #8
 1936 0d82 7047     		bx	lr
 1938              		.align	2
 1939              		.global	RTC_ReadBackupRegister
 1940              		.thumb
 1941              		.thumb_func
 1943              	RTC_ReadBackupRegister:
 1944              		@ args = 0, pretend = 0, frame = 8
 1945              		@ frame_needed = 0, uses_anonymous_args = 0
 1946              		@ link register save eliminated.
 1947 0d84 82B0     		sub	sp, sp, #8
 1948 0d86 42F65003 		movw	r3, #10320
 1949 0d8a C4F20003 		movt	r3, 16384
 1950 0d8e 0022     		movs	r2, #0
 1951 0d90 0192     		str	r2, [sp, #4]
 1952 0d92 0193     		str	r3, [sp, #4]
 1953 0d94 019B     		ldr	r3, [sp, #4]
 1954 0d96 03EB8003 		add	r3, r3, r0, lsl #2
 1955 0d9a 0193     		str	r3, [sp, #4]
 1956 0d9c 019B     		ldr	r3, [sp, #4]
 1957 0d9e 1868     		ldr	r0, [r3, #0]
 1958 0da0 02B0     		add	sp, sp, #8
 1959 0da2 7047     		bx	lr
 1961              		.align	2
 1962              		.global	RTC_TamperPinSelection
 1963              		.thumb
 1964              		.thumb_func
 1966              	RTC_TamperPinSelection:
 1967              		@ args = 0, pretend = 0, frame = 0
 1968              		@ frame_needed = 0, uses_anonymous_args = 0
 1969              		@ link register save eliminated.
 1970 0da4 4FF42053 		mov	r3, #10240
 1971 0da8 C4F20003 		movt	r3, 16384
 1972 0dac 1A6C     		ldr	r2, [r3, #64]
 1973 0dae 22F48032 		bic	r2, r2, #65536
 1974 0db2 1A64     		str	r2, [r3, #64]
 1975 0db4 1A6C     		ldr	r2, [r3, #64]
 1976 0db6 0243     		orrs	r2, r2, r0
 1977 0db8 1A64     		str	r2, [r3, #64]
 1978 0dba 7047     		bx	lr
 1980              		.align	2
 1981              		.global	RTC_TimeStampPinSelection
 1982              		.thumb
 1983              		.thumb_func
 1985              	RTC_TimeStampPinSelection:
 1986              		@ args = 0, pretend = 0, frame = 0
 1987              		@ frame_needed = 0, uses_anonymous_args = 0
 1988              		@ link register save eliminated.
 1989 0dbc 4FF42053 		mov	r3, #10240
 1990 0dc0 C4F20003 		movt	r3, 16384
 1991 0dc4 1A6C     		ldr	r2, [r3, #64]
 1992 0dc6 22F40032 		bic	r2, r2, #131072
 1993 0dca 1A64     		str	r2, [r3, #64]
 1994 0dcc 1A6C     		ldr	r2, [r3, #64]
 1995 0dce 0243     		orrs	r2, r2, r0
 1996 0dd0 1A64     		str	r2, [r3, #64]
 1997 0dd2 7047     		bx	lr
 1999              		.align	2
 2000              		.global	RTC_OutputTypeConfig
 2001              		.thumb
 2002              		.thumb_func
 2004              	RTC_OutputTypeConfig:
 2005              		@ args = 0, pretend = 0, frame = 0
 2006              		@ frame_needed = 0, uses_anonymous_args = 0
 2007              		@ link register save eliminated.
 2008 0dd4 4FF42053 		mov	r3, #10240
 2009 0dd8 C4F20003 		movt	r3, 16384
 2010 0ddc 1A6C     		ldr	r2, [r3, #64]
 2011 0dde 22F48022 		bic	r2, r2, #262144
 2012 0de2 1A64     		str	r2, [r3, #64]
 2013 0de4 1A6C     		ldr	r2, [r3, #64]
 2014 0de6 0243     		orrs	r2, r2, r0
 2015 0de8 1A64     		str	r2, [r3, #64]
 2016 0dea 7047     		bx	lr
 2018              		.align	2
 2019              		.global	RTC_SynchroShiftConfig
 2020              		.thumb
 2021              		.thumb_func
 2023              	RTC_SynchroShiftConfig:
 2024              		@ args = 0, pretend = 0, frame = 8
 2025              		@ frame_needed = 0, uses_anonymous_args = 0
 2026              		@ link register save eliminated.
 2027 0dec 4FF42053 		mov	r3, #10240
 2028 0df0 C4F20003 		movt	r3, 16384
 2029 0df4 CA22     		movs	r2, #202
 2030 0df6 10B4     		push	{r4}
 2031 0df8 5A62     		str	r2, [r3, #36]
 2032 0dfa 5322     		movs	r2, #83
 2033 0dfc 5A62     		str	r2, [r3, #36]
 2034 0dfe DA68     		ldr	r2, [r3, #12]
 2035 0e00 1207     		lsls	r2, r2, #28
 2036 0e02 83B0     		sub	sp, sp, #12
 2037 0e04 0BD5     		bpl	.L253
 2038 0e06 DA68     		ldr	r2, [r3, #12]
 2039 0e08 1207     		lsls	r2, r2, #28
 2040 0e0a 08D5     		bpl	.L253
 2041 0e0c 4FF48052 		mov	r2, #4096
 2042 0e10 01E0     		b	.L254
 2043              	.L263:
 2044 0e12 013A     		subs	r2, r2, #1
 2045 0e14 03D0     		beq	.L253
 2046              	.L254:
 2047 0e16 DC68     		ldr	r4, [r3, #12]
 2048 0e18 14F0080F 		tst	r4, #8
 2049 0e1c F9D1     		bne	.L263
 2050              	.L253:
 2051 0e1e 4FF42053 		mov	r3, #10240
 2052 0e22 C4F20003 		movt	r3, 16384
 2053 0e26 DA68     		ldr	r2, [r3, #12]
 2054 0e28 12F00802 		ands	r2, r2, #8
 2055 0e2c 31D1     		bne	.L259
 2056 0e2e 9C68     		ldr	r4, [r3, #8]
 2057 0e30 14F01004 		ands	r4, r4, #16
 2058 0e34 18BF     		it	ne
 2059 0e36 1046     		movne	r0, r2
 2060 0e38 08D0     		beq	.L264
 2061              	.L255:
 2062 0e3a 4FF42053 		mov	r3, #10240
 2063 0e3e C4F20003 		movt	r3, 16384
 2064 0e42 FF21     		movs	r1, #255
 2065 0e44 5962     		str	r1, [r3, #36]
 2066 0e46 03B0     		add	sp, sp, #12
 2067 0e48 10BC     		pop	{r4}
 2068 0e4a 7047     		bx	lr
 2069              	.L264:
 2070 0e4c 0143     		orrs	r1, r1, r0
 2071 0e4e CA22     		movs	r2, #202
 2072 0e50 D962     		str	r1, [r3, #44]
 2073 0e52 0194     		str	r4, [sp, #4]
 2074 0e54 5A62     		str	r2, [r3, #36]
 2075 0e56 5322     		movs	r2, #83
 2076 0e58 5A62     		str	r2, [r3, #36]
 2077 0e5a DA68     		ldr	r2, [r3, #12]
 2078 0e5c 22F0A002 		bic	r2, r2, #160
 2079 0e60 DA60     		str	r2, [r3, #12]
 2080 0e62 1946     		mov	r1, r3
 2081 0e64 01E0     		b	.L257
 2082              	.L265:
 2083 0e66 9306     		lsls	r3, r2, #26
 2084 0e68 07D4     		bmi	.L256
 2085              	.L257:
 2086 0e6a CA68     		ldr	r2, [r1, #12]
 2087 0e6c 019B     		ldr	r3, [sp, #4]
 2088 0e6e 0133     		adds	r3, r3, #1
 2089 0e70 0193     		str	r3, [sp, #4]
 2090 0e72 019B     		ldr	r3, [sp, #4]
 2091 0e74 B3F5003F 		cmp	r3, #131072
 2092 0e78 F5D1     		bne	.L265
 2093              	.L256:
 2094 0e7a 4FF42053 		mov	r3, #10240
 2095 0e7e C4F20003 		movt	r3, 16384
 2096 0e82 FF22     		movs	r2, #255
 2097 0e84 D868     		ldr	r0, [r3, #12]
 2098 0e86 5A62     		str	r2, [r3, #36]
 2099 0e88 10F02000 		ands	r0, r0, #32
 2100 0e8c D5D0     		beq	.L255
 2101 0e8e 0120     		movs	r0, #1
 2102 0e90 D3E7     		b	.L255
 2103              	.L259:
 2104 0e92 0020     		movs	r0, #0
 2105 0e94 D1E7     		b	.L255
 2107 0e96 00BF     		.align	2
 2108              		.global	RTC_ITConfig
 2109              		.thumb
 2110              		.thumb_func
 2112              	RTC_ITConfig:
 2113              		@ args = 0, pretend = 0, frame = 0
 2114              		@ frame_needed = 0, uses_anonymous_args = 0
 2115              		@ link register save eliminated.
 2116 0e98 4FF42053 		mov	r3, #10240
 2117 0e9c C4F20003 		movt	r3, 16384
 2118 0ea0 CA22     		movs	r2, #202
 2119 0ea2 5A62     		str	r2, [r3, #36]
 2120 0ea4 5322     		movs	r2, #83
 2121 0ea6 5A62     		str	r2, [r3, #36]
 2122 0ea8 9A68     		ldr	r2, [r3, #8]
 2123 0eaa 89B9     		cbnz	r1, .L269
 2124 0eac 20F00401 		bic	r1, r0, #4
 2125 0eb0 22EA0102 		bic	r2, r2, r1
 2126 0eb4 9A60     		str	r2, [r3, #8]
 2127 0eb6 1A6C     		ldr	r2, [r3, #64]
 2128 0eb8 00F00400 		and	r0, r0, #4
 2129 0ebc 22EA0000 		bic	r0, r2, r0
 2130 0ec0 1864     		str	r0, [r3, #64]
 2131              	.L268:
 2132 0ec2 4FF42053 		mov	r3, #10240
 2133 0ec6 C4F20003 		movt	r3, 16384
 2134 0eca FF22     		movs	r2, #255
 2135 0ecc 5A62     		str	r2, [r3, #36]
 2136 0ece 7047     		bx	lr
 2137              	.L269:
 2138 0ed0 20F00401 		bic	r1, r0, #4
 2139 0ed4 0A43     		orrs	r2, r2, r1
 2140 0ed6 9A60     		str	r2, [r3, #8]
 2141 0ed8 1A6C     		ldr	r2, [r3, #64]
 2142 0eda 00F00400 		and	r0, r0, #4
 2143 0ede 1043     		orrs	r0, r0, r2
 2144 0ee0 1864     		str	r0, [r3, #64]
 2145 0ee2 EEE7     		b	.L268
 2147              		.align	2
 2148              		.global	RTC_GetFlagStatus
 2149              		.thumb
 2150              		.thumb_func
 2152              	RTC_GetFlagStatus:
 2153              		@ args = 0, pretend = 0, frame = 0
 2154              		@ frame_needed = 0, uses_anonymous_args = 0
 2155              		@ link register save eliminated.
 2156 0ee4 4FF42052 		mov	r2, #10240
 2157 0ee8 C4F20002 		movt	r2, 16384
 2158 0eec 43F67773 		movw	r3, #16247
 2159 0ef0 D268     		ldr	r2, [r2, #12]
 2160 0ef2 1340     		ands	r3, r3, r2
 2161 0ef4 0342     		tst	r3, r0
 2162 0ef6 0CBF     		ite	eq
 2163 0ef8 0020     		moveq	r0, #0
 2164 0efa 0120     		movne	r0, #1
 2165 0efc 7047     		bx	lr
 2167 0efe 00BF     		.align	2
 2168              		.global	RTC_ClearFlag
 2169              		.thumb
 2170              		.thumb_func
 2172              	RTC_ClearFlag:
 2173              		@ args = 0, pretend = 0, frame = 0
 2174              		@ frame_needed = 0, uses_anonymous_args = 0
 2175              		@ link register save eliminated.
 2176 0f00 4FF42053 		mov	r3, #10240
 2177 0f04 C4F20003 		movt	r3, 16384
 2178 0f08 82B2     		uxth	r2, r0
 2179 0f0a D968     		ldr	r1, [r3, #12]
 2180 0f0c 42F08002 		orr	r2, r2, #128
 2181 0f10 01F08001 		and	r1, r1, #128
 2182 0f14 61EA0202 		orn	r2, r1, r2
 2183 0f18 DA60     		str	r2, [r3, #12]
 2184 0f1a 7047     		bx	lr
 2186              		.align	2
 2187              		.global	RTC_GetITStatus
 2188              		.thumb
 2189              		.thumb_func
 2191              	RTC_GetITStatus:
 2192              		@ args = 0, pretend = 0, frame = 0
 2193              		@ frame_needed = 0, uses_anonymous_args = 0
 2194              		@ link register save eliminated.
 2195 0f1c 4FF42053 		mov	r3, #10240
 2196 0f20 C4F20003 		movt	r3, 16384
 2197 0f24 10B4     		push	{r4}
 2198 0f26 1A6C     		ldr	r2, [r3, #64]
 2199 0f28 9968     		ldr	r1, [r3, #8]
 2200 0f2a DC68     		ldr	r4, [r3, #12]
 2201 0f2c 02F00402 		and	r2, r2, #4
 2202 0f30 02EAD032 		and	r2, r2, r0, lsr #15
 2203 0f34 00EA0103 		and	r3, r0, r1
 2204 0f38 1343     		orrs	r3, r2, r3
 2205 0f3a 08BF     		it	eq
 2206 0f3c 1846     		moveq	r0, r3
 2207 0f3e 05D0     		beq	.L273
 2208 0f40 A4B2     		uxth	r4, r4
 2209 0f42 14EA1014 		ands	r4, r4, r0, lsr #4
 2210 0f46 0CBF     		ite	eq
 2211 0f48 0020     		moveq	r0, #0
 2212 0f4a 0120     		movne	r0, #1
 2213              	.L273:
 2214 0f4c 10BC     		pop	{r4}
 2215 0f4e 7047     		bx	lr
 2217              		.align	2
 2218              		.global	RTC_ClearITPendingBit
 2219              		.thumb
 2220              		.thumb_func
 2222              	RTC_ClearITPendingBit:
 2223              		@ args = 0, pretend = 0, frame = 0
 2224              		@ frame_needed = 0, uses_anonymous_args = 0
 2225              		@ link register save eliminated.
 2226 0f50 4FF42053 		mov	r3, #10240
 2227 0f54 C4F20003 		movt	r3, 16384
 2228 0f58 C0F30F12 		ubfx	r2, r0, #4, #16
 2229 0f5c D968     		ldr	r1, [r3, #12]
 2230 0f5e 42F08002 		orr	r2, r2, #128
 2231 0f62 01F08001 		and	r1, r1, #128
 2232 0f66 61EA0202 		orn	r2, r1, r2
 2233 0f6a DA60     		str	r2, [r3, #12]
 2234 0f6c 7047     		bx	lr
 2236 0f6e 00BF     		.ident	"GCC: (Linaro GCC 4.6-2011.10) 4.6.2 20111004 (prerelease)"