   1              		.syntax unified
   2              		.cpu cortex-m4
   3              		.fpu softvfp
   4              		.eabi_attribute 20, 1
   5              		.eabi_attribute 21, 1
   6              		.eabi_attribute 23, 3
   7              		.eabi_attribute 24, 1
   8              		.eabi_attribute 25, 1
   9              		.eabi_attribute 26, 1
  10              		.eabi_attribute 30, 2
  11              		.eabi_attribute 18, 4
  12              		.thumb
  13              		.file	"stm32f4xx_dma.c"
  14              		.text
  15              		.align	2
  16              		.global	DMA_DeInit
  17              		.thumb
  18              		.thumb_func
  20              	DMA_DeInit:
  21              		@ args = 0, pretend = 0, frame = 0
  22              		@ frame_needed = 0, uses_anonymous_args = 0
  23              		@ link register save eliminated.
  24 0000 0168     		ldr	r1, [r0, #0]
  25 0002 46F21002 		movw	r2, #24592
  26 0006 0023     		movs	r3, #0
  27 0008 21F00101 		bic	r1, r1, #1
  28 000c C4F20202 		movt	r2, 16386
  29 0010 0160     		str	r1, [r0, #0]
  30 0012 0360     		str	r3, [r0, #0]
  31 0014 4360     		str	r3, [r0, #4]
  32 0016 8360     		str	r3, [r0, #8]
  33 0018 C360     		str	r3, [r0, #12]
  34 001a 0361     		str	r3, [r0, #16]
  35 001c 2123     		movs	r3, #33
  36 001e 9042     		cmp	r0, r2
  37 0020 4361     		str	r3, [r0, #20]
  38 0022 6BD0     		beq	.L19
  39 0024 46F22803 		movw	r3, #24616
  40 0028 C4F20203 		movt	r3, 16386
  41 002c 9842     		cmp	r0, r3
  42 002e 6CD0     		beq	.L20
  43 0030 46F24003 		movw	r3, #24640
  44 0034 C4F20203 		movt	r3, 16386
  45 0038 9842     		cmp	r0, r3
  46 003a 6ED0     		beq	.L21
  47 003c 46F25803 		movw	r3, #24664
  48 0040 C4F20203 		movt	r3, 16386
  49 0044 9842     		cmp	r0, r3
  50 0046 70D0     		beq	.L22
  51 0048 46F27003 		movw	r3, #24688
  52 004c C4F20203 		movt	r3, 16386
  53 0050 9842     		cmp	r0, r3
  54 0052 72D0     		beq	.L23
  55 0054 46F28803 		movw	r3, #24712
  56 0058 C4F20203 		movt	r3, 16386
  57 005c 9842     		cmp	r0, r3
  58 005e 75D0     		beq	.L24
  59 0060 46F2A003 		movw	r3, #24736
  60 0064 C4F20203 		movt	r3, 16386
  61 0068 9842     		cmp	r0, r3
  62 006a 3ED0     		beq	.L25
  63 006c 46F2B803 		movw	r3, #24760
  64 0070 C4F20203 		movt	r3, 16386
  65 0074 9842     		cmp	r0, r3
  66 0076 73D0     		beq	.L26
  67 0078 46F21043 		movw	r3, #25616
  68 007c C4F20203 		movt	r3, 16386
  69 0080 9842     		cmp	r0, r3
  70 0082 75D0     		beq	.L27
  71 0084 46F22843 		movw	r3, #25640
  72 0088 C4F20203 		movt	r3, 16386
  73 008c 9842     		cmp	r0, r3
  74 008e 76D0     		beq	.L28
  75 0090 46F24043 		movw	r3, #25664
  76 0094 C4F20203 		movt	r3, 16386
  77 0098 9842     		cmp	r0, r3
  78 009a 78D0     		beq	.L29
  79 009c 46F25843 		movw	r3, #25688
  80 00a0 C4F20203 		movt	r3, 16386
  81 00a4 9842     		cmp	r0, r3
  82 00a6 7AD0     		beq	.L30
  83 00a8 46F27043 		movw	r3, #25712
  84 00ac C4F20203 		movt	r3, 16386
  85 00b0 9842     		cmp	r0, r3
  86 00b2 7CD0     		beq	.L31
  87 00b4 46F28843 		movw	r3, #25736
  88 00b8 C4F20203 		movt	r3, 16386
  89 00bc 9842     		cmp	r0, r3
  90 00be 7FD0     		beq	.L32
  91 00c0 46F2A043 		movw	r3, #25760
  92 00c4 C4F20203 		movt	r3, 16386
  93 00c8 9842     		cmp	r0, r3
  94 00ca 00F08380 		beq	.L33
  95 00ce 46F2B843 		movw	r3, #25784
  96 00d2 C4F20203 		movt	r3, 16386
  97 00d6 9842     		cmp	r0, r3
  98 00d8 01BF     		itttt	eq
  99 00da 4FF4C843 		moveq	r3, #25600
 100 00de C4F20203 		movteq	r3, 16386
 101 00e2 4FF03D52 		moveq	r2, #792723456
 102 00e6 DA60     		streq	r2, [r3, #12]
 103 00e8 7047     		bx	lr
 104              	.L25:
 105 00ea 4FF4C043 		mov	r3, #24576
 106 00ee C4F20203 		movt	r3, 16386
 107 00f2 0022     		movs	r2, #0
 108 00f4 C2F23D02 		movt	r2, 8253
 109 00f8 DA60     		str	r2, [r3, #12]
 110 00fa 7047     		bx	lr
 111              	.L19:
 112 00fc 4FF4C043 		mov	r3, #24576
 113 0100 C4F20203 		movt	r3, 16386
 114 0104 3D22     		movs	r2, #61
 115 0106 9A60     		str	r2, [r3, #8]
 116 0108 7047     		bx	lr
 117              	.L20:
 118 010a 4FF4C043 		mov	r3, #24576
 119 010e C4F20203 		movt	r3, 16386
 120 0112 4FF47462 		mov	r2, #3904
 121 0116 9A60     		str	r2, [r3, #8]
 122 0118 7047     		bx	lr
 123              	.L21:
 124 011a 4FF4C043 		mov	r3, #24576
 125 011e C4F20203 		movt	r3, 16386
 126 0122 4FF47412 		mov	r2, #3997696
 127 0126 9A60     		str	r2, [r3, #8]
 128 0128 7047     		bx	lr
 129              	.L22:
 130 012a 4FF4C043 		mov	r3, #24576
 131 012e C4F20203 		movt	r3, 16386
 132 0132 4FF07462 		mov	r2, #255852544
 133 0136 9A60     		str	r2, [r3, #8]
 134 0138 7047     		bx	lr
 135              	.L23:
 136 013a 4FF4C043 		mov	r3, #24576
 137 013e C4F20203 		movt	r3, 16386
 138 0142 3D22     		movs	r2, #61
 139 0144 C2F20002 		movt	r2, 8192
 140 0148 DA60     		str	r2, [r3, #12]
 141 014a 7047     		bx	lr
 142              	.L24:
 143 014c 4FF4C043 		mov	r3, #24576
 144 0150 C4F20203 		movt	r3, 16386
 145 0154 4FF47462 		mov	r2, #3904
 146 0158 C2F20002 		movt	r2, 8192
 147 015c DA60     		str	r2, [r3, #12]
 148 015e 7047     		bx	lr
 149              	.L26:
 150 0160 4FF4C043 		mov	r3, #24576
 151 0164 C4F20203 		movt	r3, 16386
 152 0168 4FF03D52 		mov	r2, #792723456
 153 016c DA60     		str	r2, [r3, #12]
 154 016e 7047     		bx	lr
 155              	.L27:
 156 0170 4FF4C843 		mov	r3, #25600
 157 0174 C4F20203 		movt	r3, 16386
 158 0178 3D22     		movs	r2, #61
 159 017a 9A60     		str	r2, [r3, #8]
 160 017c 7047     		bx	lr
 161              	.L28:
 162 017e 4FF4C843 		mov	r3, #25600
 163 0182 C4F20203 		movt	r3, 16386
 164 0186 4FF47462 		mov	r2, #3904
 165 018a 9A60     		str	r2, [r3, #8]
 166 018c 7047     		bx	lr
 167              	.L29:
 168 018e 4FF4C843 		mov	r3, #25600
 169 0192 C4F20203 		movt	r3, 16386
 170 0196 4FF47412 		mov	r2, #3997696
 171 019a 9A60     		str	r2, [r3, #8]
 172 019c 7047     		bx	lr
 173              	.L30:
 174 019e 4FF4C843 		mov	r3, #25600
 175 01a2 C4F20203 		movt	r3, 16386
 176 01a6 4FF07462 		mov	r2, #255852544
 177 01aa 9A60     		str	r2, [r3, #8]
 178 01ac 7047     		bx	lr
 179              	.L31:
 180 01ae 4FF4C843 		mov	r3, #25600
 181 01b2 C4F20203 		movt	r3, 16386
 182 01b6 3D22     		movs	r2, #61
 183 01b8 C2F20002 		movt	r2, 8192
 184 01bc DA60     		str	r2, [r3, #12]
 185 01be 7047     		bx	lr
 186              	.L32:
 187 01c0 4FF4C843 		mov	r3, #25600
 188 01c4 C4F20203 		movt	r3, 16386
 189 01c8 4FF47462 		mov	r2, #3904
 190 01cc C2F20002 		movt	r2, 8192
 191 01d0 DA60     		str	r2, [r3, #12]
 192 01d2 7047     		bx	lr
 193              	.L33:
 194 01d4 4FF4C843 		mov	r3, #25600
 195 01d8 C4F20203 		movt	r3, 16386
 196 01dc 0022     		movs	r2, #0
 197 01de C2F23D02 		movt	r2, 8253
 198 01e2 DA60     		str	r2, [r3, #12]
 199 01e4 7047     		bx	lr
 201 01e6 00BF     		.align	2
 202              		.global	DMA_Init
 203              		.thumb
 204              		.thumb_func
 206              	DMA_Init:
 207              		@ args = 0, pretend = 0, frame = 24
 208              		@ frame_needed = 0, uses_anonymous_args = 0
 209              		@ link register save eliminated.
 210 01e8 2DE9F00F 		push	{r4, r5, r6, r7, r8, r9, sl, fp}
 211 01ec D1F80CA0 		ldr	sl, [r1, #12]
 212 01f0 D1F80090 		ldr	r9, [r1, #0]
 213 01f4 D1F81480 		ldr	r8, [r1, #20]
 214 01f8 D1F818C0 		ldr	ip, [r1, #24]
 215 01fc CF69     		ldr	r7, [r1, #28]
 216 01fe 0368     		ldr	r3, [r0, #0]
 217 0200 0E6A     		ldr	r6, [r1, #32]
 218 0202 4D6A     		ldr	r5, [r1, #36]
 219 0204 8C6A     		ldr	r4, [r1, #40]
 220 0206 4A6B     		ldr	r2, [r1, #52]
 221 0208 D1F838B0 		ldr	fp, [r1, #56]
 222 020c 4AEA0909 		orr	r9, sl, r9
 223 0210 49EA0809 		orr	r9, r9, r8
 224 0214 86B0     		sub	sp, sp, #24
 225 0216 49EA0C09 		orr	r9, r9, ip
 226 021a 49EA0709 		orr	r9, r9, r7
 227 021e 0193     		str	r3, [sp, #4]
 228 0220 49EA0609 		orr	r9, r9, r6
 229 0224 0B6B     		ldr	r3, [r1, #48]
 230 0226 49EA0505 		orr	r5, r9, r5
 231 022a 2C43     		orrs	r4, r4, r5
 232 022c 0493     		str	r3, [sp, #16]
 233 022e CB6A     		ldr	r3, [r1, #44]
 234 0230 049D     		ldr	r5, [sp, #16]
 235 0232 0593     		str	r3, [sp, #20]
 236 0234 2243     		orrs	r2, r2, r4
 237 0236 48F23F08 		movw	r8, #32831
 238 023a 019C     		ldr	r4, [sp, #4]
 239 023c 0B69     		ldr	r3, [r1, #16]
 240 023e CFF21C08 		movt	r8, 61468
 241 0242 04EA0808 		and	r8, r4, r8
 242 0246 42EA0B02 		orr	r2, r2, fp
 243 024a 0293     		str	r3, [sp, #8]
 244 024c 42EA0802 		orr	r2, r2, r8
 245 0250 4B68     		ldr	r3, [r1, #4]
 246 0252 8968     		ldr	r1, [r1, #8]
 247 0254 0260     		str	r2, [r0, #0]
 248 0256 0393     		str	r3, [sp, #12]
 249 0258 059C     		ldr	r4, [sp, #20]
 250 025a 4369     		ldr	r3, [r0, #20]
 251 025c 45EA0402 		orr	r2, r5, r4
 252 0260 23F00703 		bic	r3, r3, #7
 253 0264 1343     		orrs	r3, r3, r2
 254 0266 4361     		str	r3, [r0, #20]
 255 0268 029D     		ldr	r5, [sp, #8]
 256 026a 039B     		ldr	r3, [sp, #12]
 257 026c 4560     		str	r5, [r0, #4]
 258 026e 8360     		str	r3, [r0, #8]
 259 0270 C160     		str	r1, [r0, #12]
 260 0272 06B0     		add	sp, sp, #24
 261 0274 BDE8F00F 		pop	{r4, r5, r6, r7, r8, r9, sl, fp}
 262 0278 7047     		bx	lr
 264 027a 00BF     		.align	2
 265              		.global	DMA_StructInit
 266              		.thumb
 267              		.thumb_func
 269              	DMA_StructInit:
 270              		@ args = 0, pretend = 0, frame = 0
 271              		@ frame_needed = 0, uses_anonymous_args = 0
 272              		@ link register save eliminated.
 273 027c 0023     		movs	r3, #0
 274 027e 0360     		str	r3, [r0, #0]
 275 0280 4360     		str	r3, [r0, #4]
 276 0282 8360     		str	r3, [r0, #8]
 277 0284 C360     		str	r3, [r0, #12]
 278 0286 0361     		str	r3, [r0, #16]
 279 0288 4361     		str	r3, [r0, #20]
 280 028a 8361     		str	r3, [r0, #24]
 281 028c C361     		str	r3, [r0, #28]
 282 028e 0362     		str	r3, [r0, #32]
 283 0290 4362     		str	r3, [r0, #36]
 284 0292 8362     		str	r3, [r0, #40]
 285 0294 C362     		str	r3, [r0, #44]
 286 0296 0363     		str	r3, [r0, #48]
 287 0298 4363     		str	r3, [r0, #52]
 288 029a 8363     		str	r3, [r0, #56]
 289 029c 7047     		bx	lr
 291 029e 00BF     		.align	2
 292              		.global	DMA_Cmd
 293              		.thumb
 294              		.thumb_func
 296              	DMA_Cmd:
 297              		@ args = 0, pretend = 0, frame = 0
 298              		@ frame_needed = 0, uses_anonymous_args = 0
 299              		@ link register save eliminated.
 300 02a0 0368     		ldr	r3, [r0, #0]
 301 02a2 19B9     		cbnz	r1, .L39
 302 02a4 23F00103 		bic	r3, r3, #1
 303 02a8 0360     		str	r3, [r0, #0]
 304 02aa 7047     		bx	lr
 305              	.L39:
 306 02ac 43F00103 		orr	r3, r3, #1
 307 02b0 0360     		str	r3, [r0, #0]
 308 02b2 7047     		bx	lr
 310              		.align	2
 311              		.global	DMA_PeriphIncOffsetSizeConfig
 312              		.thumb
 313              		.thumb_func
 315              	DMA_PeriphIncOffsetSizeConfig:
 316              		@ args = 0, pretend = 0, frame = 0
 317              		@ frame_needed = 0, uses_anonymous_args = 0
 318              		@ link register save eliminated.
 319 02b4 0368     		ldr	r3, [r0, #0]
 320 02b6 19B9     		cbnz	r1, .L43
 321 02b8 23F40043 		bic	r3, r3, #32768
 322 02bc 0360     		str	r3, [r0, #0]
 323 02be 7047     		bx	lr
 324              	.L43:
 325 02c0 43F40043 		orr	r3, r3, #32768
 326 02c4 0360     		str	r3, [r0, #0]
 327 02c6 7047     		bx	lr
 329              		.align	2
 330              		.global	DMA_FlowControllerConfig
 331              		.thumb
 332              		.thumb_func
 334              	DMA_FlowControllerConfig:
 335              		@ args = 0, pretend = 0, frame = 0
 336              		@ frame_needed = 0, uses_anonymous_args = 0
 337              		@ link register save eliminated.
 338 02c8 0368     		ldr	r3, [r0, #0]
 339 02ca 19B9     		cbnz	r1, .L47
 340 02cc 23F02003 		bic	r3, r3, #32
 341 02d0 0360     		str	r3, [r0, #0]
 342 02d2 7047     		bx	lr
 343              	.L47:
 344 02d4 43F02003 		orr	r3, r3, #32
 345 02d8 0360     		str	r3, [r0, #0]
 346 02da 7047     		bx	lr
 348              		.align	2
 349              		.global	DMA_SetCurrDataCounter
 350              		.thumb
 351              		.thumb_func
 353              	DMA_SetCurrDataCounter:
 354              		@ args = 0, pretend = 0, frame = 0
 355              		@ frame_needed = 0, uses_anonymous_args = 0
 356              		@ link register save eliminated.
 357 02dc 4160     		str	r1, [r0, #4]
 358 02de 7047     		bx	lr
 360              		.align	2
 361              		.global	DMA_GetCurrDataCounter
 362              		.thumb
 363              		.thumb_func
 365              	DMA_GetCurrDataCounter:
 366              		@ args = 0, pretend = 0, frame = 0
 367              		@ frame_needed = 0, uses_anonymous_args = 0
 368              		@ link register save eliminated.
 369 02e0 4068     		ldr	r0, [r0, #4]
 370 02e2 80B2     		uxth	r0, r0
 371 02e4 7047     		bx	lr
 373 02e6 00BF     		.align	2
 374              		.global	DMA_DoubleBufferModeConfig
 375              		.thumb
 376              		.thumb_func
 378              	DMA_DoubleBufferModeConfig:
 379              		@ args = 0, pretend = 0, frame = 0
 380              		@ frame_needed = 0, uses_anonymous_args = 0
 381              		@ link register save eliminated.
 382 02e8 0368     		ldr	r3, [r0, #0]
 383 02ea 22B9     		cbnz	r2, .L53
 384 02ec 23F40023 		bic	r3, r3, #524288
 385 02f0 0360     		str	r3, [r0, #0]
 386 02f2 0161     		str	r1, [r0, #16]
 387 02f4 7047     		bx	lr
 388              	.L53:
 389 02f6 43F40023 		orr	r3, r3, #524288
 390 02fa 0360     		str	r3, [r0, #0]
 391 02fc 0161     		str	r1, [r0, #16]
 392 02fe 7047     		bx	lr
 394              		.align	2
 395              		.global	DMA_DoubleBufferModeCmd
 396              		.thumb
 397              		.thumb_func
 399              	DMA_DoubleBufferModeCmd:
 400              		@ args = 0, pretend = 0, frame = 0
 401              		@ frame_needed = 0, uses_anonymous_args = 0
 402              		@ link register save eliminated.
 403 0300 0368     		ldr	r3, [r0, #0]
 404 0302 19B9     		cbnz	r1, .L57
 405 0304 23F48023 		bic	r3, r3, #262144
 406 0308 0360     		str	r3, [r0, #0]
 407 030a 7047     		bx	lr
 408              	.L57:
 409 030c 43F48023 		orr	r3, r3, #262144
 410 0310 0360     		str	r3, [r0, #0]
 411 0312 7047     		bx	lr
 413              		.align	2
 414              		.global	DMA_MemoryTargetConfig
 415              		.thumb
 416              		.thumb_func
 418              	DMA_MemoryTargetConfig:
 419              		@ args = 0, pretend = 0, frame = 0
 420              		@ frame_needed = 0, uses_anonymous_args = 0
 421              		@ link register save eliminated.
 422 0314 0AB9     		cbnz	r2, .L61
 423 0316 C160     		str	r1, [r0, #12]
 424 0318 7047     		bx	lr
 425              	.L61:
 426 031a 0161     		str	r1, [r0, #16]
 427 031c 7047     		bx	lr
 429 031e 00BF     		.align	2
 430              		.global	DMA_GetCurrentMemoryTarget
 431              		.thumb
 432              		.thumb_func
 434              	DMA_GetCurrentMemoryTarget:
 435              		@ args = 0, pretend = 0, frame = 0
 436              		@ frame_needed = 0, uses_anonymous_args = 0
 437              		@ link register save eliminated.
 438 0320 0068     		ldr	r0, [r0, #0]
 439 0322 C0F3C040 		ubfx	r0, r0, #19, #1
 440 0326 7047     		bx	lr
 442              		.align	2
 443              		.global	DMA_GetCmdStatus
 444              		.thumb
 445              		.thumb_func
 447              	DMA_GetCmdStatus:
 448              		@ args = 0, pretend = 0, frame = 0
 449              		@ frame_needed = 0, uses_anonymous_args = 0
 450              		@ link register save eliminated.
 451 0328 0068     		ldr	r0, [r0, #0]
 452 032a 00F00100 		and	r0, r0, #1
 453 032e 7047     		bx	lr
 455              		.align	2
 456              		.global	DMA_GetFIFOStatus
 457              		.thumb
 458              		.thumb_func
 460              	DMA_GetFIFOStatus:
 461              		@ args = 0, pretend = 0, frame = 0
 462              		@ frame_needed = 0, uses_anonymous_args = 0
 463              		@ link register save eliminated.
 464 0330 4069     		ldr	r0, [r0, #20]
 465 0332 00F03800 		and	r0, r0, #56
 466 0336 7047     		bx	lr
 468              		.align	2
 469              		.global	DMA_GetFlagStatus
 470              		.thumb
 471              		.thumb_func
 473              	DMA_GetFlagStatus:
 474              		@ args = 0, pretend = 0, frame = 0
 475              		@ frame_needed = 0, uses_anonymous_args = 0
 476              		@ link register save eliminated.
 477 0338 10B4     		push	{r4}
 478 033a 4FF4C842 		mov	r2, #25600
 479 033e 46F20F44 		movw	r4, #25615
 480 0342 4FF4C043 		mov	r3, #24576
 481 0346 C4F20202 		movt	r2, 16386
 482 034a C4F20204 		movt	r4, 16386
 483 034e C4F20203 		movt	r3, 16386
 484 0352 A042     		cmp	r0, r4
 485 0354 88BF     		it	hi
 486 0356 1346     		movhi	r3, r2
 487 0358 8A00     		lsls	r2, r1, #2
 488 035a 4CBF     		ite	mi
 489 035c 5B68     		ldrmi	r3, [r3, #4]
 490 035e 1B68     		ldrpl	r3, [r3, #0]
 491 0360 21F0F021 		bic	r1, r1, #-268374016
 492 0364 21F08211 		bic	r1, r1, #8519810
 493 0368 1942     		tst	r1, r3
 494 036a 0CBF     		ite	eq
 495 036c 0020     		moveq	r0, #0
 496 036e 0120     		movne	r0, #1
 497 0370 10BC     		pop	{r4}
 498 0372 7047     		bx	lr
 500              		.align	2
 501              		.global	DMA_ClearFlag
 502              		.thumb
 503              		.thumb_func
 505              	DMA_ClearFlag:
 506              		@ args = 0, pretend = 0, frame = 0
 507              		@ frame_needed = 0, uses_anonymous_args = 0
 508              		@ link register save eliminated.
 509 0374 10B4     		push	{r4}
 510 0376 4FF4C842 		mov	r2, #25600
 511 037a 46F20F44 		movw	r4, #25615
 512 037e 4FF4C043 		mov	r3, #24576
 513 0382 C4F20204 		movt	r4, 16386
 514 0386 C4F20202 		movt	r2, 16386
 515 038a C4F20203 		movt	r3, 16386
 516 038e A042     		cmp	r0, r4
 517 0390 88BF     		it	hi
 518 0392 1346     		movhi	r3, r2
 519 0394 11F0005F 		tst	r1, #536870912
 520 0398 21F0F021 		bic	r1, r1, #-268374016
 521 039c 21F08211 		bic	r1, r1, #8519810
 522 03a0 14BF     		ite	ne
 523 03a2 D960     		strne	r1, [r3, #12]
 524 03a4 9960     		streq	r1, [r3, #8]
 525 03a6 10BC     		pop	{r4}
 526 03a8 7047     		bx	lr
 528 03aa 00BF     		.align	2
 529              		.global	DMA_ITConfig
 530              		.thumb
 531              		.thumb_func
 533              	DMA_ITConfig:
 534              		@ args = 0, pretend = 0, frame = 0
 535              		@ frame_needed = 0, uses_anonymous_args = 0
 536              		@ link register save eliminated.
 537 03ac 0B06     		lsls	r3, r1, #24
 538 03ae 04D5     		bpl	.L76
 539 03b0 4369     		ldr	r3, [r0, #20]
 540 03b2 7AB1     		cbz	r2, .L77
 541 03b4 43F08003 		orr	r3, r3, #128
 542 03b8 4361     		str	r3, [r0, #20]
 543              	.L76:
 544 03ba 8029     		cmp	r1, #128
 545 03bc 06D0     		beq	.L75
 546 03be 0368     		ldr	r3, [r0, #0]
 547 03c0 01F01E01 		and	r1, r1, #30
 548 03c4 1AB9     		cbnz	r2, .L80
 549 03c6 23EA0101 		bic	r1, r3, r1
 550 03ca 0160     		str	r1, [r0, #0]
 551              	.L75:
 552 03cc 7047     		bx	lr
 553              	.L80:
 554 03ce 1943     		orrs	r1, r1, r3
 555 03d0 0160     		str	r1, [r0, #0]
 556 03d2 7047     		bx	lr
 557              	.L77:
 558 03d4 23F08003 		bic	r3, r3, #128
 559 03d8 4361     		str	r3, [r0, #20]
 560 03da EEE7     		b	.L76
 562              		.align	2
 563              		.global	DMA_GetITStatus
 564              		.thumb
 565              		.thumb_func
 567              	DMA_GetITStatus:
 568              		@ args = 0, pretend = 0, frame = 0
 569              		@ frame_needed = 0, uses_anonymous_args = 0
 570              		@ link register save eliminated.
 571 03dc 70B4     		push	{r4, r5, r6}
 572 03de 4FF4C042 		mov	r2, #24576
 573 03e2 46F20F45 		movw	r5, #25615
 574 03e6 4FF4C844 		mov	r4, #25600
 575 03ea 21F0F023 		bic	r3, r1, #-268374016
 576 03ee C4F20205 		movt	r5, 16386
 577 03f2 C4F20204 		movt	r4, 16386
 578 03f6 C4F20202 		movt	r2, 16386
 579 03fa 23F0C316 		bic	r6, r3, #12779715
 580 03fe A842     		cmp	r0, r5
 581 0400 88BF     		it	hi
 582 0402 2246     		movhi	r2, r4
 583 0404 AEB1     		cbz	r6, .L83
 584 0406 0068     		ldr	r0, [r0, #0]
 585 0408 00F01E00 		and	r0, r0, #30
 586 040c 00EAD120 		and	r0, r0, r1, lsr #11
 587              	.L84:
 588 0410 8900     		lsls	r1, r1, #2
 589 0412 4CBF     		ite	mi
 590 0414 5268     		ldrmi	r2, [r2, #4]
 591 0416 1268     		ldrpl	r2, [r2, #0]
 592 0418 23F08213 		bic	r3, r3, #8519810
 593 041c 1342     		tst	r3, r2
 594 041e 0CBF     		ite	eq
 595 0420 0023     		moveq	r3, #0
 596 0422 0123     		movne	r3, #1
 597 0424 0028     		cmp	r0, #0
 598 0426 0CBF     		ite	eq
 599 0428 0020     		moveq	r0, #0
 600 042a 03F00100 		andne	r0, r3, #1
 601 042e 70BC     		pop	{r4, r5, r6}
 602 0430 7047     		bx	lr
 603              	.L83:
 604 0432 4069     		ldr	r0, [r0, #20]
 605 0434 00F08000 		and	r0, r0, #128
 606 0438 EAE7     		b	.L84
 608 043a 00BF     		.align	2
 609              		.global	DMA_ClearITPendingBit
 610              		.thumb
 611              		.thumb_func
 613              	DMA_ClearITPendingBit:
 614              		@ args = 0, pretend = 0, frame = 0
 615              		@ frame_needed = 0, uses_anonymous_args = 0
 616              		@ link register save eliminated.
 617 043c 10B4     		push	{r4}
 618 043e 4FF4C842 		mov	r2, #25600
 619 0442 46F20F44 		movw	r4, #25615
 620 0446 4FF4C043 		mov	r3, #24576
 621 044a C4F20204 		movt	r4, 16386
 622 044e C4F20202 		movt	r2, 16386
 623 0452 C4F20203 		movt	r3, 16386
 624 0456 A042     		cmp	r0, r4
 625 0458 88BF     		it	hi
 626 045a 1346     		movhi	r3, r2
 627 045c 11F0005F 		tst	r1, #536870912
 628 0460 21F0F021 		bic	r1, r1, #-268374016
 629 0464 21F08211 		bic	r1, r1, #8519810
 630 0468 14BF     		ite	ne
 631 046a D960     		strne	r1, [r3, #12]
 632 046c 9960     		streq	r1, [r3, #8]
 633 046e 10BC     		pop	{r4}
 634 0470 7047     		bx	lr
 636 0472 00BF     		.ident	"GCC: (Linaro GCC 4.6-2011.10) 4.6.2 20111004 (prerelease)"