   1              		.syntax unified
   2              		.cpu cortex-m4
   3              		.fpu softvfp
   4              		.eabi_attribute 20, 1
   5              		.eabi_attribute 21, 1
   6              		.eabi_attribute 23, 3
   7              		.eabi_attribute 24, 1
   8              		.eabi_attribute 25, 1
   9              		.eabi_attribute 26, 1
  10              		.eabi_attribute 30, 2
  11              		.eabi_attribute 18, 4
  12              		.thumb
  13              		.file	"stm32f4xx_can.c"
  14              		.text
  15              		.align	2
  16              		.global	CAN_DeInit
  17              		.thumb
  18              		.thumb_func
  20              	CAN_DeInit:
  21              		@ args = 0, pretend = 0, frame = 0
  22              		@ frame_needed = 0, uses_anonymous_args = 0
  23 0000 08B5     		push	{r3, lr}
  24 0002 4FF4C843 		mov	r3, #25600
  25 0006 C4F20003 		movt	r3, 16384
  26 000a 9842     		cmp	r0, r3
  27 000c 0BD0     		beq	.L4
  28 000e 0121     		movs	r1, #1
  29 0010 4FF08060 		mov	r0, #67108864
  30 0014 FFF7FEFF 		bl	RCC_APB1PeriphResetCmd
  31 0018 4FF08060 		mov	r0, #67108864
  32 001c 0021     		movs	r1, #0
  33 001e BDE80840 		pop	{r3, lr}
  34 0022 FFF7FEBF 		b	RCC_APB1PeriphResetCmd
  35              	.L4:
  36 0026 0121     		movs	r1, #1
  37 0028 4FF00070 		mov	r0, #33554432
  38 002c FFF7FEFF 		bl	RCC_APB1PeriphResetCmd
  39 0030 4FF00070 		mov	r0, #33554432
  40 0034 0021     		movs	r1, #0
  41 0036 BDE80840 		pop	{r3, lr}
  42 003a FFF7FEBF 		b	RCC_APB1PeriphResetCmd
  44 003e 00BF     		.align	2
  45              		.global	CAN_Init
  46              		.thumb
  47              		.thumb_func
  49              	CAN_Init:
  50              		@ args = 0, pretend = 0, frame = 0
  51              		@ frame_needed = 0, uses_anonymous_args = 0
  52              		@ link register save eliminated.
  53 0040 0368     		ldr	r3, [r0, #0]
  54 0042 23F00203 		bic	r3, r3, #2
  55 0046 70B4     		push	{r4, r5, r6}
  56 0048 0360     		str	r3, [r0, #0]
  57 004a 0368     		ldr	r3, [r0, #0]
  58 004c 43F00103 		orr	r3, r3, #1
  59 0050 0360     		str	r3, [r0, #0]
  60 0052 4368     		ldr	r3, [r0, #4]
  61 0054 DB07     		lsls	r3, r3, #31
  62 0056 07D4     		bmi	.L6
  63 0058 4FF6FF73 		movw	r3, #65535
  64 005c 01E0     		b	.L7
  65              	.L26:
  66 005e 013B     		subs	r3, r3, #1
  67 0060 02D0     		beq	.L6
  68              	.L7:
  69 0062 4268     		ldr	r2, [r0, #4]
  70 0064 D207     		lsls	r2, r2, #31
  71 0066 FAD5     		bpl	.L26
  72              	.L6:
  73 0068 4368     		ldr	r3, [r0, #4]
  74 006a 13F00103 		ands	r3, r3, #1
  75 006e 08BF     		it	eq
  76 0070 1846     		moveq	r0, r3
  77 0072 59D0     		beq	.L8
  78 0074 8B79     		ldrb	r3, [r1, #6]	@ zero_extendqisi2
  79 0076 012B     		cmp	r3, #1
  80 0078 0368     		ldr	r3, [r0, #0]
  81 007a 0CBF     		ite	eq
  82 007c 43F08003 		orreq	r3, r3, #128
  83 0080 23F08003 		bicne	r3, r3, #128
  84 0084 0360     		str	r3, [r0, #0]
  85 0086 CB79     		ldrb	r3, [r1, #7]	@ zero_extendqisi2
  86 0088 012B     		cmp	r3, #1
  87 008a 0368     		ldr	r3, [r0, #0]
  88 008c 0CBF     		ite	eq
  89 008e 43F04003 		orreq	r3, r3, #64
  90 0092 23F04003 		bicne	r3, r3, #64
  91 0096 0360     		str	r3, [r0, #0]
  92 0098 0B7A     		ldrb	r3, [r1, #8]	@ zero_extendqisi2
  93 009a 012B     		cmp	r3, #1
  94 009c 0368     		ldr	r3, [r0, #0]
  95 009e 0CBF     		ite	eq
  96 00a0 43F02003 		orreq	r3, r3, #32
  97 00a4 23F02003 		bicne	r3, r3, #32
  98 00a8 0360     		str	r3, [r0, #0]
  99 00aa 4B7A     		ldrb	r3, [r1, #9]	@ zero_extendqisi2
 100 00ac 012B     		cmp	r3, #1
 101 00ae 0368     		ldr	r3, [r0, #0]
 102 00b0 0CBF     		ite	eq
 103 00b2 43F01003 		orreq	r3, r3, #16
 104 00b6 23F01003 		bicne	r3, r3, #16
 105 00ba 0360     		str	r3, [r0, #0]
 106 00bc 8B7A     		ldrb	r3, [r1, #10]	@ zero_extendqisi2
 107 00be 012B     		cmp	r3, #1
 108 00c0 0368     		ldr	r3, [r0, #0]
 109 00c2 0CBF     		ite	eq
 110 00c4 43F00803 		orreq	r3, r3, #8
 111 00c8 23F00803 		bicne	r3, r3, #8
 112 00cc 0360     		str	r3, [r0, #0]
 113 00ce CB7A     		ldrb	r3, [r1, #11]	@ zero_extendqisi2
 114 00d0 012B     		cmp	r3, #1
 115 00d2 0368     		ldr	r3, [r0, #0]
 116 00d4 0CBF     		ite	eq
 117 00d6 43F00403 		orreq	r3, r3, #4
 118 00da 23F00403 		bicne	r3, r3, #4
 119 00de 0360     		str	r3, [r0, #0]
 120 00e0 8A78     		ldrb	r2, [r1, #2]	@ zero_extendqisi2
 121 00e2 CE78     		ldrb	r6, [r1, #3]	@ zero_extendqisi2
 122 00e4 0D79     		ldrb	r5, [r1, #4]	@ zero_extendqisi2
 123 00e6 4C79     		ldrb	r4, [r1, #5]	@ zero_extendqisi2
 124 00e8 0B88     		ldrh	r3, [r1, #0]
 125 00ea 9207     		lsls	r2, r2, #30
 126 00ec 42EA0662 		orr	r2, r2, r6, lsl #24
 127 00f0 42EA0542 		orr	r2, r2, r5, lsl #16
 128 00f4 013B     		subs	r3, r3, #1
 129 00f6 42EA0452 		orr	r2, r2, r4, lsl #20
 130 00fa 1343     		orrs	r3, r3, r2
 131 00fc C361     		str	r3, [r0, #28]
 132 00fe 0368     		ldr	r3, [r0, #0]
 133 0100 23F00103 		bic	r3, r3, #1
 134 0104 0360     		str	r3, [r0, #0]
 135 0106 4368     		ldr	r3, [r0, #4]
 136 0108 D907     		lsls	r1, r3, #31
 137 010a 07D5     		bpl	.L21
 138 010c 4FF6FF73 		movw	r3, #65535
 139 0110 01E0     		b	.L22
 140              	.L27:
 141 0112 013B     		subs	r3, r3, #1
 142 0114 02D0     		beq	.L21
 143              	.L22:
 144 0116 4268     		ldr	r2, [r0, #4]
 145 0118 D207     		lsls	r2, r2, #31
 146 011a FAD4     		bmi	.L27
 147              	.L21:
 148 011c 4368     		ldr	r3, [r0, #4]
 149 011e 13F0010F 		tst	r3, #1
 150 0122 14BF     		ite	ne
 151 0124 0020     		movne	r0, #0
 152 0126 0120     		moveq	r0, #1
 153              	.L8:
 154 0128 70BC     		pop	{r4, r5, r6}
 155 012a 7047     		bx	lr
 157              		.align	2
 158              		.global	CAN_FilterInit
 159              		.thumb
 160              		.thumb_func
 162              	CAN_FilterInit:
 163              		@ args = 0, pretend = 0, frame = 0
 164              		@ frame_needed = 0, uses_anonymous_args = 0
 165              		@ link register save eliminated.
 166 012c 4FF4C843 		mov	r3, #25600
 167 0130 C4F20003 		movt	r3, 16384
 168 0134 827A     		ldrb	r2, [r0, #10]	@ zero_extendqisi2
 169 0136 D3F80012 		ldr	r1, [r3, #512]
 170 013a 41F00101 		orr	r1, r1, #1
 171 013e F0B4     		push	{r4, r5, r6, r7}
 172 0140 C3F80012 		str	r1, [r3, #512]
 173 0144 0124     		movs	r4, #1
 174 0146 D3F81C12 		ldr	r1, [r3, #540]
 175 014a 9440     		lsls	r4, r4, r2
 176 014c E243     		mvns	r2, r4
 177 014e 1140     		ands	r1, r1, r2
 178 0150 C3F81C12 		str	r1, [r3, #540]
 179 0154 017B     		ldrb	r1, [r0, #12]	@ zero_extendqisi2
 180 0156 D1B9     		cbnz	r1, .L29
 181 0158 D3F80C62 		ldr	r6, [r3, #524]
 182 015c B0F806C0 		ldrh	ip, [r0, #6]
 183 0160 4788     		ldrh	r7, [r0, #2]
 184 0162 8588     		ldrh	r5, [r0, #4]
 185 0164 0188     		ldrh	r1, [r0, #0]
 186 0166 1640     		ands	r6, r6, r2
 187 0168 C3F80C62 		str	r6, [r3, #524]
 188 016c 867A     		ldrb	r6, [r0, #10]	@ zero_extendqisi2
 189 016e 4836     		adds	r6, r6, #72
 190 0170 47EA0C47 		orr	r7, r7, ip, lsl #16
 191 0174 43F83670 		str	r7, [r3, r6, lsl #3]
 192 0178 867A     		ldrb	r6, [r0, #10]	@ zero_extendqisi2
 193 017a 46F24063 		movw	r3, #26176
 194 017e F600     		lsls	r6, r6, #3
 195 0180 C4F20003 		movt	r3, 16384
 196 0184 F318     		adds	r3, r6, r3
 197 0186 41EA0541 		orr	r1, r1, r5, lsl #16
 198 018a 5960     		str	r1, [r3, #4]
 199 018c 017B     		ldrb	r1, [r0, #12]	@ zero_extendqisi2
 200              	.L29:
 201 018e 0129     		cmp	r1, #1
 202 0190 49D0     		beq	.L36
 203              	.L30:
 204 0192 C37A     		ldrb	r3, [r0, #11]	@ zero_extendqisi2
 205 0194 002B     		cmp	r3, #0
 206 0196 2DD1     		bne	.L31
 207 0198 4FF4C843 		mov	r3, #25600
 208 019c C4F20003 		movt	r3, 16384
 209 01a0 D3F80412 		ldr	r1, [r3, #516]
 210 01a4 1140     		ands	r1, r1, r2
 211 01a6 C3F80412 		str	r1, [r3, #516]
 212 01aa 0389     		ldrh	r3, [r0, #8]
 213 01ac 002B     		cmp	r3, #0
 214 01ae 2DD1     		bne	.L33
 215              	.L37:
 216 01b0 4FF4C843 		mov	r3, #25600
 217 01b4 C4F20003 		movt	r3, 16384
 218 01b8 D3F81412 		ldr	r1, [r3, #532]
 219 01bc 0A40     		ands	r2, r2, r1
 220 01be C3F81422 		str	r2, [r3, #532]
 221              	.L34:
 222 01c2 437B     		ldrb	r3, [r0, #13]	@ zero_extendqisi2
 223 01c4 012B     		cmp	r3, #1
 224 01c6 01BF     		itttt	eq
 225 01c8 4FF4C843 		moveq	r3, #25600
 226 01cc C4F20003 		movteq	r3, 16384
 227 01d0 D3F81C22 		ldreq	r2, [r3, #540]
 228 01d4 1443     		orreq	r4, r4, r2
 229 01d6 08BF     		it	eq
 230 01d8 C3F81C42 		streq	r4, [r3, #540]
 231 01dc 4FF4C843 		mov	r3, #25600
 232 01e0 C4F20003 		movt	r3, 16384
 233 01e4 D3F80022 		ldr	r2, [r3, #512]
 234 01e8 22F00102 		bic	r2, r2, #1
 235 01ec C3F80022 		str	r2, [r3, #512]
 236 01f0 F0BC     		pop	{r4, r5, r6, r7}
 237 01f2 7047     		bx	lr
 238              	.L31:
 239 01f4 4FF4C843 		mov	r3, #25600
 240 01f8 C4F20003 		movt	r3, 16384
 241 01fc D3F80412 		ldr	r1, [r3, #516]
 242 0200 2143     		orrs	r1, r1, r4
 243 0202 C3F80412 		str	r1, [r3, #516]
 244 0206 0389     		ldrh	r3, [r0, #8]
 245 0208 002B     		cmp	r3, #0
 246 020a D1D0     		beq	.L37
 247              	.L33:
 248 020c 012B     		cmp	r3, #1
 249 020e 01BF     		itttt	eq
 250 0210 4FF4C843 		moveq	r3, #25600
 251 0214 C4F20003 		movteq	r3, 16384
 252 0218 D3F81422 		ldreq	r2, [r3, #532]
 253 021c 2243     		orreq	r2, r4, r2
 254 021e 08BF     		it	eq
 255 0220 C3F81422 		streq	r2, [r3, #532]
 256 0224 CDE7     		b	.L34
 257              	.L36:
 258 0226 4FF4C843 		mov	r3, #25600
 259 022a C4F20003 		movt	r3, 16384
 260 022e B0F800C0 		ldrh	ip, [r0, #0]
 261 0232 D3F80C62 		ldr	r6, [r3, #524]
 262 0236 4788     		ldrh	r7, [r0, #2]
 263 0238 8588     		ldrh	r5, [r0, #4]
 264 023a C188     		ldrh	r1, [r0, #6]
 265 023c 2643     		orrs	r6, r6, r4
 266 023e C3F80C62 		str	r6, [r3, #524]
 267 0242 867A     		ldrb	r6, [r0, #10]	@ zero_extendqisi2
 268 0244 4836     		adds	r6, r6, #72
 269 0246 47EA0C47 		orr	r7, r7, ip, lsl #16
 270 024a 43F83670 		str	r7, [r3, r6, lsl #3]
 271 024e 867A     		ldrb	r6, [r0, #10]	@ zero_extendqisi2
 272 0250 46F24063 		movw	r3, #26176
 273 0254 F600     		lsls	r6, r6, #3
 274 0256 C4F20003 		movt	r3, 16384
 275 025a F318     		adds	r3, r6, r3
 276 025c 41EA0541 		orr	r1, r1, r5, lsl #16
 277 0260 5960     		str	r1, [r3, #4]
 278 0262 96E7     		b	.L30
 280              		.align	2
 281              		.global	CAN_StructInit
 282              		.thumb
 283              		.thumb_func
 285              	CAN_StructInit:
 286              		@ args = 0, pretend = 0, frame = 0
 287              		@ frame_needed = 0, uses_anonymous_args = 0
 288              		@ link register save eliminated.
 289 0264 0023     		movs	r3, #0
 290 0266 8371     		strb	r3, [r0, #6]
 291 0268 C371     		strb	r3, [r0, #7]
 292 026a 0372     		strb	r3, [r0, #8]
 293 026c 4372     		strb	r3, [r0, #9]
 294 026e 8372     		strb	r3, [r0, #10]
 295 0270 C372     		strb	r3, [r0, #11]
 296 0272 8370     		strb	r3, [r0, #2]
 297 0274 C370     		strb	r3, [r0, #3]
 298 0276 0323     		movs	r3, #3
 299 0278 0371     		strb	r3, [r0, #4]
 300 027a 0223     		movs	r3, #2
 301 027c 4371     		strb	r3, [r0, #5]
 302 027e 0123     		movs	r3, #1
 303 0280 0380     		strh	r3, [r0, #0]	@ movhi
 304 0282 7047     		bx	lr
 306              		.align	2
 307              		.global	CAN_SlaveStartBank
 308              		.thumb
 309              		.thumb_func
 311              	CAN_SlaveStartBank:
 312              		@ args = 0, pretend = 0, frame = 0
 313              		@ frame_needed = 0, uses_anonymous_args = 0
 314              		@ link register save eliminated.
 315 0284 4FF4C843 		mov	r3, #25600
 316 0288 C4F20003 		movt	r3, 16384
 317 028c D3F80022 		ldr	r2, [r3, #512]
 318 0290 42F00102 		orr	r2, r2, #1
 319 0294 C3F80022 		str	r2, [r3, #512]
 320 0298 D3F80022 		ldr	r2, [r3, #512]
 321 029c 22F47C52 		bic	r2, r2, #16128
 322 02a0 22F00E02 		bic	r2, r2, #14
 323 02a4 C3F80022 		str	r2, [r3, #512]
 324 02a8 D3F80022 		ldr	r2, [r3, #512]
 325 02ac 42EA0022 		orr	r2, r2, r0, lsl #8
 326 02b0 C3F80022 		str	r2, [r3, #512]
 327 02b4 D3F80022 		ldr	r2, [r3, #512]
 328 02b8 22F00102 		bic	r2, r2, #1
 329 02bc C3F80022 		str	r2, [r3, #512]
 330 02c0 7047     		bx	lr
 332 02c2 00BF     		.align	2
 333              		.global	CAN_DBGFreeze
 334              		.thumb
 335              		.thumb_func
 337              	CAN_DBGFreeze:
 338              		@ args = 0, pretend = 0, frame = 0
 339              		@ frame_needed = 0, uses_anonymous_args = 0
 340              		@ link register save eliminated.
 341 02c4 0368     		ldr	r3, [r0, #0]
 342 02c6 19B9     		cbnz	r1, .L43
 343 02c8 23F48033 		bic	r3, r3, #65536
 344 02cc 0360     		str	r3, [r0, #0]
 345 02ce 7047     		bx	lr
 346              	.L43:
 347 02d0 43F48033 		orr	r3, r3, #65536
 348 02d4 0360     		str	r3, [r0, #0]
 349 02d6 7047     		bx	lr
 351              		.align	2
 352              		.global	CAN_TTComModeCmd
 353              		.thumb
 354              		.thumb_func
 356              	CAN_TTComModeCmd:
 357              		@ args = 0, pretend = 0, frame = 0
 358              		@ frame_needed = 0, uses_anonymous_args = 0
 359              		@ link register save eliminated.
 360 02d8 0368     		ldr	r3, [r0, #0]
 361 02da A9B9     		cbnz	r1, .L47
 362 02dc 23F08003 		bic	r3, r3, #128
 363 02e0 0360     		str	r3, [r0, #0]
 364 02e2 D0F88431 		ldr	r3, [r0, #388]
 365 02e6 23F48073 		bic	r3, r3, #256
 366 02ea C0F88431 		str	r3, [r0, #388]
 367 02ee D0F89431 		ldr	r3, [r0, #404]
 368 02f2 23F48073 		bic	r3, r3, #256
 369 02f6 C0F89431 		str	r3, [r0, #404]
 370 02fa D0F8A431 		ldr	r3, [r0, #420]
 371 02fe 23F48073 		bic	r3, r3, #256
 372 0302 C0F8A431 		str	r3, [r0, #420]
 373 0306 7047     		bx	lr
 374              	.L47:
 375 0308 43F08003 		orr	r3, r3, #128
 376 030c 0360     		str	r3, [r0, #0]
 377 030e D0F88431 		ldr	r3, [r0, #388]
 378 0312 43F48073 		orr	r3, r3, #256
 379 0316 C0F88431 		str	r3, [r0, #388]
 380 031a D0F89431 		ldr	r3, [r0, #404]
 381 031e 43F48073 		orr	r3, r3, #256
 382 0322 C0F89431 		str	r3, [r0, #404]
 383 0326 D0F8A431 		ldr	r3, [r0, #420]
 384 032a 43F48073 		orr	r3, r3, #256
 385 032e C0F8A431 		str	r3, [r0, #420]
 386 0332 7047     		bx	lr
 388              		.align	2
 389              		.global	CAN_Transmit
 390              		.thumb
 391              		.thumb_func
 393              	CAN_Transmit:
 394              		@ args = 0, pretend = 0, frame = 0
 395              		@ frame_needed = 0, uses_anonymous_args = 0
 396              		@ link register save eliminated.
 397 0334 8268     		ldr	r2, [r0, #8]
 398 0336 5201     		lsls	r2, r2, #5
 399 0338 2DE9F001 		push	{r4, r5, r6, r7, r8}
 400 033c 0346     		mov	r3, r0
 401 033e 05D4     		bmi	.L53
 402 0340 8268     		ldr	r2, [r0, #8]
 403 0342 1001     		lsls	r0, r2, #4
 404 0344 54D5     		bpl	.L56
 405 0346 0125     		movs	r5, #1
 406 0348 2846     		mov	r0, r5
 407 034a 01E0     		b	.L49
 408              	.L53:
 409 034c 0025     		movs	r5, #0
 410 034e 2846     		mov	r0, r5
 411              	.L49:
 412 0350 05F11804 		add	r4, r5, #24
 413 0354 2201     		lsls	r2, r4, #4
 414 0356 9E58     		ldr	r6, [r3, r2]
 415 0358 06F00106 		and	r6, r6, #1
 416 035c 9E50     		str	r6, [r3, r2]
 417 035e 0E7A     		ldrb	r6, [r1, #8]	@ zero_extendqisi2
 418 0360 002E     		cmp	r6, #0
 419 0362 3CD0     		beq	.L57
 420 0364 D1F80480 		ldr	r8, [r1, #4]
 421 0368 53F802C0 		ldr	ip, [r3, r2]
 422 036c 4F7A     		ldrb	r7, [r1, #9]	@ zero_extendqisi2
 423 036e 46EAC806 		orr	r6, r6, r8, lsl #3
 424 0372 46EA0C06 		orr	r6, r6, ip
 425 0376 3E43     		orrs	r6, r6, r7
 426 0378 9E50     		str	r6, [r3, r2]
 427              	.L52:
 428 037a 8E7A     		ldrb	r6, [r1, #10]	@ zero_extendqisi2
 429 037c 2401     		lsls	r4, r4, #4
 430 037e 1A19     		adds	r2, r3, r4
 431 0380 06F00F06 		and	r6, r6, #15
 432 0384 8E72     		strb	r6, [r1, #10]
 433 0386 5668     		ldr	r6, [r2, #4]
 434 0388 26F00F06 		bic	r6, r6, #15
 435 038c 5660     		str	r6, [r2, #4]
 436 038e 5668     		ldr	r6, [r2, #4]
 437 0390 8F7A     		ldrb	r7, [r1, #10]	@ zero_extendqisi2
 438 0392 3E43     		orrs	r6, r6, r7
 439 0394 5660     		str	r6, [r2, #4]
 440 0396 4A7B     		ldrb	r2, [r1, #13]	@ zero_extendqisi2
 441 0398 91F80EC0 		ldrb	ip, [r1, #14]	@ zero_extendqisi2
 442 039c CF7A     		ldrb	r7, [r1, #11]	@ zero_extendqisi2
 443 039e 0E7B     		ldrb	r6, [r1, #12]	@ zero_extendqisi2
 444 03a0 1204     		lsls	r2, r2, #16
 445 03a2 42EA0C62 		orr	r2, r2, ip, lsl #24
 446 03a6 03EB0515 		add	r5, r3, r5, lsl #4
 447 03aa 3A43     		orrs	r2, r2, r7
 448 03ac 42EA0622 		orr	r2, r2, r6, lsl #8
 449 03b0 C5F88821 		str	r2, [r5, #392]
 450 03b4 4A7C     		ldrb	r2, [r1, #17]	@ zero_extendqisi2
 451 03b6 8F7C     		ldrb	r7, [r1, #18]	@ zero_extendqisi2
 452 03b8 CE7B     		ldrb	r6, [r1, #15]	@ zero_extendqisi2
 453 03ba 097C     		ldrb	r1, [r1, #16]	@ zero_extendqisi2
 454 03bc 1204     		lsls	r2, r2, #16
 455 03be 42EA0762 		orr	r2, r2, r7, lsl #24
 456 03c2 3243     		orrs	r2, r2, r6
 457 03c4 42EA0122 		orr	r2, r2, r1, lsl #8
 458 03c8 C5F88C21 		str	r2, [r5, #396]
 459 03cc 1A59     		ldr	r2, [r3, r4]
 460 03ce 42F00102 		orr	r2, r2, #1
 461 03d2 1A51     		str	r2, [r3, r4]
 462 03d4 05F5C475 		add	r5, r5, #392
 463              	.L50:
 464 03d8 BDE8F001 		pop	{r4, r5, r6, r7, r8}
 465 03dc 7047     		bx	lr
 466              	.L57:
 467 03de D1F800C0 		ldr	ip, [r1, #0]
 468 03e2 4E7A     		ldrb	r6, [r1, #9]	@ zero_extendqisi2
 469 03e4 9F58     		ldr	r7, [r3, r2]
 470 03e6 46EA4C56 		orr	r6, r6, ip, lsl #21
 471 03ea 3E43     		orrs	r6, r6, r7
 472 03ec 9E50     		str	r6, [r3, r2]
 473 03ee C4E7     		b	.L52
 474              	.L56:
 475 03f0 9A68     		ldr	r2, [r3, #8]
 476 03f2 D200     		lsls	r2, r2, #3
 477 03f4 02D5     		bpl	.L55
 478 03f6 0225     		movs	r5, #2
 479 03f8 2846     		mov	r0, r5
 480 03fa A9E7     		b	.L49
 481              	.L55:
 482 03fc 0420     		movs	r0, #4
 483 03fe EBE7     		b	.L50
 485              		.align	2
 486              		.global	CAN_TransmitStatus
 487              		.thumb
 488              		.thumb_func
 490              	CAN_TransmitStatus:
 491              		@ args = 0, pretend = 0, frame = 0
 492              		@ frame_needed = 0, uses_anonymous_args = 0
 493              		@ link register save eliminated.
 494 0400 0129     		cmp	r1, #1
 495 0402 2AD0     		beq	.L61
 496 0404 10D3     		bcc	.L60
 497 0406 0023     		movs	r3, #0
 498 0408 0229     		cmp	r1, #2
 499 040a 04D1     		bne	.L59
 500 040c 8268     		ldr	r2, [r0, #8]
 501 040e 0023     		movs	r3, #0
 502 0410 C1F20303 		movt	r3, 4099
 503 0414 1340     		ands	r3, r3, r2
 504              	.L59:
 505 0416 0322     		movs	r2, #3
 506 0418 C0F20042 		movt	r2, 1024
 507 041c 9342     		cmp	r3, r2
 508 041e 0DD0     		beq	.L67
 509              	.L72:
 510 0420 0ED8     		bhi	.L68
 511 0422 C3B9     		cbnz	r3, .L70
 512 0424 0220     		movs	r0, #2
 513 0426 7047     		bx	lr
 514              	.L60:
 515 0428 8268     		ldr	r2, [r0, #8]
 516 042a 0323     		movs	r3, #3
 517 042c C0F20043 		movt	r3, 1024
 518 0430 1340     		ands	r3, r3, r2
 519 0432 0322     		movs	r2, #3
 520 0434 C0F20042 		movt	r2, 1024
 521 0438 9342     		cmp	r3, r2
 522 043a F1D1     		bne	.L72
 523              	.L67:
 524 043c 0120     		movs	r0, #1
 525 043e 7047     		bx	lr
 526              	.L68:
 527 0440 4FF44072 		mov	r2, #768
 528 0444 C0F60002 		movt	r2, 2048
 529 0448 9342     		cmp	r3, r2
 530 044a F7D0     		beq	.L67
 531 044c 0022     		movs	r2, #0
 532 044e C1F20302 		movt	r2, 4099
 533 0452 9342     		cmp	r3, r2
 534 0454 F2D0     		beq	.L67
 535              	.L70:
 536 0456 0020     		movs	r0, #0
 537 0458 7047     		bx	lr
 538              	.L61:
 539 045a 8268     		ldr	r2, [r0, #8]
 540 045c 4FF44073 		mov	r3, #768
 541 0460 C0F60003 		movt	r3, 2048
 542 0464 1340     		ands	r3, r3, r2
 543 0466 D6E7     		b	.L59
 545              		.align	2
 546              		.global	CAN_CancelTransmit
 547              		.thumb
 548              		.thumb_func
 550              	CAN_CancelTransmit:
 551              		@ args = 0, pretend = 0, frame = 0
 552              		@ frame_needed = 0, uses_anonymous_args = 0
 553              		@ link register save eliminated.
 554 0468 0129     		cmp	r1, #1
 555 046a 0CD0     		beq	.L76
 556 046c 06D3     		bcc	.L75
 557 046e 0229     		cmp	r1, #2
 558 0470 03D1     		bne	.L73
 559 0472 8368     		ldr	r3, [r0, #8]
 560 0474 43F40003 		orr	r3, r3, #8388608
 561 0478 8360     		str	r3, [r0, #8]
 562              	.L73:
 563 047a 7047     		bx	lr
 564              	.L75:
 565 047c 8368     		ldr	r3, [r0, #8]
 566 047e 43F08003 		orr	r3, r3, #128
 567 0482 8360     		str	r3, [r0, #8]
 568 0484 7047     		bx	lr
 569              	.L76:
 570 0486 8368     		ldr	r3, [r0, #8]
 571 0488 43F40043 		orr	r3, r3, #32768
 572 048c 8360     		str	r3, [r0, #8]
 573 048e 7047     		bx	lr
 575              		.align	2
 576              		.global	CAN_Receive
 577              		.thumb
 578              		.thumb_func
 580              	CAN_Receive:
 581              		@ args = 0, pretend = 0, frame = 0
 582              		@ frame_needed = 0, uses_anonymous_args = 0
 583              		@ link register save eliminated.
 584 0490 01F11B03 		add	r3, r1, #27
 585 0494 30B4     		push	{r4, r5}
 586 0496 1C01     		lsls	r4, r3, #4
 587 0498 0559     		ldr	r5, [r0, r4]
 588 049a 05F00405 		and	r5, r5, #4
 589 049e EDB2     		uxtb	r5, r5
 590 04a0 1572     		strb	r5, [r2, #8]
 591 04a2 0459     		ldr	r4, [r0, r4]
 592 04a4 002D     		cmp	r5, #0
 593 04a6 36D1     		bne	.L79
 594 04a8 640D     		lsrs	r4, r4, #21
 595 04aa 1460     		str	r4, [r2, #0]
 596              	.L80:
 597 04ac 1B01     		lsls	r3, r3, #4
 598 04ae C418     		adds	r4, r0, r3
 599 04b0 C358     		ldr	r3, [r0, r3]
 600 04b2 03F00203 		and	r3, r3, #2
 601 04b6 5372     		strb	r3, [r2, #9]
 602 04b8 6368     		ldr	r3, [r4, #4]
 603 04ba 03F00F03 		and	r3, r3, #15
 604 04be 9372     		strb	r3, [r2, #10]
 605 04c0 6468     		ldr	r4, [r4, #4]
 606 04c2 00EB0113 		add	r3, r0, r1, lsl #4
 607 04c6 240A     		lsrs	r4, r4, #8
 608 04c8 D474     		strb	r4, [r2, #19]
 609 04ca D3F8B841 		ldr	r4, [r3, #440]
 610 04ce D472     		strb	r4, [r2, #11]
 611 04d0 D3F8B841 		ldr	r4, [r3, #440]
 612 04d4 240A     		lsrs	r4, r4, #8
 613 04d6 1473     		strb	r4, [r2, #12]
 614 04d8 D3F8B841 		ldr	r4, [r3, #440]
 615 04dc 240C     		lsrs	r4, r4, #16
 616 04de 5473     		strb	r4, [r2, #13]
 617 04e0 D3F8B841 		ldr	r4, [r3, #440]
 618 04e4 240E     		lsrs	r4, r4, #24
 619 04e6 9473     		strb	r4, [r2, #14]
 620 04e8 D3F8BC41 		ldr	r4, [r3, #444]
 621 04ec D473     		strb	r4, [r2, #15]
 622 04ee D3F8BC41 		ldr	r4, [r3, #444]
 623 04f2 240A     		lsrs	r4, r4, #8
 624 04f4 1474     		strb	r4, [r2, #16]
 625 04f6 D3F8BC41 		ldr	r4, [r3, #444]
 626 04fa 03F5DC73 		add	r3, r3, #440
 627 04fe 240C     		lsrs	r4, r4, #16
 628 0500 5474     		strb	r4, [r2, #17]
 629 0502 5B68     		ldr	r3, [r3, #4]
 630 0504 1B0E     		lsrs	r3, r3, #24
 631 0506 9374     		strb	r3, [r2, #18]
 632 0508 41B1     		cbz	r1, .L83
 633 050a 0369     		ldr	r3, [r0, #16]
 634 050c 43F02003 		orr	r3, r3, #32
 635 0510 0361     		str	r3, [r0, #16]
 636              	.L78:
 637 0512 30BC     		pop	{r4, r5}
 638 0514 7047     		bx	lr
 639              	.L79:
 640 0516 E408     		lsrs	r4, r4, #3
 641 0518 5460     		str	r4, [r2, #4]
 642 051a C7E7     		b	.L80
 643              	.L83:
 644 051c C368     		ldr	r3, [r0, #12]
 645 051e 43F02003 		orr	r3, r3, #32
 646 0522 C360     		str	r3, [r0, #12]
 647 0524 F5E7     		b	.L78
 649 0526 00BF     		.align	2
 650              		.global	CAN_FIFORelease
 651              		.thumb
 652              		.thumb_func
 654              	CAN_FIFORelease:
 655              		@ args = 0, pretend = 0, frame = 0
 656              		@ frame_needed = 0, uses_anonymous_args = 0
 657              		@ link register save eliminated.
 658 0528 21B1     		cbz	r1, .L87
 659 052a 0369     		ldr	r3, [r0, #16]
 660 052c 43F02003 		orr	r3, r3, #32
 661 0530 0361     		str	r3, [r0, #16]
 662 0532 7047     		bx	lr
 663              	.L87:
 664 0534 C368     		ldr	r3, [r0, #12]
 665 0536 43F02003 		orr	r3, r3, #32
 666 053a C360     		str	r3, [r0, #12]
 667 053c 7047     		bx	lr
 669 053e 00BF     		.align	2
 670              		.global	CAN_MessagePending
 671              		.thumb
 672              		.thumb_func
 674              	CAN_MessagePending:
 675              		@ args = 0, pretend = 0, frame = 0
 676              		@ frame_needed = 0, uses_anonymous_args = 0
 677              		@ link register save eliminated.
 678 0540 31B1     		cbz	r1, .L92
 679 0542 0129     		cmp	r1, #1
 680 0544 06BF     		itte	eq
 681 0546 0069     		ldreq	r0, [r0, #16]
 682 0548 00F00300 		andeq	r0, r0, #3
 683 054c 0020     		movne	r0, #0
 684 054e 7047     		bx	lr
 685              	.L92:
 686 0550 C068     		ldr	r0, [r0, #12]
 687 0552 00F00300 		and	r0, r0, #3
 688 0556 7047     		bx	lr
 690              		.align	2
 691              		.global	CAN_OperatingModeRequest
 692              		.thumb
 693              		.thumb_func
 695              	CAN_OperatingModeRequest:
 696              		@ args = 0, pretend = 0, frame = 0
 697              		@ frame_needed = 0, uses_anonymous_args = 0
 698              		@ link register save eliminated.
 699 0558 F1B9     		cbnz	r1, .L94
 700 055a 0368     		ldr	r3, [r0, #0]
 701 055c 23F00303 		bic	r3, r3, #3
 702 0560 43F00103 		orr	r3, r3, #1
 703 0564 0360     		str	r3, [r0, #0]
 704 0566 4368     		ldr	r3, [r0, #4]
 705 0568 03F00303 		and	r3, r3, #3
 706 056c 012B     		cmp	r3, #1
 707 056e 09D0     		beq	.L95
 708 0570 4FF6FF73 		movw	r3, #65535
 709 0574 01E0     		b	.L96
 710              	.L107:
 711 0576 013B     		subs	r3, r3, #1
 712 0578 04D0     		beq	.L95
 713              	.L96:
 714 057a 4268     		ldr	r2, [r0, #4]
 715 057c 02F00302 		and	r2, r2, #3
 716 0580 012A     		cmp	r2, #1
 717 0582 F8D1     		bne	.L107
 718              	.L95:
 719 0584 4068     		ldr	r0, [r0, #4]
 720 0586 00F00300 		and	r0, r0, #3
 721 058a A0F1010C 		sub	ip, r0, #1
 722 058e DCF10000 		rsbs	r0, ip, #0
 723 0592 40EB0C00 		adc	r0, r0, ip
 724 0596 7047     		bx	lr
 725              	.L94:
 726 0598 0129     		cmp	r1, #1
 727 059a 03D0     		beq	.L108
 728 059c 0229     		cmp	r1, #2
 729 059e 17D0     		beq	.L109
 730 05a0 0020     		movs	r0, #0
 731 05a2 7047     		bx	lr
 732              	.L108:
 733 05a4 0368     		ldr	r3, [r0, #0]
 734 05a6 23F00303 		bic	r3, r3, #3
 735 05aa 0360     		str	r3, [r0, #0]
 736 05ac 4368     		ldr	r3, [r0, #4]
 737 05ae 9907     		lsls	r1, r3, #30
 738 05b0 07D0     		beq	.L99
 739 05b2 4FF6FF73 		movw	r3, #65535
 740 05b6 01E0     		b	.L100
 741              	.L110:
 742 05b8 013B     		subs	r3, r3, #1
 743 05ba 02D0     		beq	.L99
 744              	.L100:
 745 05bc 4268     		ldr	r2, [r0, #4]
 746 05be 9207     		lsls	r2, r2, #30
 747 05c0 FAD1     		bne	.L110
 748              	.L99:
 749 05c2 4368     		ldr	r3, [r0, #4]
 750 05c4 13F0030F 		tst	r3, #3
 751 05c8 14BF     		ite	ne
 752 05ca 0020     		movne	r0, #0
 753 05cc 0120     		moveq	r0, #1
 754 05ce 7047     		bx	lr
 755              	.L109:
 756 05d0 0368     		ldr	r3, [r0, #0]
 757 05d2 23F00303 		bic	r3, r3, #3
 758 05d6 43F00203 		orr	r3, r3, #2
 759 05da 0360     		str	r3, [r0, #0]
 760 05dc 4368     		ldr	r3, [r0, #4]
 761 05de 03F00303 		and	r3, r3, #3
 762 05e2 022B     		cmp	r3, #2
 763 05e4 09D0     		beq	.L101
 764 05e6 4FF6FF73 		movw	r3, #65535
 765 05ea 01E0     		b	.L102
 766              	.L111:
 767 05ec 013B     		subs	r3, r3, #1
 768 05ee 04D0     		beq	.L101
 769              	.L102:
 770 05f0 4268     		ldr	r2, [r0, #4]
 771 05f2 02F00302 		and	r2, r2, #3
 772 05f6 022A     		cmp	r2, #2
 773 05f8 F8D1     		bne	.L111
 774              	.L101:
 775 05fa 4068     		ldr	r0, [r0, #4]
 776 05fc 00F00300 		and	r0, r0, #3
 777 0600 A0F10201 		sub	r1, r0, #2
 778 0604 4842     		rsbs	r0, r1, #0
 779 0606 40EB0100 		adc	r0, r0, r1
 780 060a 7047     		bx	lr
 782              		.align	2
 783              		.global	CAN_Sleep
 784              		.thumb
 785              		.thumb_func
 787              	CAN_Sleep:
 788              		@ args = 0, pretend = 0, frame = 0
 789              		@ frame_needed = 0, uses_anonymous_args = 0
 790              		@ link register save eliminated.
 791 060c 0368     		ldr	r3, [r0, #0]
 792 060e 23F00303 		bic	r3, r3, #3
 793 0612 43F00203 		orr	r3, r3, #2
 794 0616 0360     		str	r3, [r0, #0]
 795 0618 4068     		ldr	r0, [r0, #4]
 796 061a 00F00300 		and	r0, r0, #3
 797 061e A0F10203 		sub	r3, r0, #2
 798 0622 5842     		rsbs	r0, r3, #0
 799 0624 40EB0300 		adc	r0, r0, r3
 800 0628 7047     		bx	lr
 802 062a 00BF     		.align	2
 803              		.global	CAN_WakeUp
 804              		.thumb
 805              		.thumb_func
 807              	CAN_WakeUp:
 808              		@ args = 0, pretend = 0, frame = 0
 809              		@ frame_needed = 0, uses_anonymous_args = 0
 810              		@ link register save eliminated.
 811 062c 0368     		ldr	r3, [r0, #0]
 812 062e 23F00203 		bic	r3, r3, #2
 813 0632 0360     		str	r3, [r0, #0]
 814 0634 4368     		ldr	r3, [r0, #4]
 815 0636 9907     		lsls	r1, r3, #30
 816 0638 07D5     		bpl	.L114
 817 063a 4FF6FF73 		movw	r3, #65535
 818 063e 01E0     		b	.L115
 819              	.L117:
 820 0640 013B     		subs	r3, r3, #1
 821 0642 02D0     		beq	.L114
 822              	.L115:
 823 0644 4268     		ldr	r2, [r0, #4]
 824 0646 9207     		lsls	r2, r2, #30
 825 0648 FAD4     		bmi	.L117
 826              	.L114:
 827 064a 4368     		ldr	r3, [r0, #4]
 828 064c 13F0020F 		tst	r3, #2
 829 0650 14BF     		ite	ne
 830 0652 0020     		movne	r0, #0
 831 0654 0120     		moveq	r0, #1
 832 0656 7047     		bx	lr
 834              		.align	2
 835              		.global	CAN_GetLastErrorCode
 836              		.thumb
 837              		.thumb_func
 839              	CAN_GetLastErrorCode:
 840              		@ args = 0, pretend = 0, frame = 0
 841              		@ frame_needed = 0, uses_anonymous_args = 0
 842              		@ link register save eliminated.
 843 0658 8069     		ldr	r0, [r0, #24]
 844 065a 00F07000 		and	r0, r0, #112
 845 065e 7047     		bx	lr
 847              		.align	2
 848              		.global	CAN_GetReceiveErrorCounter
 849              		.thumb
 850              		.thumb_func
 852              	CAN_GetReceiveErrorCounter:
 853              		@ args = 0, pretend = 0, frame = 0
 854              		@ frame_needed = 0, uses_anonymous_args = 0
 855              		@ link register save eliminated.
 856 0660 8069     		ldr	r0, [r0, #24]
 857 0662 000E     		lsrs	r0, r0, #24
 858 0664 7047     		bx	lr
 860 0666 00BF     		.align	2
 861              		.global	CAN_GetLSBTransmitErrorCounter
 862              		.thumb
 863              		.thumb_func
 865              	CAN_GetLSBTransmitErrorCounter:
 866              		@ args = 0, pretend = 0, frame = 0
 867              		@ frame_needed = 0, uses_anonymous_args = 0
 868              		@ link register save eliminated.
 869 0668 8069     		ldr	r0, [r0, #24]
 870 066a C0F30740 		ubfx	r0, r0, #16, #8
 871 066e 7047     		bx	lr
 873              		.align	2
 874              		.global	CAN_ITConfig
 875              		.thumb
 876              		.thumb_func
 878              	CAN_ITConfig:
 879              		@ args = 0, pretend = 0, frame = 0
 880              		@ frame_needed = 0, uses_anonymous_args = 0
 881              		@ link register save eliminated.
 882 0670 4369     		ldr	r3, [r0, #20]
 883 0672 1AB9     		cbnz	r2, .L124
 884 0674 23EA0101 		bic	r1, r3, r1
 885 0678 4161     		str	r1, [r0, #20]
 886 067a 7047     		bx	lr
 887              	.L124:
 888 067c 1943     		orrs	r1, r1, r3
 889 067e 4161     		str	r1, [r0, #20]
 890 0680 7047     		bx	lr
 892 0682 00BF     		.align	2
 893              		.global	CAN_GetFlagStatus
 894              		.thumb
 895              		.thumb_func
 897              	CAN_GetFlagStatus:
 898              		@ args = 0, pretend = 0, frame = 0
 899              		@ frame_needed = 0, uses_anonymous_args = 0
 900              		@ link register save eliminated.
 901 0684 11F4700F 		tst	r1, #15728640
 902 0688 09D0     		beq	.L126
 903 068a 8369     		ldr	r3, [r0, #24]
 904 068c 23F07F43 		bic	r3, r3, #-16777216
 905 0690 23F47003 		bic	r3, r3, #15728640
 906 0694 0B42     		tst	r3, r1
 907 0696 0CBF     		ite	eq
 908 0698 0020     		moveq	r0, #0
 909 069a 0120     		movne	r0, #1
 910 069c 7047     		bx	lr
 911              	.L126:
 912 069e CB01     		lsls	r3, r1, #7
 913 06a0 09D5     		bpl	.L128
 914 06a2 4368     		ldr	r3, [r0, #4]
 915 06a4 23F07F43 		bic	r3, r3, #-16777216
 916 06a8 23F47003 		bic	r3, r3, #15728640
 917 06ac 0B42     		tst	r3, r1
 918 06ae 0CBF     		ite	eq
 919 06b0 0020     		moveq	r0, #0
 920 06b2 0120     		movne	r0, #1
 921 06b4 7047     		bx	lr
 922              	.L128:
 923 06b6 0A01     		lsls	r2, r1, #4
 924 06b8 0BD4     		bmi	.L131
 925 06ba 8B01     		lsls	r3, r1, #6
 926 06bc 13D5     		bpl	.L130
 927 06be C368     		ldr	r3, [r0, #12]
 928 06c0 23F07F43 		bic	r3, r3, #-16777216
 929 06c4 23F47003 		bic	r3, r3, #15728640
 930 06c8 0B42     		tst	r3, r1
 931 06ca 0CBF     		ite	eq
 932 06cc 0020     		moveq	r0, #0
 933 06ce 0120     		movne	r0, #1
 934 06d0 7047     		bx	lr
 935              	.L131:
 936 06d2 8368     		ldr	r3, [r0, #8]
 937 06d4 23F07F43 		bic	r3, r3, #-16777216
 938 06d8 23F47003 		bic	r3, r3, #15728640
 939 06dc 0B42     		tst	r3, r1
 940 06de 0CBF     		ite	eq
 941 06e0 0020     		moveq	r0, #0
 942 06e2 0120     		movne	r0, #1
 943 06e4 7047     		bx	lr
 944              	.L130:
 945 06e6 0369     		ldr	r3, [r0, #16]
 946 06e8 23F07F43 		bic	r3, r3, #-16777216
 947 06ec 23F47003 		bic	r3, r3, #15728640
 948 06f0 0B42     		tst	r3, r1
 949 06f2 0CBF     		ite	eq
 950 06f4 0020     		moveq	r0, #0
 951 06f6 0120     		movne	r0, #1
 952 06f8 7047     		bx	lr
 954 06fa 00BF     		.align	2
 955              		.global	CAN_ClearFlag
 956              		.thumb
 957              		.thumb_func
 959              	CAN_ClearFlag:
 960              		@ args = 0, pretend = 0, frame = 0
 961              		@ frame_needed = 0, uses_anonymous_args = 0
 962              		@ link register save eliminated.
 963 06fc 7023     		movs	r3, #112
 964 06fe C3F2F003 		movt	r3, 12528
 965 0702 9942     		cmp	r1, r3
 966 0704 0ED0     		beq	.L138
 967 0706 21F07F43 		bic	r3, r1, #-16777216
 968 070a 8A01     		lsls	r2, r1, #6
 969 070c 23F47003 		bic	r3, r3, #15728640
 970 0710 06D4     		bmi	.L139
 971 0712 4A01     		lsls	r2, r1, #5
 972 0714 09D4     		bmi	.L140
 973 0716 0A01     		lsls	r2, r1, #4
 974 0718 4CBF     		ite	mi
 975 071a 8360     		strmi	r3, [r0, #8]
 976 071c 4360     		strpl	r3, [r0, #4]
 977 071e 7047     		bx	lr
 978              	.L139:
 979 0720 C360     		str	r3, [r0, #12]
 980 0722 7047     		bx	lr
 981              	.L138:
 982 0724 0023     		movs	r3, #0
 983 0726 8361     		str	r3, [r0, #24]
 984 0728 7047     		bx	lr
 985              	.L140:
 986 072a 0361     		str	r3, [r0, #16]
 987 072c 7047     		bx	lr
 989 072e 00BF     		.align	2
 990              		.global	CAN_GetITStatus
 991              		.thumb
 992              		.thumb_func
 994              	CAN_GetITStatus:
 995              		@ args = 0, pretend = 0, frame = 0
 996              		@ frame_needed = 0, uses_anonymous_args = 0
 997              		@ link register save eliminated.
 998 0730 4369     		ldr	r3, [r0, #20]
 999 0732 0B40     		ands	r3, r1, r3
 1000 0734 0BD0     		beq	.L160
 1001 0736 4029     		cmp	r1, #64
 1002 0738 33D0     		beq	.L149
 1003 073a 0AD8     		bhi	.L157
 1004 073c 0429     		cmp	r1, #4
 1005 073e 3BD0     		beq	.L145
 1006 0740 25D8     		bhi	.L158
 1007 0742 0129     		cmp	r1, #1
 1008 0744 4ED0     		beq	.L143
 1009 0746 0229     		cmp	r1, #2
 1010 0748 42D0     		beq	.L162
 1011              	.L161:
 1012 074a 0020     		movs	r0, #0
 1013 074c 7047     		bx	lr
 1014              	.L160:
 1015 074e 1846     		mov	r0, r3
 1016 0750 7047     		bx	lr
 1017              	.L157:
 1018 0752 B1F5006F 		cmp	r1, #2048
 1019 0756 28D0     		beq	.L153
 1020 0758 0CD8     		bhi	.L159
 1021 075a B1F5007F 		cmp	r1, #512
 1022 075e 4ED0     		beq	.L151
 1023 0760 B1F5806F 		cmp	r1, #1024
 1024 0764 30D0     		beq	.L152
 1025 0766 B1F5807F 		cmp	r1, #256
 1026 076a EED1     		bne	.L161
 1027 076c 8069     		ldr	r0, [r0, #24]
 1028 076e 00F00100 		and	r0, r0, #1
 1029 0772 7047     		bx	lr
 1030              	.L159:
 1031 0774 B1F5803F 		cmp	r1, #65536
 1032 0778 3DD0     		beq	.L155
 1033 077a B1F5003F 		cmp	r1, #131072
 1034 077e 2DD0     		beq	.L156
 1035 0780 B1F5004F 		cmp	r1, #32768
 1036 0784 E1D1     		bne	.L161
 1037 0786 4068     		ldr	r0, [r0, #4]
 1038 0788 C0F38000 		ubfx	r0, r0, #2, #1
 1039 078c 7047     		bx	lr
 1040              	.L158:
 1041 078e 1029     		cmp	r1, #16
 1042 0790 39D0     		beq	.L147
 1043 0792 2029     		cmp	r1, #32
 1044 0794 14D0     		beq	.L148
 1045 0796 0829     		cmp	r1, #8
 1046 0798 D7D1     		bne	.L161
 1047 079a C068     		ldr	r0, [r0, #12]
 1048 079c C0F30010 		ubfx	r0, r0, #4, #1
 1049 07a0 7047     		bx	lr
 1050              	.L149:
 1051 07a2 0069     		ldr	r0, [r0, #16]
 1052 07a4 C0F30010 		ubfx	r0, r0, #4, #1
 1053 07a8 7047     		bx	lr
 1054              	.L153:
 1055 07aa 8369     		ldr	r3, [r0, #24]
 1056 07ac 13F0700F 		tst	r3, #112
 1057 07b0 0CBF     		ite	eq
 1058 07b2 0020     		moveq	r0, #0
 1059 07b4 0120     		movne	r0, #1
 1060 07b6 7047     		bx	lr
 1061              	.L145:
 1062 07b8 C068     		ldr	r0, [r0, #12]
 1063 07ba C0F3C000 		ubfx	r0, r0, #3, #1
 1064 07be 7047     		bx	lr
 1065              	.L148:
 1066 07c0 0069     		ldr	r0, [r0, #16]
 1067 07c2 C0F3C000 		ubfx	r0, r0, #3, #1
 1068 07c6 7047     		bx	lr
 1069              	.L152:
 1070 07c8 8069     		ldr	r0, [r0, #24]
 1071 07ca C0F38000 		ubfx	r0, r0, #2, #1
 1072 07ce 7047     		bx	lr
 1073              	.L162:
 1074 07d0 C068     		ldr	r0, [r0, #12]
 1075 07d2 10F00300 		ands	r0, r0, #3
 1076 07d6 18BF     		it	ne
 1077 07d8 0120     		movne	r0, #1
 1078 07da 7047     		bx	lr
 1079              	.L156:
 1080 07dc 4068     		ldr	r0, [r0, #4]
 1081 07de C0F30010 		ubfx	r0, r0, #4, #1
 1082 07e2 7047     		bx	lr
 1083              	.L143:
 1084 07e4 8068     		ldr	r0, [r0, #8]
 1085 07e6 00F00130 		and	r0, r0, #16843009
 1086 07ea 20F08070 		bic	r0, r0, #16777216
 1087 07ee 0030     		adds	r0, r0, #0
 1088 07f0 18BF     		it	ne
 1089 07f2 0120     		movne	r0, #1
 1090 07f4 7047     		bx	lr
 1091              	.L155:
 1092 07f6 4068     		ldr	r0, [r0, #4]
 1093 07f8 C0F3C000 		ubfx	r0, r0, #3, #1
 1094 07fc 7047     		bx	lr
 1095              	.L151:
 1096 07fe 8069     		ldr	r0, [r0, #24]
 1097 0800 C0F34000 		ubfx	r0, r0, #1, #1
 1098 0804 7047     		bx	lr
 1099              	.L147:
 1100 0806 0069     		ldr	r0, [r0, #16]
 1101 0808 10F00300 		ands	r0, r0, #3
 1102 080c 18BF     		it	ne
 1103 080e 0120     		movne	r0, #1
 1104 0810 7047     		bx	lr
 1106 0812 00BF     		.align	2
 1107              		.global	CAN_ClearITPendingBit
 1108              		.thumb
 1109              		.thumb_func
 1111              	CAN_ClearITPendingBit:
 1112              		@ args = 0, pretend = 0, frame = 0
 1113              		@ frame_needed = 0, uses_anonymous_args = 0
 1114              		@ link register save eliminated.
 1115 0814 B1F5807F 		cmp	r1, #256
 1116 0818 1ED0     		beq	.L180
 1117 081a 11D9     		bls	.L181
 1118 081c B1F5006F 		cmp	r1, #2048
 1119 0820 18D0     		beq	.L173
 1120 0822 1CD9     		bls	.L182
 1121 0824 B1F5803F 		cmp	r1, #65536
 1122 0828 36D0     		beq	.L175
 1123 082a B1F5003F 		cmp	r1, #131072
 1124 082e 30D0     		beq	.L176
 1125 0830 B1F5004F 		cmp	r1, #32768
 1126 0834 19D1     		bne	.L163
 1127 0836 0023     		movs	r3, #0
 1128 0838 8361     		str	r3, [r0, #24]
 1129 083a 0423     		movs	r3, #4
 1130 083c 4360     		str	r3, [r0, #4]
 1131 083e 14E0     		b	.L163
 1132              	.L181:
 1133 0840 0829     		cmp	r1, #8
 1134 0842 1DD0     		beq	.L167
 1135 0844 12D9     		bls	.L183
 1136 0846 2029     		cmp	r1, #32
 1137 0848 17D0     		beq	.L168
 1138 084a 4029     		cmp	r1, #64
 1139 084c 0DD1     		bne	.L163
 1140 084e 1023     		movs	r3, #16
 1141 0850 0361     		str	r3, [r0, #16]
 1142 0852 7047     		bx	lr
 1143              	.L173:
 1144 0854 0023     		movs	r3, #0
 1145 0856 8361     		str	r3, [r0, #24]
 1146              	.L180:
 1147 0858 0423     		movs	r3, #4
 1148 085a 4360     		str	r3, [r0, #4]
 1149 085c 7047     		bx	lr
 1150              	.L182:
 1151 085e B1F5007F 		cmp	r1, #512
 1152 0862 F9D0     		beq	.L180
 1153 0864 B1F5806F 		cmp	r1, #1024
 1154 0868 F6D0     		beq	.L180
 1155              	.L163:
 1156 086a 7047     		bx	lr
 1157              	.L183:
 1158 086c 0129     		cmp	r1, #1
 1159 086e 0AD0     		beq	.L165
 1160 0870 0429     		cmp	r1, #4
 1161 0872 FAD1     		bne	.L163
 1162 0874 0823     		movs	r3, #8
 1163 0876 C360     		str	r3, [r0, #12]
 1164 0878 7047     		bx	lr
 1165              	.L168:
 1166 087a 0823     		movs	r3, #8
 1167 087c 0361     		str	r3, [r0, #16]
 1168 087e 7047     		bx	lr
 1169              	.L167:
 1170 0880 1023     		movs	r3, #16
 1171 0882 C360     		str	r3, [r0, #12]
 1172 0884 7047     		bx	lr
 1173              	.L165:
 1174 0886 40F20113 		movw	r3, #257
 1175 088a 61F31F43 		bfi	r3, r1, #16, #16
 1176 088e 8360     		str	r3, [r0, #8]
 1177 0890 7047     		bx	lr
 1178              	.L176:
 1179 0892 1023     		movs	r3, #16
 1180 0894 4360     		str	r3, [r0, #4]
 1181 0896 7047     		bx	lr
 1182              	.L175:
 1183 0898 0823     		movs	r3, #8
 1184 089a 4360     		str	r3, [r0, #4]
 1185 089c 7047     		bx	lr
 1187 089e 00BF     		.ident	"GCC: (Linaro GCC 4.6-2011.10) 4.6.2 20111004 (prerelease)"