   1              		.syntax unified
   2              		.cpu cortex-m4
   3              		.fpu softvfp
   4              		.eabi_attribute 20, 1
   5              		.eabi_attribute 21, 1
   6              		.eabi_attribute 23, 3
   7              		.eabi_attribute 24, 1
   8              		.eabi_attribute 25, 1
   9              		.eabi_attribute 26, 1
  10              		.eabi_attribute 30, 2
  11              		.eabi_attribute 18, 4
  12              		.thumb
  13              		.file	"stm32f4xx_rcc.c"
  14              		.text
  15              		.align	2
  16              		.global	RCC_DeInit
  17              		.thumb
  18              		.thumb_func
  20              	RCC_DeInit:
  21              		@ args = 0, pretend = 0, frame = 0
  22              		@ frame_needed = 0, uses_anonymous_args = 0
  23              		@ link register save eliminated.
  24 0000 4FF46053 		mov	r3, #14336
  25 0004 C4F20203 		movt	r3, 16386
  26 0008 0022     		movs	r2, #0
  27 000a 1968     		ldr	r1, [r3, #0]
  28 000c 41F00101 		orr	r1, r1, #1
  29 0010 1960     		str	r1, [r3, #0]
  30 0012 9A60     		str	r2, [r3, #8]
  31 0014 1868     		ldr	r0, [r3, #0]
  32 0016 43F21001 		movw	r1, #12304
  33 001a 20F08470 		bic	r0, r0, #17301504
  34 001e C2F20041 		movt	r1, 9216
  35 0022 20F48030 		bic	r0, r0, #65536
  36 0026 1860     		str	r0, [r3, #0]
  37 0028 5960     		str	r1, [r3, #4]
  38 002a 1968     		ldr	r1, [r3, #0]
  39 002c 21F48021 		bic	r1, r1, #262144
  40 0030 1960     		str	r1, [r3, #0]
  41 0032 DA60     		str	r2, [r3, #12]
  42 0034 7047     		bx	lr
  44 0036 00BF     		.align	2
  45              		.global	RCC_HSEConfig
  46              		.thumb
  47              		.thumb_func
  49              	RCC_HSEConfig:
  50              		@ args = 0, pretend = 0, frame = 0
  51              		@ frame_needed = 0, uses_anonymous_args = 0
  52              		@ link register save eliminated.
  53 0038 43F60203 		movw	r3, #14338
  54 003c C4F20203 		movt	r3, 16386
  55 0040 0022     		movs	r2, #0
  56 0042 1A70     		strb	r2, [r3, #0]
  57 0044 1870     		strb	r0, [r3, #0]
  58 0046 7047     		bx	lr
  60              		.align	2
  61              		.global	RCC_WaitForHSEStartUp
  62              		.thumb
  63              		.thumb_func
  65              	RCC_WaitForHSEStartUp:
  66              		@ args = 0, pretend = 0, frame = 8
  67              		@ frame_needed = 0, uses_anonymous_args = 0
  68              		@ link register save eliminated.
  69 0048 82B0     		sub	sp, sp, #8
  70 004a 4FF46051 		mov	r1, #14336
  71 004e 0023     		movs	r3, #0
  72 0050 0193     		str	r3, [sp, #4]
  73 0052 C4F20201 		movt	r1, 16386
  74              	.L5:
  75 0056 0A68     		ldr	r2, [r1, #0]
  76 0058 019B     		ldr	r3, [sp, #4]
  77 005a 0133     		adds	r3, r3, #1
  78 005c 0193     		str	r3, [sp, #4]
  79 005e 019B     		ldr	r3, [sp, #4]
  80 0060 B3F5A06F 		cmp	r3, #1280
  81 0064 01D0     		beq	.L4
  82 0066 9303     		lsls	r3, r2, #14
  83 0068 F5D5     		bpl	.L5
  84              	.L4:
  85 006a 4FF46053 		mov	r3, #14336
  86 006e C4F20203 		movt	r3, 16386
  87 0072 1868     		ldr	r0, [r3, #0]
  88 0074 C0F34040 		ubfx	r0, r0, #17, #1
  89 0078 02B0     		add	sp, sp, #8
  90 007a 7047     		bx	lr
  92              		.align	2
  93              		.global	RCC_AdjustHSICalibrationValue
  94              		.thumb
  95              		.thumb_func
  97              	RCC_AdjustHSICalibrationValue:
  98              		@ args = 0, pretend = 0, frame = 0
  99              		@ frame_needed = 0, uses_anonymous_args = 0
 100              		@ link register save eliminated.
 101 007c 4FF46053 		mov	r3, #14336
 102 0080 C4F20203 		movt	r3, 16386
 103 0084 1A68     		ldr	r2, [r3, #0]
 104 0086 22F0F802 		bic	r2, r2, #248
 105 008a 42EAC002 		orr	r2, r2, r0, lsl #3
 106 008e 1A60     		str	r2, [r3, #0]
 107 0090 7047     		bx	lr
 109 0092 00BF     		.align	2
 110              		.global	RCC_HSICmd
 111              		.thumb
 112              		.thumb_func
 114              	RCC_HSICmd:
 115              		@ args = 0, pretend = 0, frame = 0
 116              		@ frame_needed = 0, uses_anonymous_args = 0
 117              		@ link register save eliminated.
 118 0094 0023     		movs	r3, #0
 119 0096 C4F24723 		movt	r3, 16967
 120 009a 1860     		str	r0, [r3, #0]
 121 009c 7047     		bx	lr
 123 009e 00BF     		.align	2
 124              		.global	RCC_LSEConfig
 125              		.thumb
 126              		.thumb_func
 128              	RCC_LSEConfig:
 129              		@ args = 0, pretend = 0, frame = 0
 130              		@ frame_needed = 0, uses_anonymous_args = 0
 131              		@ link register save eliminated.
 132 00a0 43F67003 		movw	r3, #14448
 133 00a4 C4F20203 		movt	r3, 16386
 134 00a8 0022     		movs	r2, #0
 135 00aa 0128     		cmp	r0, #1
 136 00ac 1A70     		strb	r2, [r3, #0]
 137 00ae 1A70     		strb	r2, [r3, #0]
 138 00b0 04D0     		beq	.L12
 139 00b2 0428     		cmp	r0, #4
 140 00b4 01D1     		bne	.L10
 141 00b6 0522     		movs	r2, #5
 142 00b8 1A70     		strb	r2, [r3, #0]
 143              	.L10:
 144 00ba 7047     		bx	lr
 145              	.L12:
 146 00bc 1870     		strb	r0, [r3, #0]
 147 00be 7047     		bx	lr
 149              		.align	2
 150              		.global	RCC_LSICmd
 151              		.thumb
 152              		.thumb_func
 154              	RCC_LSICmd:
 155              		@ args = 0, pretend = 0, frame = 0
 156              		@ frame_needed = 0, uses_anonymous_args = 0
 157              		@ link register save eliminated.
 158 00c0 4FF46863 		mov	r3, #3712
 159 00c4 C4F24723 		movt	r3, 16967
 160 00c8 1860     		str	r0, [r3, #0]
 161 00ca 7047     		bx	lr
 163              		.align	2
 164              		.global	RCC_PLLConfig
 165              		.thumb
 166              		.thumb_func
 168              	RCC_PLLConfig:
 169              		@ args = 4, pretend = 0, frame = 0
 170              		@ frame_needed = 0, uses_anonymous_args = 0
 171              		@ link register save eliminated.
 172 00cc 0143     		orrs	r1, r1, r0
 173 00ce 41EA8212 		orr	r2, r1, r2, lsl #6
 174 00d2 0099     		ldr	r1, [sp, #0]
 175 00d4 5B08     		lsrs	r3, r3, #1
 176 00d6 4FF46050 		mov	r0, #14336
 177 00da 42EA0162 		orr	r2, r2, r1, lsl #24
 178 00de 013B     		subs	r3, r3, #1
 179 00e0 C4F20200 		movt	r0, 16386
 180 00e4 42EA0342 		orr	r2, r2, r3, lsl #16
 181 00e8 4260     		str	r2, [r0, #4]
 182 00ea 7047     		bx	lr
 184              		.align	2
 185              		.global	RCC_PLLCmd
 186              		.thumb
 187              		.thumb_func
 189              	RCC_PLLCmd:
 190              		@ args = 0, pretend = 0, frame = 0
 191              		@ frame_needed = 0, uses_anonymous_args = 0
 192              		@ link register save eliminated.
 193 00ec 6023     		movs	r3, #96
 194 00ee C4F24723 		movt	r3, 16967
 195 00f2 1860     		str	r0, [r3, #0]
 196 00f4 7047     		bx	lr
 198 00f6 00BF     		.align	2
 199              		.global	RCC_PLLI2SConfig
 200              		.thumb
 201              		.thumb_func
 203              	RCC_PLLI2SConfig:
 204              		@ args = 0, pretend = 0, frame = 0
 205              		@ frame_needed = 0, uses_anonymous_args = 0
 206              		@ link register save eliminated.
 207 00f8 4FF46053 		mov	r3, #14336
 208 00fc 8001     		lsls	r0, r0, #6
 209 00fe C4F20203 		movt	r3, 16386
 210 0102 40EA0171 		orr	r1, r0, r1, lsl #28
 211 0106 C3F88410 		str	r1, [r3, #132]
 212 010a 7047     		bx	lr
 214              		.align	2
 215              		.global	RCC_PLLI2SCmd
 216              		.thumb
 217              		.thumb_func
 219              	RCC_PLLI2SCmd:
 220              		@ args = 0, pretend = 0, frame = 0
 221              		@ frame_needed = 0, uses_anonymous_args = 0
 222              		@ link register save eliminated.
 223 010c 6823     		movs	r3, #104
 224 010e C4F24723 		movt	r3, 16967
 225 0112 1860     		str	r0, [r3, #0]
 226 0114 7047     		bx	lr
 228 0116 00BF     		.align	2
 229              		.global	RCC_ClockSecuritySystemCmd
 230              		.thumb
 231              		.thumb_func
 233              	RCC_ClockSecuritySystemCmd:
 234              		@ args = 0, pretend = 0, frame = 0
 235              		@ frame_needed = 0, uses_anonymous_args = 0
 236              		@ link register save eliminated.
 237 0118 4C23     		movs	r3, #76
 238 011a C4F24723 		movt	r3, 16967
 239 011e 1860     		str	r0, [r3, #0]
 240 0120 7047     		bx	lr
 242 0122 00BF     		.align	2
 243              		.global	RCC_MCO1Config
 244              		.thumb
 245              		.thumb_func
 247              	RCC_MCO1Config:
 248              		@ args = 0, pretend = 0, frame = 0
 249              		@ frame_needed = 0, uses_anonymous_args = 0
 250              		@ link register save eliminated.
 251 0124 4FF46053 		mov	r3, #14336
 252 0128 C4F20203 		movt	r3, 16386
 253 012c 9A68     		ldr	r2, [r3, #8]
 254 012e 22F0EC62 		bic	r2, r2, #123731968
 255 0132 0243     		orrs	r2, r2, r0
 256 0134 0A43     		orrs	r2, r2, r1
 257 0136 9A60     		str	r2, [r3, #8]
 258 0138 7047     		bx	lr
 260 013a 00BF     		.align	2
 261              		.global	RCC_MCO2Config
 262              		.thumb
 263              		.thumb_func
 265              	RCC_MCO2Config:
 266              		@ args = 0, pretend = 0, frame = 0
 267              		@ frame_needed = 0, uses_anonymous_args = 0
 268              		@ link register save eliminated.
 269 013c 4FF46053 		mov	r3, #14336
 270 0140 C4F20203 		movt	r3, 16386
 271 0144 9A68     		ldr	r2, [r3, #8]
 272 0146 22F07842 		bic	r2, r2, #-134217728
 273 014a 0243     		orrs	r2, r2, r0
 274 014c 0A43     		orrs	r2, r2, r1
 275 014e 9A60     		str	r2, [r3, #8]
 276 0150 7047     		bx	lr
 278 0152 00BF     		.align	2
 279              		.global	RCC_SYSCLKConfig
 280              		.thumb
 281              		.thumb_func
 283              	RCC_SYSCLKConfig:
 284              		@ args = 0, pretend = 0, frame = 0
 285              		@ frame_needed = 0, uses_anonymous_args = 0
 286              		@ link register save eliminated.
 287 0154 4FF46053 		mov	r3, #14336
 288 0158 C4F20203 		movt	r3, 16386
 289 015c 9A68     		ldr	r2, [r3, #8]
 290 015e 22F00302 		bic	r2, r2, #3
 291 0162 0243     		orrs	r2, r2, r0
 292 0164 9A60     		str	r2, [r3, #8]
 293 0166 7047     		bx	lr
 295              		.align	2
 296              		.global	RCC_GetSYSCLKSource
 297              		.thumb
 298              		.thumb_func
 300              	RCC_GetSYSCLKSource:
 301              		@ args = 0, pretend = 0, frame = 0
 302              		@ frame_needed = 0, uses_anonymous_args = 0
 303              		@ link register save eliminated.
 304 0168 4FF46053 		mov	r3, #14336
 305 016c C4F20203 		movt	r3, 16386
 306 0170 9868     		ldr	r0, [r3, #8]
 307 0172 00F00C00 		and	r0, r0, #12
 308 0176 7047     		bx	lr
 310              		.align	2
 311              		.global	RCC_HCLKConfig
 312              		.thumb
 313              		.thumb_func
 315              	RCC_HCLKConfig:
 316              		@ args = 0, pretend = 0, frame = 0
 317              		@ frame_needed = 0, uses_anonymous_args = 0
 318              		@ link register save eliminated.
 319 0178 4FF46053 		mov	r3, #14336
 320 017c C4F20203 		movt	r3, 16386
 321 0180 9A68     		ldr	r2, [r3, #8]
 322 0182 22F0F002 		bic	r2, r2, #240
 323 0186 0243     		orrs	r2, r2, r0
 324 0188 9A60     		str	r2, [r3, #8]
 325 018a 7047     		bx	lr
 327              		.align	2
 328              		.global	RCC_PCLK1Config
 329              		.thumb
 330              		.thumb_func
 332              	RCC_PCLK1Config:
 333              		@ args = 0, pretend = 0, frame = 0
 334              		@ frame_needed = 0, uses_anonymous_args = 0
 335              		@ link register save eliminated.
 336 018c 4FF46053 		mov	r3, #14336
 337 0190 C4F20203 		movt	r3, 16386
 338 0194 9A68     		ldr	r2, [r3, #8]
 339 0196 22F4E052 		bic	r2, r2, #7168
 340 019a 0243     		orrs	r2, r2, r0
 341 019c 9A60     		str	r2, [r3, #8]
 342 019e 7047     		bx	lr
 344              		.align	2
 345              		.global	RCC_PCLK2Config
 346              		.thumb
 347              		.thumb_func
 349              	RCC_PCLK2Config:
 350              		@ args = 0, pretend = 0, frame = 0
 351              		@ frame_needed = 0, uses_anonymous_args = 0
 352              		@ link register save eliminated.
 353 01a0 4FF46053 		mov	r3, #14336
 354 01a4 C4F20203 		movt	r3, 16386
 355 01a8 9A68     		ldr	r2, [r3, #8]
 356 01aa 22F46042 		bic	r2, r2, #57344
 357 01ae 42EAC002 		orr	r2, r2, r0, lsl #3
 358 01b2 9A60     		str	r2, [r3, #8]
 359 01b4 7047     		bx	lr
 361 01b6 00BF     		.align	2
 362              		.global	RCC_GetClocksFreq
 363              		.thumb
 364              		.thumb_func
 366              	RCC_GetClocksFreq:
 367              		@ args = 0, pretend = 0, frame = 0
 368              		@ frame_needed = 0, uses_anonymous_args = 0
 369              		@ link register save eliminated.
 370 01b8 4FF46053 		mov	r3, #14336
 371 01bc C4F20203 		movt	r3, 16386
 372 01c0 10B4     		push	{r4}
 373 01c2 9A68     		ldr	r2, [r3, #8]
 374 01c4 02F00C02 		and	r2, r2, #12
 375 01c8 042A     		cmp	r2, #4
 376 01ca 02BF     		ittt	eq
 377 01cc 4FF49052 		moveq	r2, #4608
 378 01d0 C0F27A02 		movteq	r2, 122
 379 01d4 0260     		streq	r2, [r0, #0]
 380 01d6 06D0     		beq	.L32
 381 01d8 082A     		cmp	r2, #8
 382 01da 1ED0     		beq	.L31
 383 01dc 4FF41052 		mov	r2, #9216
 384 01e0 C0F2F402 		movt	r2, 244
 385 01e4 0260     		str	r2, [r0, #0]
 386              	.L32:
 387 01e6 4FF46053 		mov	r3, #14336
 388 01ea C4F20203 		movt	r3, 16386
 389 01ee 1C49     		ldr	r1, .L36
 390 01f0 9C68     		ldr	r4, [r3, #8]
 391 01f2 C4F30314 		ubfx	r4, r4, #4, #4
 392 01f6 0C5D     		ldrb	r4, [r1, r4]	@ zero_extendqisi2
 393 01f8 E240     		lsrs	r2, r2, r4
 394 01fa 4260     		str	r2, [r0, #4]
 395 01fc 9C68     		ldr	r4, [r3, #8]
 396 01fe C4F38224 		ubfx	r4, r4, #10, #3
 397 0202 0C5D     		ldrb	r4, [r1, r4]	@ zero_extendqisi2
 398 0204 32FA04F4 		lsrs	r4, r2, r4
 399 0208 8460     		str	r4, [r0, #8]
 400 020a 9B68     		ldr	r3, [r3, #8]
 401 020c C3F34233 		ubfx	r3, r3, #13, #3
 402 0210 CB5C     		ldrb	r3, [r1, r3]	@ zero_extendqisi2
 403 0212 DA40     		lsrs	r2, r2, r3
 404 0214 C260     		str	r2, [r0, #12]
 405 0216 10BC     		pop	{r4}
 406 0218 7047     		bx	lr
 407              	.L31:
 408 021a 5C68     		ldr	r4, [r3, #4]
 409 021c 5968     		ldr	r1, [r3, #4]
 410 021e 14F4800F 		tst	r4, #4194304
 411 0222 5C68     		ldr	r4, [r3, #4]
 412 0224 15BF     		itete	ne
 413 0226 4FF49053 		movne	r3, #4608
 414 022a 4FF41053 		moveq	r3, #9216
 415 022e C0F27A03 		movtne	r3, 122
 416 0232 C0F2F403 		movteq	r3, 244
 417 0236 01F03F01 		and	r1, r1, #63
 418 023a B3FBF1F2 		udiv	r2, r3, r1
 419 023e 4FF46053 		mov	r3, #14336
 420 0242 C4F20203 		movt	r3, 16386
 421 0246 C4F38814 		ubfx	r4, r4, #6, #9
 422 024a 5B68     		ldr	r3, [r3, #4]
 423 024c C3F30143 		ubfx	r3, r3, #16, #2
 424 0250 0133     		adds	r3, r3, #1
 425 0252 02FB04F2 		mul	r2, r2, r4
 426 0256 5B00     		lsls	r3, r3, #1
 427 0258 B2FBF3F2 		udiv	r2, r2, r3
 428 025c 0260     		str	r2, [r0, #0]
 429 025e C2E7     		b	.L32
 430              	.L37:
 431              		.align	2
 432              	.L36:
 433 0260 00000000 		.word	.LANCHOR0
 435              		.align	2
 436              		.global	RCC_RTCCLKConfig
 437              		.thumb
 438              		.thumb_func
 440              	RCC_RTCCLKConfig:
 441              		@ args = 0, pretend = 0, frame = 0
 442              		@ frame_needed = 0, uses_anonymous_args = 0
 443              		@ link register save eliminated.
 444 0264 00F44073 		and	r3, r0, #768
 445 0268 B3F5407F 		cmp	r3, #768
 446 026c 0CD1     		bne	.L39
 447 026e 4FF46053 		mov	r3, #14336
 448 0272 C4F20203 		movt	r3, 16386
 449 0276 20F07041 		bic	r1, r0, #-268435456
 450 027a 9A68     		ldr	r2, [r3, #8]
 451 027c 21F44071 		bic	r1, r1, #768
 452 0280 22F4F812 		bic	r2, r2, #2031616
 453 0284 0A43     		orrs	r2, r2, r1
 454 0286 9A60     		str	r2, [r3, #8]
 455              	.L39:
 456 0288 4FF46053 		mov	r3, #14336
 457 028c C4F20203 		movt	r3, 16386
 458 0290 0005     		lsls	r0, r0, #20
 459 0292 1A6F     		ldr	r2, [r3, #112]
 460 0294 000D     		lsrs	r0, r0, #20
 461 0296 1043     		orrs	r0, r0, r2
 462 0298 1867     		str	r0, [r3, #112]
 463 029a 7047     		bx	lr
 465              		.align	2
 466              		.global	RCC_RTCCLKCmd
 467              		.thumb
 468              		.thumb_func
 470              	RCC_RTCCLKCmd:
 471              		@ args = 0, pretend = 0, frame = 0
 472              		@ frame_needed = 0, uses_anonymous_args = 0
 473              		@ link register save eliminated.
 474 029c 40F63C63 		movw	r3, #3644
 475 02a0 C4F24723 		movt	r3, 16967
 476 02a4 1860     		str	r0, [r3, #0]
 477 02a6 7047     		bx	lr
 479              		.align	2
 480              		.global	RCC_BackupResetCmd
 481              		.thumb
 482              		.thumb_func
 484              	RCC_BackupResetCmd:
 485              		@ args = 0, pretend = 0, frame = 0
 486              		@ frame_needed = 0, uses_anonymous_args = 0
 487              		@ link register save eliminated.
 488 02a8 4FF46463 		mov	r3, #3648
 489 02ac C4F24723 		movt	r3, 16967
 490 02b0 1860     		str	r0, [r3, #0]
 491 02b2 7047     		bx	lr
 493              		.align	2
 494              		.global	RCC_I2SCLKConfig
 495              		.thumb
 496              		.thumb_func
 498              	RCC_I2SCLKConfig:
 499              		@ args = 0, pretend = 0, frame = 0
 500              		@ frame_needed = 0, uses_anonymous_args = 0
 501              		@ link register save eliminated.
 502 02b4 4FF4AE73 		mov	r3, #348
 503 02b8 C4F24723 		movt	r3, 16967
 504 02bc 1860     		str	r0, [r3, #0]
 505 02be 7047     		bx	lr
 507              		.align	2
 508              		.global	RCC_AHB1PeriphClockCmd
 509              		.thumb
 510              		.thumb_func
 512              	RCC_AHB1PeriphClockCmd:
 513              		@ args = 0, pretend = 0, frame = 0
 514              		@ frame_needed = 0, uses_anonymous_args = 0
 515              		@ link register save eliminated.
 516 02c0 4FF46053 		mov	r3, #14336
 517 02c4 C4F20203 		movt	r3, 16386
 518 02c8 1A6B     		ldr	r2, [r3, #48]
 519 02ca 19B9     		cbnz	r1, .L46
 520 02cc 22EA0000 		bic	r0, r2, r0
 521 02d0 1863     		str	r0, [r3, #48]
 522 02d2 7047     		bx	lr
 523              	.L46:
 524 02d4 1043     		orrs	r0, r0, r2
 525 02d6 1863     		str	r0, [r3, #48]
 526 02d8 7047     		bx	lr
 528 02da 00BF     		.align	2
 529              		.global	RCC_AHB2PeriphClockCmd
 530              		.thumb
 531              		.thumb_func
 533              	RCC_AHB2PeriphClockCmd:
 534              		@ args = 0, pretend = 0, frame = 0
 535              		@ frame_needed = 0, uses_anonymous_args = 0
 536              		@ link register save eliminated.
 537 02dc 4FF46053 		mov	r3, #14336
 538 02e0 C4F20203 		movt	r3, 16386
 539 02e4 5A6B     		ldr	r2, [r3, #52]
 540 02e6 19B9     		cbnz	r1, .L50
 541 02e8 22EA0000 		bic	r0, r2, r0
 542 02ec 5863     		str	r0, [r3, #52]
 543 02ee 7047     		bx	lr
 544              	.L50:
 545 02f0 1043     		orrs	r0, r0, r2
 546 02f2 5863     		str	r0, [r3, #52]
 547 02f4 7047     		bx	lr
 549 02f6 00BF     		.align	2
 550              		.global	RCC_AHB3PeriphClockCmd
 551              		.thumb
 552              		.thumb_func
 554              	RCC_AHB3PeriphClockCmd:
 555              		@ args = 0, pretend = 0, frame = 0
 556              		@ frame_needed = 0, uses_anonymous_args = 0
 557              		@ link register save eliminated.
 558 02f8 4FF46053 		mov	r3, #14336
 559 02fc C4F20203 		movt	r3, 16386
 560 0300 9A6B     		ldr	r2, [r3, #56]
 561 0302 19B9     		cbnz	r1, .L54
 562 0304 22EA0000 		bic	r0, r2, r0
 563 0308 9863     		str	r0, [r3, #56]
 564 030a 7047     		bx	lr
 565              	.L54:
 566 030c 1043     		orrs	r0, r0, r2
 567 030e 9863     		str	r0, [r3, #56]
 568 0310 7047     		bx	lr
 570 0312 00BF     		.align	2
 571              		.global	RCC_APB1PeriphClockCmd
 572              		.thumb
 573              		.thumb_func
 575              	RCC_APB1PeriphClockCmd:
 576              		@ args = 0, pretend = 0, frame = 0
 577              		@ frame_needed = 0, uses_anonymous_args = 0
 578              		@ link register save eliminated.
 579 0314 4FF46053 		mov	r3, #14336
 580 0318 C4F20203 		movt	r3, 16386
 581 031c 1A6C     		ldr	r2, [r3, #64]
 582 031e 19B9     		cbnz	r1, .L58
 583 0320 22EA0000 		bic	r0, r2, r0
 584 0324 1864     		str	r0, [r3, #64]
 585 0326 7047     		bx	lr
 586              	.L58:
 587 0328 1043     		orrs	r0, r0, r2
 588 032a 1864     		str	r0, [r3, #64]
 589 032c 7047     		bx	lr
 591 032e 00BF     		.align	2
 592              		.global	RCC_APB2PeriphClockCmd
 593              		.thumb
 594              		.thumb_func
 596              	RCC_APB2PeriphClockCmd:
 597              		@ args = 0, pretend = 0, frame = 0
 598              		@ frame_needed = 0, uses_anonymous_args = 0
 599              		@ link register save eliminated.
 600 0330 4FF46053 		mov	r3, #14336
 601 0334 C4F20203 		movt	r3, 16386
 602 0338 5A6C     		ldr	r2, [r3, #68]
 603 033a 19B9     		cbnz	r1, .L62
 604 033c 22EA0000 		bic	r0, r2, r0
 605 0340 5864     		str	r0, [r3, #68]
 606 0342 7047     		bx	lr
 607              	.L62:
 608 0344 1043     		orrs	r0, r0, r2
 609 0346 5864     		str	r0, [r3, #68]
 610 0348 7047     		bx	lr
 612 034a 00BF     		.align	2
 613              		.global	RCC_AHB1PeriphResetCmd
 614              		.thumb
 615              		.thumb_func
 617              	RCC_AHB1PeriphResetCmd:
 618              		@ args = 0, pretend = 0, frame = 0
 619              		@ frame_needed = 0, uses_anonymous_args = 0
 620              		@ link register save eliminated.
 621 034c 4FF46053 		mov	r3, #14336
 622 0350 C4F20203 		movt	r3, 16386
 623 0354 1A69     		ldr	r2, [r3, #16]
 624 0356 19B9     		cbnz	r1, .L66
 625 0358 22EA0000 		bic	r0, r2, r0
 626 035c 1861     		str	r0, [r3, #16]
 627 035e 7047     		bx	lr
 628              	.L66:
 629 0360 1043     		orrs	r0, r0, r2
 630 0362 1861     		str	r0, [r3, #16]
 631 0364 7047     		bx	lr
 633 0366 00BF     		.align	2
 634              		.global	RCC_AHB2PeriphResetCmd
 635              		.thumb
 636              		.thumb_func
 638              	RCC_AHB2PeriphResetCmd:
 639              		@ args = 0, pretend = 0, frame = 0
 640              		@ frame_needed = 0, uses_anonymous_args = 0
 641              		@ link register save eliminated.
 642 0368 4FF46053 		mov	r3, #14336
 643 036c C4F20203 		movt	r3, 16386
 644 0370 5A69     		ldr	r2, [r3, #20]
 645 0372 19B9     		cbnz	r1, .L70
 646 0374 22EA0000 		bic	r0, r2, r0
 647 0378 5861     		str	r0, [r3, #20]
 648 037a 7047     		bx	lr
 649              	.L70:
 650 037c 1043     		orrs	r0, r0, r2
 651 037e 5861     		str	r0, [r3, #20]
 652 0380 7047     		bx	lr
 654 0382 00BF     		.align	2
 655              		.global	RCC_AHB3PeriphResetCmd
 656              		.thumb
 657              		.thumb_func
 659              	RCC_AHB3PeriphResetCmd:
 660              		@ args = 0, pretend = 0, frame = 0
 661              		@ frame_needed = 0, uses_anonymous_args = 0
 662              		@ link register save eliminated.
 663 0384 4FF46053 		mov	r3, #14336
 664 0388 C4F20203 		movt	r3, 16386
 665 038c 9A69     		ldr	r2, [r3, #24]
 666 038e 19B9     		cbnz	r1, .L74
 667 0390 22EA0000 		bic	r0, r2, r0
 668 0394 9861     		str	r0, [r3, #24]
 669 0396 7047     		bx	lr
 670              	.L74:
 671 0398 1043     		orrs	r0, r0, r2
 672 039a 9861     		str	r0, [r3, #24]
 673 039c 7047     		bx	lr
 675 039e 00BF     		.align	2
 676              		.global	RCC_APB1PeriphResetCmd
 677              		.thumb
 678              		.thumb_func
 680              	RCC_APB1PeriphResetCmd:
 681              		@ args = 0, pretend = 0, frame = 0
 682              		@ frame_needed = 0, uses_anonymous_args = 0
 683              		@ link register save eliminated.
 684 03a0 4FF46053 		mov	r3, #14336
 685 03a4 C4F20203 		movt	r3, 16386
 686 03a8 1A6A     		ldr	r2, [r3, #32]
 687 03aa 19B9     		cbnz	r1, .L78
 688 03ac 22EA0000 		bic	r0, r2, r0
 689 03b0 1862     		str	r0, [r3, #32]
 690 03b2 7047     		bx	lr
 691              	.L78:
 692 03b4 1043     		orrs	r0, r0, r2
 693 03b6 1862     		str	r0, [r3, #32]
 694 03b8 7047     		bx	lr
 696 03ba 00BF     		.align	2
 697              		.global	RCC_APB2PeriphResetCmd
 698              		.thumb
 699              		.thumb_func
 701              	RCC_APB2PeriphResetCmd:
 702              		@ args = 0, pretend = 0, frame = 0
 703              		@ frame_needed = 0, uses_anonymous_args = 0
 704              		@ link register save eliminated.
 705 03bc 4FF46053 		mov	r3, #14336
 706 03c0 C4F20203 		movt	r3, 16386
 707 03c4 5A6A     		ldr	r2, [r3, #36]
 708 03c6 19B9     		cbnz	r1, .L82
 709 03c8 22EA0000 		bic	r0, r2, r0
 710 03cc 5862     		str	r0, [r3, #36]
 711 03ce 7047     		bx	lr
 712              	.L82:
 713 03d0 1043     		orrs	r0, r0, r2
 714 03d2 5862     		str	r0, [r3, #36]
 715 03d4 7047     		bx	lr
 717 03d6 00BF     		.align	2
 718              		.global	RCC_AHB1PeriphClockLPModeCmd
 719              		.thumb
 720              		.thumb_func
 722              	RCC_AHB1PeriphClockLPModeCmd:
 723              		@ args = 0, pretend = 0, frame = 0
 724              		@ frame_needed = 0, uses_anonymous_args = 0
 725              		@ link register save eliminated.
 726 03d8 4FF46053 		mov	r3, #14336
 727 03dc C4F20203 		movt	r3, 16386
 728 03e0 1A6D     		ldr	r2, [r3, #80]
 729 03e2 19B9     		cbnz	r1, .L86
 730 03e4 22EA0000 		bic	r0, r2, r0
 731 03e8 1865     		str	r0, [r3, #80]
 732 03ea 7047     		bx	lr
 733              	.L86:
 734 03ec 1043     		orrs	r0, r0, r2
 735 03ee 1865     		str	r0, [r3, #80]
 736 03f0 7047     		bx	lr
 738 03f2 00BF     		.align	2
 739              		.global	RCC_AHB2PeriphClockLPModeCmd
 740              		.thumb
 741              		.thumb_func
 743              	RCC_AHB2PeriphClockLPModeCmd:
 744              		@ args = 0, pretend = 0, frame = 0
 745              		@ frame_needed = 0, uses_anonymous_args = 0
 746              		@ link register save eliminated.
 747 03f4 4FF46053 		mov	r3, #14336
 748 03f8 C4F20203 		movt	r3, 16386
 749 03fc 5A6D     		ldr	r2, [r3, #84]
 750 03fe 19B9     		cbnz	r1, .L90
 751 0400 22EA0000 		bic	r0, r2, r0
 752 0404 5865     		str	r0, [r3, #84]
 753 0406 7047     		bx	lr
 754              	.L90:
 755 0408 1043     		orrs	r0, r0, r2
 756 040a 5865     		str	r0, [r3, #84]
 757 040c 7047     		bx	lr
 759 040e 00BF     		.align	2
 760              		.global	RCC_AHB3PeriphClockLPModeCmd
 761              		.thumb
 762              		.thumb_func
 764              	RCC_AHB3PeriphClockLPModeCmd:
 765              		@ args = 0, pretend = 0, frame = 0
 766              		@ frame_needed = 0, uses_anonymous_args = 0
 767              		@ link register save eliminated.
 768 0410 4FF46053 		mov	r3, #14336
 769 0414 C4F20203 		movt	r3, 16386
 770 0418 9A6D     		ldr	r2, [r3, #88]
 771 041a 19B9     		cbnz	r1, .L94
 772 041c 22EA0000 		bic	r0, r2, r0
 773 0420 9865     		str	r0, [r3, #88]
 774 0422 7047     		bx	lr
 775              	.L94:
 776 0424 1043     		orrs	r0, r0, r2
 777 0426 9865     		str	r0, [r3, #88]
 778 0428 7047     		bx	lr
 780 042a 00BF     		.align	2
 781              		.global	RCC_APB1PeriphClockLPModeCmd
 782              		.thumb
 783              		.thumb_func
 785              	RCC_APB1PeriphClockLPModeCmd:
 786              		@ args = 0, pretend = 0, frame = 0
 787              		@ frame_needed = 0, uses_anonymous_args = 0
 788              		@ link register save eliminated.
 789 042c 4FF46053 		mov	r3, #14336
 790 0430 C4F20203 		movt	r3, 16386
 791 0434 1A6E     		ldr	r2, [r3, #96]
 792 0436 19B9     		cbnz	r1, .L98
 793 0438 22EA0000 		bic	r0, r2, r0
 794 043c 1866     		str	r0, [r3, #96]
 795 043e 7047     		bx	lr
 796              	.L98:
 797 0440 1043     		orrs	r0, r0, r2
 798 0442 1866     		str	r0, [r3, #96]
 799 0444 7047     		bx	lr
 801 0446 00BF     		.align	2
 802              		.global	RCC_APB2PeriphClockLPModeCmd
 803              		.thumb
 804              		.thumb_func
 806              	RCC_APB2PeriphClockLPModeCmd:
 807              		@ args = 0, pretend = 0, frame = 0
 808              		@ frame_needed = 0, uses_anonymous_args = 0
 809              		@ link register save eliminated.
 810 0448 4FF46053 		mov	r3, #14336
 811 044c C4F20203 		movt	r3, 16386
 812 0450 5A6E     		ldr	r2, [r3, #100]
 813 0452 19B9     		cbnz	r1, .L102
 814 0454 22EA0000 		bic	r0, r2, r0
 815 0458 5866     		str	r0, [r3, #100]
 816 045a 7047     		bx	lr
 817              	.L102:
 818 045c 1043     		orrs	r0, r0, r2
 819 045e 5866     		str	r0, [r3, #100]
 820 0460 7047     		bx	lr
 822 0462 00BF     		.align	2
 823              		.global	RCC_ITConfig
 824              		.thumb
 825              		.thumb_func
 827              	RCC_ITConfig:
 828              		@ args = 0, pretend = 0, frame = 0
 829              		@ frame_needed = 0, uses_anonymous_args = 0
 830              		@ link register save eliminated.
 831 0464 43F60D03 		movw	r3, #14349
 832 0468 C4F20203 		movt	r3, 16386
 833 046c 1A78     		ldrb	r2, [r3, #0]	@ zero_extendqisi2
 834 046e 19B9     		cbnz	r1, .L106
 835 0470 22EA0000 		bic	r0, r2, r0
 836 0474 1870     		strb	r0, [r3, #0]
 837 0476 7047     		bx	lr
 838              	.L106:
 839 0478 1043     		orrs	r0, r0, r2
 840 047a 1870     		strb	r0, [r3, #0]
 841 047c 7047     		bx	lr
 843 047e 00BF     		.align	2
 844              		.global	RCC_GetFlagStatus
 845              		.thumb
 846              		.thumb_func
 848              	RCC_GetFlagStatus:
 849              		@ args = 0, pretend = 0, frame = 0
 850              		@ frame_needed = 0, uses_anonymous_args = 0
 851              		@ link register save eliminated.
 852 0480 4309     		lsrs	r3, r0, #5
 853 0482 012B     		cmp	r3, #1
 854 0484 0ED0     		beq	.L111
 855 0486 022B     		cmp	r3, #2
 856 0488 4FF46053 		mov	r3, #14336
 857 048c C4F20203 		movt	r3, 16386
 858 0490 0CBF     		ite	eq
 859 0492 1B6F     		ldreq	r3, [r3, #112]
 860 0494 5B6F     		ldrne	r3, [r3, #116]
 861              	.L109:
 862 0496 00F01F00 		and	r0, r0, #31
 863 049a 33FA00F0 		lsrs	r0, r3, r0
 864 049e 00F00100 		and	r0, r0, #1
 865 04a2 7047     		bx	lr
 866              	.L111:
 867 04a4 4FF46053 		mov	r3, #14336
 868 04a8 C4F20203 		movt	r3, 16386
 869 04ac 1B68     		ldr	r3, [r3, #0]
 870 04ae F2E7     		b	.L109
 872              		.align	2
 873              		.global	RCC_ClearFlag
 874              		.thumb
 875              		.thumb_func
 877              	RCC_ClearFlag:
 878              		@ args = 0, pretend = 0, frame = 0
 879              		@ frame_needed = 0, uses_anonymous_args = 0
 880              		@ link register save eliminated.
 881 04b0 4FF46053 		mov	r3, #14336
 882 04b4 C4F20203 		movt	r3, 16386
 883 04b8 5A6F     		ldr	r2, [r3, #116]
 884 04ba 42F08072 		orr	r2, r2, #16777216
 885 04be 5A67     		str	r2, [r3, #116]
 886 04c0 7047     		bx	lr
 888 04c2 00BF     		.align	2
 889              		.global	RCC_GetITStatus
 890              		.thumb
 891              		.thumb_func
 893              	RCC_GetITStatus:
 894              		@ args = 0, pretend = 0, frame = 0
 895              		@ frame_needed = 0, uses_anonymous_args = 0
 896              		@ link register save eliminated.
 897 04c4 4FF46053 		mov	r3, #14336
 898 04c8 C4F20203 		movt	r3, 16386
 899 04cc DB68     		ldr	r3, [r3, #12]
 900 04ce 1842     		tst	r0, r3
 901 04d0 0CBF     		ite	eq
 902 04d2 0020     		moveq	r0, #0
 903 04d4 0120     		movne	r0, #1
 904 04d6 7047     		bx	lr
 906              		.align	2
 907              		.global	RCC_ClearITPendingBit
 908              		.thumb
 909              		.thumb_func
 911              	RCC_ClearITPendingBit:
 912              		@ args = 0, pretend = 0, frame = 0
 913              		@ frame_needed = 0, uses_anonymous_args = 0
 914              		@ link register save eliminated.
 915 04d8 43F60E03 		movw	r3, #14350
 916 04dc C4F20203 		movt	r3, 16386
 917 04e0 1870     		strb	r0, [r3, #0]
 918 04e2 7047     		bx	lr
 920              		.data
 921              		.align	2
 922              		.set	.LANCHOR0,. + 0
 925              	APBAHBPrescTable:
 926 0000 00       		.byte	0
 927 0001 00       		.byte	0
 928 0002 00       		.byte	0
 929 0003 00       		.byte	0
 930 0004 01       		.byte	1
 931 0005 02       		.byte	2
 932 0006 03       		.byte	3
 933 0007 04       		.byte	4
 934 0008 01       		.byte	1
 935 0009 02       		.byte	2
 936 000a 03       		.byte	3
 937 000b 04       		.byte	4
 938 000c 06       		.byte	6
 939 000d 07       		.byte	7
 940 000e 08       		.byte	8
 941 000f 09       		.byte	9
 942              		.ident	"GCC: (Linaro GCC 4.6-2011.10) 4.6.2 20111004 (prerelease)"