   1              		.syntax unified
   2              		.cpu cortex-m4
   3              		.fpu softvfp
   4              		.eabi_attribute 20, 1
   5              		.eabi_attribute 21, 1
   6              		.eabi_attribute 23, 3
   7              		.eabi_attribute 24, 1
   8              		.eabi_attribute 25, 1
   9              		.eabi_attribute 26, 1
  10              		.eabi_attribute 30, 2
  11              		.eabi_attribute 18, 4
  12              		.thumb
  13              		.file	"stm32f4xx_exti.c"
  14              		.text
  15              		.align	2
  16              		.global	EXTI_DeInit
  17              		.thumb
  18              		.thumb_func
  20              	EXTI_DeInit:
  21              		@ args = 0, pretend = 0, frame = 0
  22              		@ frame_needed = 0, uses_anonymous_args = 0
  23              		@ link register save eliminated.
  24 0000 4FF47053 		mov	r3, #15360
  25 0004 C4F20103 		movt	r3, 16385
  26 0008 4FF6FF71 		movw	r1, #65535
  27 000c 0022     		movs	r2, #0
  28 000e C0F27F01 		movt	r1, 127
  29 0012 1A60     		str	r2, [r3, #0]
  30 0014 5A60     		str	r2, [r3, #4]
  31 0016 9A60     		str	r2, [r3, #8]
  32 0018 DA60     		str	r2, [r3, #12]
  33 001a 5961     		str	r1, [r3, #20]
  34 001c 7047     		bx	lr
  36 001e 00BF     		.align	2
  37              		.global	EXTI_Init
  38              		.thumb
  39              		.thumb_func
  41              	EXTI_Init:
  42              		@ args = 0, pretend = 0, frame = 0
  43              		@ frame_needed = 0, uses_anonymous_args = 0
  44              		@ link register save eliminated.
  45 0020 8379     		ldrb	r3, [r0, #6]	@ zero_extendqisi2
  46 0022 70B4     		push	{r4, r5, r6}
  47 0024 3BB3     		cbz	r3, .L3
  48 0026 4FF47053 		mov	r3, #15360
  49 002a C4F20103 		movt	r3, 16385
  50 002e 0168     		ldr	r1, [r0, #0]
  51 0030 1E68     		ldr	r6, [r3, #0]
  52 0032 0279     		ldrb	r2, [r0, #4]	@ zero_extendqisi2
  53 0034 4579     		ldrb	r5, [r0, #5]	@ zero_extendqisi2
  54 0036 CC43     		mvns	r4, r1
  55 0038 2640     		ands	r6, r6, r4
  56 003a 1E60     		str	r6, [r3, #0]
  57 003c 5E68     		ldr	r6, [r3, #4]
  58 003e 02F18042 		add	r2, r2, #1073741824
  59 0042 02F59E32 		add	r2, r2, #80896
  60 0046 3440     		ands	r4, r4, r6
  61 0048 5C60     		str	r4, [r3, #4]
  62 004a 1468     		ldr	r4, [r2, #0]
  63 004c 2143     		orrs	r1, r1, r4
  64 004e 1160     		str	r1, [r2, #0]
  65 0050 0268     		ldr	r2, [r0, #0]
  66 0052 9868     		ldr	r0, [r3, #8]
  67 0054 D143     		mvns	r1, r2
  68 0056 0840     		ands	r0, r0, r1
  69 0058 9860     		str	r0, [r3, #8]
  70 005a D868     		ldr	r0, [r3, #12]
  71 005c 102D     		cmp	r5, #16
  72 005e 01EA0001 		and	r1, r1, r0
  73 0062 D960     		str	r1, [r3, #12]
  74 0064 13D0     		beq	.L7
  75 0066 05F18045 		add	r5, r5, #1073741824
  76 006a 05F59E35 		add	r5, r5, #80896
  77 006e 2B68     		ldr	r3, [r5, #0]
  78 0070 1A43     		orrs	r2, r2, r3
  79 0072 2A60     		str	r2, [r5, #0]
  80 0074 09E0     		b	.L2
  81              	.L3:
  82 0076 0379     		ldrb	r3, [r0, #4]	@ zero_extendqisi2
  83 0078 0168     		ldr	r1, [r0, #0]
  84 007a 03F18043 		add	r3, r3, #1073741824
  85 007e 03F59E33 		add	r3, r3, #80896
  86 0082 1A68     		ldr	r2, [r3, #0]
  87 0084 22EA0102 		bic	r2, r2, r1
  88 0088 1A60     		str	r2, [r3, #0]
  89              	.L2:
  90 008a 70BC     		pop	{r4, r5, r6}
  91 008c 7047     		bx	lr
  92              	.L7:
  93 008e 9968     		ldr	r1, [r3, #8]
  94 0090 1143     		orrs	r1, r1, r2
  95 0092 9960     		str	r1, [r3, #8]
  96 0094 D968     		ldr	r1, [r3, #12]
  97 0096 0A43     		orrs	r2, r2, r1
  98 0098 DA60     		str	r2, [r3, #12]
  99 009a F6E7     		b	.L2
 101              		.align	2
 102              		.global	EXTI_StructInit
 103              		.thumb
 104              		.thumb_func
 106              	EXTI_StructInit:
 107              		@ args = 0, pretend = 0, frame = 0
 108              		@ frame_needed = 0, uses_anonymous_args = 0
 109              		@ link register save eliminated.
 110 009c 0023     		movs	r3, #0
 111 009e 0C22     		movs	r2, #12
 112 00a0 0360     		str	r3, [r0, #0]
 113 00a2 0371     		strb	r3, [r0, #4]
 114 00a4 4271     		strb	r2, [r0, #5]
 115 00a6 8371     		strb	r3, [r0, #6]
 116 00a8 7047     		bx	lr
 118 00aa 00BF     		.align	2
 119              		.global	EXTI_GenerateSWInterrupt
 120              		.thumb
 121              		.thumb_func
 123              	EXTI_GenerateSWInterrupt:
 124              		@ args = 0, pretend = 0, frame = 0
 125              		@ frame_needed = 0, uses_anonymous_args = 0
 126              		@ link register save eliminated.
 127 00ac 4FF47053 		mov	r3, #15360
 128 00b0 C4F20103 		movt	r3, 16385
 129 00b4 1A69     		ldr	r2, [r3, #16]
 130 00b6 0243     		orrs	r2, r2, r0
 131 00b8 1A61     		str	r2, [r3, #16]
 132 00ba 7047     		bx	lr
 134              		.align	2
 135              		.global	EXTI_GetFlagStatus
 136              		.thumb
 137              		.thumb_func
 139              	EXTI_GetFlagStatus:
 140              		@ args = 0, pretend = 0, frame = 0
 141              		@ frame_needed = 0, uses_anonymous_args = 0
 142              		@ link register save eliminated.
 143 00bc 4FF47053 		mov	r3, #15360
 144 00c0 C4F20103 		movt	r3, 16385
 145 00c4 5B69     		ldr	r3, [r3, #20]
 146 00c6 1842     		tst	r0, r3
 147 00c8 0CBF     		ite	eq
 148 00ca 0020     		moveq	r0, #0
 149 00cc 0120     		movne	r0, #1
 150 00ce 7047     		bx	lr
 152              		.align	2
 153              		.global	EXTI_ClearFlag
 154              		.thumb
 155              		.thumb_func
 157              	EXTI_ClearFlag:
 158              		@ args = 0, pretend = 0, frame = 0
 159              		@ frame_needed = 0, uses_anonymous_args = 0
 160              		@ link register save eliminated.
 161 00d0 4FF47053 		mov	r3, #15360
 162 00d4 C4F20103 		movt	r3, 16385
 163 00d8 5861     		str	r0, [r3, #20]
 164 00da 7047     		bx	lr
 166              		.align	2
 167              		.global	EXTI_GetITStatus
 168              		.thumb
 169              		.thumb_func
 171              	EXTI_GetITStatus:
 172              		@ args = 0, pretend = 0, frame = 0
 173              		@ frame_needed = 0, uses_anonymous_args = 0
 174              		@ link register save eliminated.
 175 00dc 4FF47053 		mov	r3, #15360
 176 00e0 C4F20103 		movt	r3, 16385
 177 00e4 1A68     		ldr	r2, [r3, #0]
 178 00e6 5B69     		ldr	r3, [r3, #20]
 179 00e8 0340     		ands	r3, r0, r3
 180 00ea 04D0     		beq	.L14
 181 00ec 1042     		tst	r0, r2
 182 00ee 0CBF     		ite	eq
 183 00f0 0020     		moveq	r0, #0
 184 00f2 0120     		movne	r0, #1
 185 00f4 7047     		bx	lr
 186              	.L14:
 187 00f6 1846     		mov	r0, r3
 188 00f8 7047     		bx	lr
 190 00fa 00BF     		.align	2
 191              		.global	EXTI_ClearITPendingBit
 192              		.thumb
 193              		.thumb_func
 195              	EXTI_ClearITPendingBit:
 196              		@ args = 0, pretend = 0, frame = 0
 197              		@ frame_needed = 0, uses_anonymous_args = 0
 198              		@ link register save eliminated.
 199 00fc 4FF47053 		mov	r3, #15360
 200 0100 C4F20103 		movt	r3, 16385
 201 0104 5861     		str	r0, [r3, #20]
 202 0106 7047     		bx	lr
 204              		.ident	"GCC: (Linaro GCC 4.6-2011.10) 4.6.2 20111004 (prerelease)"