   1              		.syntax unified
   2              		.cpu cortex-m4
   3              		.fpu softvfp
   4              		.eabi_attribute 20, 1
   5              		.eabi_attribute 21, 1
   6              		.eabi_attribute 23, 3
   7              		.eabi_attribute 24, 1
   8              		.eabi_attribute 25, 1
   9              		.eabi_attribute 26, 1
  10              		.eabi_attribute 30, 2
  11              		.eabi_attribute 18, 4
  12              		.thumb
  13              		.file	"stm32f4_discovery.c"
  14              		.text
  15              		.align	2
  16              		.global	STM_EVAL_LEDInit
  17              		.thumb
  18              		.thumb_func
  20              	STM_EVAL_LEDInit:
  21              		@ args = 0, pretend = 0, frame = 8
  22              		@ frame_needed = 0, uses_anonymous_args = 0
  23 0000 30B5     		push	{r4, r5, lr}
  24 0002 40F20004 		movw	r4, #:lower16:.LANCHOR0
  25 0006 C0F20004 		movt	r4, #:upper16:.LANCHOR0
  26 000a 0546     		mov	r5, r0
  27 000c 54F82000 		ldr	r0, [r4, r0, lsl #2]
  28 0010 04EB4504 		add	r4, r4, r5, lsl #1
  29 0014 83B0     		sub	sp, sp, #12
  30 0016 0121     		movs	r1, #1
  31 0018 FFF7FEFF 		bl	RCC_AHB1PeriphClockCmd
  32 001c 238A     		ldrh	r3, [r4, #16]
  33 001e 40F20002 		movw	r2, #:lower16:.LANCHOR1
  34 0022 C0F20002 		movt	r2, #:upper16:.LANCHOR1
  35 0026 0093     		str	r3, [sp, #0]
  36 0028 0123     		movs	r3, #1
  37 002a 52F82500 		ldr	r0, [r2, r5, lsl #2]
  38 002e 8DF80430 		strb	r3, [sp, #4]
  39 0032 0022     		movs	r2, #0
  40 0034 8DF80730 		strb	r3, [sp, #7]
  41 0038 6946     		mov	r1, sp
  42 003a 0223     		movs	r3, #2
  43 003c 8DF80620 		strb	r2, [sp, #6]
  44 0040 8DF80530 		strb	r3, [sp, #5]
  45 0044 FFF7FEFF 		bl	GPIO_Init
  46 0048 03B0     		add	sp, sp, #12
  47 004a 30BD     		pop	{r4, r5, pc}
  49              		.align	2
  50              		.global	STM_EVAL_LEDOn
  51              		.thumb
  52              		.thumb_func
  54              	STM_EVAL_LEDOn:
  55              		@ args = 0, pretend = 0, frame = 0
  56              		@ frame_needed = 0, uses_anonymous_args = 0
  57              		@ link register save eliminated.
  58 004c 40F20003 		movw	r3, #:lower16:.LANCHOR0
  59 0050 40F20002 		movw	r2, #:lower16:.LANCHOR1
  60 0054 C0F20003 		movt	r3, #:upper16:.LANCHOR0
  61 0058 C0F20002 		movt	r2, #:upper16:.LANCHOR1
  62 005c 03EB4003 		add	r3, r3, r0, lsl #1
  63 0060 52F82020 		ldr	r2, [r2, r0, lsl #2]
  64 0064 1B8A     		ldrh	r3, [r3, #16]
  65 0066 1383     		strh	r3, [r2, #24]	@ movhi
  66 0068 7047     		bx	lr
  68 006a 00BF     		.align	2
  69              		.global	STM_EVAL_LEDOff
  70              		.thumb
  71              		.thumb_func
  73              	STM_EVAL_LEDOff:
  74              		@ args = 0, pretend = 0, frame = 0
  75              		@ frame_needed = 0, uses_anonymous_args = 0
  76              		@ link register save eliminated.
  77 006c 40F20003 		movw	r3, #:lower16:.LANCHOR0
  78 0070 40F20002 		movw	r2, #:lower16:.LANCHOR1
  79 0074 C0F20003 		movt	r3, #:upper16:.LANCHOR0
  80 0078 C0F20002 		movt	r2, #:upper16:.LANCHOR1
  81 007c 03EB4003 		add	r3, r3, r0, lsl #1
  82 0080 52F82020 		ldr	r2, [r2, r0, lsl #2]
  83 0084 1B8A     		ldrh	r3, [r3, #16]
  84 0086 5383     		strh	r3, [r2, #26]	@ movhi
  85 0088 7047     		bx	lr
  87 008a 00BF     		.align	2
  88              		.global	STM_EVAL_LEDToggle
  89              		.thumb
  90              		.thumb_func
  92              	STM_EVAL_LEDToggle:
  93              		@ args = 0, pretend = 0, frame = 0
  94              		@ frame_needed = 0, uses_anonymous_args = 0
  95              		@ link register save eliminated.
  96 008c 40F20003 		movw	r3, #:lower16:.LANCHOR1
  97 0090 C0F20003 		movt	r3, #:upper16:.LANCHOR1
  98 0094 40F20002 		movw	r2, #:lower16:.LANCHOR0
  99 0098 C0F20002 		movt	r2, #:upper16:.LANCHOR0
 100 009c 53F82030 		ldr	r3, [r3, r0, lsl #2]
 101 00a0 02EB4002 		add	r2, r2, r0, lsl #1
 102 00a4 5969     		ldr	r1, [r3, #20]
 103 00a6 128A     		ldrh	r2, [r2, #16]
 104 00a8 4A40     		eors	r2, r2, r1
 105 00aa 5A61     		str	r2, [r3, #20]
 106 00ac 7047     		bx	lr
 108 00ae 00BF     		.align	2
 109              		.global	STM_EVAL_PBInit
 110              		.thumb
 111              		.thumb_func
 113              	STM_EVAL_PBInit:
 114              		@ args = 0, pretend = 0, frame = 24
 115              		@ frame_needed = 0, uses_anonymous_args = 0
 116 00b0 30B5     		push	{r4, r5, lr}
 117 00b2 0446     		mov	r4, r0
 118 00b4 0120     		movs	r0, #1
 119 00b6 87B0     		sub	sp, sp, #28
 120 00b8 0D46     		mov	r5, r1
 121 00ba 0146     		mov	r1, r0
 122 00bc FFF7FEFF 		bl	RCC_AHB1PeriphClockCmd
 123 00c0 0121     		movs	r1, #1
 124 00c2 4FF48040 		mov	r0, #16384
 125 00c6 FFF7FEFF 		bl	RCC_APB2PeriphClockCmd
 126 00ca 06A9     		add	r1, sp, #24
 127 00cc 0123     		movs	r3, #1
 128 00ce 41F8143D 		str	r3, [r1, #-20]!
 129 00d2 164B     		ldr	r3, .L9
 130 00d4 03EB8403 		add	r3, r3, r4, lsl #2
 131 00d8 0024     		movs	r4, #0
 132 00da 1869     		ldr	r0, [r3, #16]
 133 00dc 8DF80840 		strb	r4, [sp, #8]
 134 00e0 8DF80B40 		strb	r4, [sp, #11]
 135 00e4 FFF7FEFF 		bl	GPIO_Init
 136 00e8 012D     		cmp	r5, #1
 137 00ea 01D0     		beq	.L8
 138              	.L5:
 139 00ec 07B0     		add	sp, sp, #28
 140 00ee 30BD     		pop	{r4, r5, pc}
 141              	.L8:
 142 00f0 2046     		mov	r0, r4
 143 00f2 2146     		mov	r1, r4
 144 00f4 FFF7FEFF 		bl	SYSCFG_EXTILineConfig
 145 00f8 0823     		movs	r3, #8
 146 00fa 03A8     		add	r0, sp, #12
 147 00fc 8DF81130 		strb	r3, [sp, #17]
 148 0100 0395     		str	r5, [sp, #12]
 149 0102 8DF81040 		strb	r4, [sp, #16]
 150 0106 8DF81250 		strb	r5, [sp, #18]
 151 010a FFF7FEFF 		bl	EXTI_Init
 152 010e 0F23     		movs	r3, #15
 153 0110 0622     		movs	r2, #6
 154 0112 05A8     		add	r0, sp, #20
 155 0114 8DF81420 		strb	r2, [sp, #20]
 156 0118 8DF81530 		strb	r3, [sp, #21]
 157 011c 8DF81630 		strb	r3, [sp, #22]
 158 0120 8DF81750 		strb	r5, [sp, #23]
 159 0124 FFF7FEFF 		bl	NVIC_Init
 160 0128 E0E7     		b	.L5
 161              	.L10:
 162 012a 00BF     		.align	2
 163              	.L9:
 164 012c 00000000 		.word	.LANCHOR1
 166              		.align	2
 167              		.global	STM_EVAL_PBGetState
 168              		.thumb
 169              		.thumb_func
 171              	STM_EVAL_PBGetState:
 172              		@ args = 0, pretend = 0, frame = 0
 173              		@ frame_needed = 0, uses_anonymous_args = 0
 174 0130 08B5     		push	{r3, lr}
 175 0132 40F20003 		movw	r3, #:lower16:.LANCHOR1
 176 0136 C0F20003 		movt	r3, #:upper16:.LANCHOR1
 177 013a 03EB8003 		add	r3, r3, r0, lsl #2
 178 013e 0121     		movs	r1, #1
 179 0140 1869     		ldr	r0, [r3, #16]
 180 0142 FFF7FEFF 		bl	GPIO_ReadInputDataBit
 181 0146 08BD     		pop	{r3, pc}
 183              		.comm	NVIC_InitStructure,4,4
 184              		.global	BUTTON_IRQn
 185              		.global	BUTTON_PIN_SOURCE
 186              		.global	BUTTON_PORT_SOURCE
 187              		.global	BUTTON_EXTI_LINE
 188              		.global	BUTTON_CLK
 189              		.global	BUTTON_PIN
 190              		.global	BUTTON_PORT
 191              		.global	GPIO_CLK
 192              		.global	GPIO_PIN
 193              		.global	GPIO_PORT
 194              		.section	.rodata
 195              		.align	2
 196              		.set	.LANCHOR0,. + 0
 199              	GPIO_CLK:
 200 0000 08000000 		.word	8
 201 0004 08000000 		.word	8
 202 0008 08000000 		.word	8
 203 000c 08000000 		.word	8
 206              	GPIO_PIN:
 207 0010 0010     		.short	4096
 208 0012 0020     		.short	8192
 209 0014 0040     		.short	16384
 210 0016 0080     		.short	-32768
 213              	BUTTON_IRQn:
 214 0018 06       		.byte	6
 215 0019 000000   		.space	3
 218              	BUTTON_PIN_SOURCE:
 219 001c 00       		.space	1
 220 001d 000000   		.space	3
 223              	BUTTON_PORT_SOURCE:
 224 0020 00       		.space	1
 225 0021 000000   		.space	3
 228              	BUTTON_EXTI_LINE:
 229 0024 0100     		.short	1
 230 0026 0000     		.space	2
 233              	BUTTON_CLK:
 234 0028 01000000 		.word	1
 237              	BUTTON_PIN:
 238 002c 0100     		.short	1
 239 002e 0000     		.data
 240              		.align	2
 241              		.set	.LANCHOR1,. + 0
 244              	GPIO_PORT:
 245 0000 000C0240 		.word	1073875968
 246 0004 000C0240 		.word	1073875968
 247 0008 000C0240 		.word	1073875968
 248 000c 000C0240 		.word	1073875968
 251              	BUTTON_PORT:
 252 0010 00000240 		.word	1073872896
 253              		.ident	"GCC: (Linaro GCC 4.6-2011.10) 4.6.2 20111004 (prerelease)"